TN:
SF:/root/mfem/mfem/examples/ex1.cpp
FN:66,main
FNDA:1,main
FNF:1
FNH:1
DA:66,1
DA:69,1
DA:70,1
DA:71,1
DA:72,1
DA:73,1
DA:74,2
DA:82,1
DA:84,1
DA:88,1
DA:91,1
DA:92,1
DA:94,0
DA:97,1
DA:101,2
DA:102,1
DA:107,2
DA:116,1
DA:117,5
DA:119,4
DA:128,1
DA:130,1
DA:133,0
DA:137,0
DA:141,0
DA:144,2
DA:146,1
DA:153,1
DA:155,1
DA:157,1
DA:163,2
DA:165,1
DA:166,1
DA:171,2
DA:172,1
DA:177,2
DA:178,1
DA:179,1
DA:185,1
DA:186,1
DA:190,1
DA:192,1
DA:195,1
DA:200,1
DA:211,0
DA:213,0
DA:214,0
DA:218,0
DA:223,1
DA:227,2
DA:229,1
DA:230,2
DA:232,1
DA:235,1
DA:237,1
DA:239,2
DA:241,1
DA:245,1
DA:247,1
LF:59
LH:51
end_of_record
TN:
SF:/root/mfem/mfem/fem/bilininteg.hpp
FN:1928,_ZN4mfem19DiffusionIntegratorC2ERNS_11CoefficientE
FNDA:1,_ZN4mfem19DiffusionIntegratorC2ERNS_11CoefficientE
FNF:1
FNH:1
DA:1928,1
DA:1929,1
LF:2
LH:2
end_of_record
TN:
SF:/root/mfem/mfem/fem/coefficient.hpp
FN:87,_ZN4mfem19ConstantCoefficient4EvalERNS_21ElementTransformationERKNS_16IntegrationPointE
FNDA:786432,_ZN4mfem19ConstantCoefficient4EvalERNS_21ElementTransformationERKNS_16IntegrationPointE
FNF:1
FNH:1
DA:45,1
DA:78,1
DA:84,1
DA:87,786432
DA:89,786432
LF:5
LH:5
end_of_record
TN:
SF:/root/mfem/mfem/fem/eltrans.hpp
FN:167,_ZN4mfem21ElementTransformationD0Ev
FN:167,_ZN4mfem21ElementTransformationD2Ev
FN:443,_ZN4mfem27IsoparametricTransformationD0Ev
FN:443,_ZN4mfem27IsoparametricTransformationD2Ev
FNDA:0,_ZN4mfem21ElementTransformationD0Ev
FNDA:0,_ZN4mfem27IsoparametricTransformationD0Ev
FNDA:8,_ZN4mfem21ElementTransformationD2Ev
FNDA:8,_ZN4mfem27IsoparametricTransformationD2Ev
FNF:4
FNH:2
DA:167,8
DA:443,16
LF:2
LH:2
end_of_record
TN:
SF:/root/mfem/mfem/fem/fe.hpp
FN:702,_ZNK4mfem18NodalFiniteElement21GetLocalInterpolationERNS_21ElementTransformationERNS_11DenseMatrixE
FN:709,_ZNK4mfem18NodalFiniteElement17GetTransferMatrixERKNS_13FiniteElementERNS_21ElementTransformationERNS_11DenseMatrixE
FN:2064,_ZNK4mfem24NodalTensorFiniteElement12GetDofToQuadERKNS_15IntegrationRuleENS_9DofToQuad4ModeE
FNDA:0,_ZNK4mfem18NodalFiniteElement17GetTransferMatrixERKNS_13FiniteElementERNS_21ElementTransformationERNS_11DenseMatrixE
FNDA:0,_ZNK4mfem18NodalFiniteElement21GetLocalInterpolationERNS_21ElementTransformationERNS_11DenseMatrixE
FNDA:0,_ZNK4mfem24NodalTensorFiniteElement12GetDofToQuadERKNS_15IntegrationRuleENS_9DofToQuad4ModeE
FNF:3
FNH:0
DA:315,0
DA:332,0
DA:624,0
DA:625,0
DA:702,0
DA:704,0
DA:709,0
DA:712,0
DA:2064,0
DA:2067,0
DA:2068,0
DA:2069,0
LF:12
LH:0
end_of_record
TN:
SF:/root/mfem/mfem/fem/fe_coll.hpp
FN:61,_ZNK4mfem23FiniteElementCollection4NameEv
FN:67,_ZNK4mfem23FiniteElementCollection29TraceFiniteElementForGeometryENS_8Geometry4TypeE
FN:173,_ZNK4mfem15H1_FECollection24FiniteElementForGeometryENS_8Geometry4TypeE
FN:176,_ZNK4mfem15H1_FECollection14DofForGeometryENS_8Geometry4TypeE
FN:180,_ZNK4mfem15H1_FECollection4NameEv
FN:181,_ZNK4mfem15H1_FECollection11GetContTypeEv
FN:238,_ZNK4mfem15L2_FECollection24FiniteElementForGeometryENS_8Geometry4TypeE
FN:253,_ZNK4mfem15L2_FECollection4NameEv
FN:296,_ZNK4mfem15RT_FECollection24FiniteElementForGeometryENS_8Geometry4TypeE
FN:303,_ZNK4mfem15RT_FECollection4NameEv
FN:346,_ZNK4mfem15ND_FECollection24FiniteElementForGeometryENS_8Geometry4TypeE
FN:353,_ZNK4mfem15ND_FECollection4NameEv
FN:417,_ZNK4mfem17NURBSFECollection4NameEv
FN:449,_ZNK4mfem18LinearFECollection4NameEv
FN:477,_ZNK4mfem21QuadraticFECollection4NameEv
FN:500,_ZNK4mfem24QuadraticPosFECollection4NameEv
FN:529,_ZNK4mfem17CubicFECollection4NameEv
FN:552,_ZNK4mfem27CrouzeixRaviartFECollection4NameEv
FN:577,_ZNK4mfem27LinearNonConf3DFECollection4NameEv
FN:602,_ZNK4mfem18RT0_2DFECollection4NameEv
FN:626,_ZNK4mfem18RT1_2DFECollection4NameEv
FN:650,_ZNK4mfem18RT2_2DFECollection4NameEv
FN:674,_ZNK4mfem19Const2DFECollection4NameEv
FN:699,_ZNK4mfem27LinearDiscont2DFECollection4NameEv
FN:723,_ZNK4mfem32GaussLinearDiscont2DFECollection4NameEv
FN:740,_ZNK4mfem20P1OnQuadFECollection4NameEv
FN:764,_ZNK4mfem30QuadraticDiscont2DFECollection4NameEv
FN:782,_ZNK4mfem33QuadraticPosDiscont2DFECollection4NameEv
FN:805,_ZNK4mfem35GaussQuadraticDiscont2DFECollection4NameEv
FN:829,_ZNK4mfem26CubicDiscont2DFECollection4NameEv
FN:854,_ZNK4mfem19Const3DFECollection4NameEv
FN:878,_ZNK4mfem27LinearDiscont3DFECollection4NameEv
FN:902,_ZNK4mfem30QuadraticDiscont3DFECollection4NameEv
FN:928,_ZNK4mfem25RefinedLinearFECollection4NameEv
FN:952,_ZNK4mfem18ND1_3DFECollection4NameEv
FN:976,_ZNK4mfem18RT0_3DFECollection4NameEv
FN:999,_ZNK4mfem18RT1_3DFECollection4NameEv
FN:1014,_ZNK4mfem18Local_FECollection24FiniteElementForGeometryENS_8Geometry4TypeE
FN:1017,_ZNK4mfem18Local_FECollection14DofForGeometryENS_8Geometry4TypeE
FN:1019,_ZNK4mfem18Local_FECollection22DofOrderForOrientationENS_8Geometry4TypeEi
FN:1022,_ZNK4mfem18Local_FECollection4NameEv
FN:1024,_ZN4mfem18Local_FECollectionD0Ev
FN:1024,_ZN4mfem18Local_FECollectionD2Ev
FN:1025,_ZNK4mfem18Local_FECollection11GetContTypeEv
FNDA:0,_ZN4mfem18Local_FECollectionD0Ev
FNDA:0,_ZN4mfem18Local_FECollectionD2Ev
FNDA:0,_ZNK4mfem15H1_FECollection11GetContTypeEv
FNDA:0,_ZNK4mfem15H1_FECollection14DofForGeometryENS_8Geometry4TypeE
FNDA:0,_ZNK4mfem15H1_FECollection24FiniteElementForGeometryENS_8Geometry4TypeE
FNDA:0,_ZNK4mfem15H1_FECollection4NameEv
FNDA:0,_ZNK4mfem15L2_FECollection24FiniteElementForGeometryENS_8Geometry4TypeE
FNDA:0,_ZNK4mfem15L2_FECollection4NameEv
FNDA:0,_ZNK4mfem15ND_FECollection24FiniteElementForGeometryENS_8Geometry4TypeE
FNDA:0,_ZNK4mfem15ND_FECollection4NameEv
FNDA:0,_ZNK4mfem15RT_FECollection24FiniteElementForGeometryENS_8Geometry4TypeE
FNDA:0,_ZNK4mfem15RT_FECollection4NameEv
FNDA:0,_ZNK4mfem17CubicFECollection4NameEv
FNDA:0,_ZNK4mfem17NURBSFECollection4NameEv
FNDA:0,_ZNK4mfem18LinearFECollection4NameEv
FNDA:0,_ZNK4mfem18Local_FECollection11GetContTypeEv
FNDA:0,_ZNK4mfem18Local_FECollection14DofForGeometryENS_8Geometry4TypeE
FNDA:0,_ZNK4mfem18Local_FECollection22DofOrderForOrientationENS_8Geometry4TypeEi
FNDA:0,_ZNK4mfem18Local_FECollection24FiniteElementForGeometryENS_8Geometry4TypeE
FNDA:0,_ZNK4mfem18Local_FECollection4NameEv
FNDA:0,_ZNK4mfem18ND1_3DFECollection4NameEv
FNDA:0,_ZNK4mfem18RT0_2DFECollection4NameEv
FNDA:0,_ZNK4mfem18RT0_3DFECollection4NameEv
FNDA:0,_ZNK4mfem18RT1_2DFECollection4NameEv
FNDA:0,_ZNK4mfem18RT1_3DFECollection4NameEv
FNDA:0,_ZNK4mfem18RT2_2DFECollection4NameEv
FNDA:0,_ZNK4mfem19Const2DFECollection4NameEv
FNDA:0,_ZNK4mfem19Const3DFECollection4NameEv
FNDA:0,_ZNK4mfem20P1OnQuadFECollection4NameEv
FNDA:0,_ZNK4mfem21QuadraticFECollection4NameEv
FNDA:0,_ZNK4mfem23FiniteElementCollection29TraceFiniteElementForGeometryENS_8Geometry4TypeE
FNDA:0,_ZNK4mfem23FiniteElementCollection4NameEv
FNDA:0,_ZNK4mfem24QuadraticPosFECollection4NameEv
FNDA:0,_ZNK4mfem25RefinedLinearFECollection4NameEv
FNDA:0,_ZNK4mfem26CubicDiscont2DFECollection4NameEv
FNDA:0,_ZNK4mfem27CrouzeixRaviartFECollection4NameEv
FNDA:0,_ZNK4mfem27LinearDiscont2DFECollection4NameEv
FNDA:0,_ZNK4mfem27LinearDiscont3DFECollection4NameEv
FNDA:0,_ZNK4mfem27LinearNonConf3DFECollection4NameEv
FNDA:0,_ZNK4mfem30QuadraticDiscont2DFECollection4NameEv
FNDA:0,_ZNK4mfem30QuadraticDiscont3DFECollection4NameEv
FNDA:0,_ZNK4mfem32GaussLinearDiscont2DFECollection4NameEv
FNDA:0,_ZNK4mfem33QuadraticPosDiscont2DFECollection4NameEv
FNDA:0,_ZNK4mfem35GaussQuadraticDiscont2DFECollection4NameEv
FNF:44
FNH:0
DA:61,0
DA:67,0
DA:70,0
DA:173,0
DA:175,0
DA:176,0
DA:177,0
DA:180,0
DA:181,0
DA:238,0
DA:241,0
DA:253,0
DA:296,0
DA:298,0
DA:303,0
DA:346,0
DA:348,0
DA:353,0
DA:417,0
DA:449,0
DA:477,0
DA:500,0
DA:529,0
DA:552,0
DA:577,0
DA:602,0
DA:626,0
DA:650,0
DA:674,0
DA:699,0
DA:723,0
DA:740,0
DA:764,0
DA:782,0
DA:805,0
DA:829,0
DA:854,0
DA:878,0
DA:902,0
DA:928,0
DA:952,0
DA:976,0
DA:999,0
DA:1014,0
DA:1016,0
DA:1017,0
DA:1018,0
DA:1019,0
DA:1021,0
DA:1022,0
DA:1024,0
DA:1025,0
LF:52
LH:0
end_of_record
TN:
SF:/root/mfem/mfem/fem/fespace.hpp
FN:299,_ZN4mfem18FiniteElementSpaceC2EPNS_4MeshEPKNS_23FiniteElementCollectionEii
FN:949,_ZN4mfem24L2ProjectionGridTransfer12L2ProjectionD0Ev
FN:949,_ZN4mfem24L2ProjectionGridTransfer12L2ProjectionD2Ev
FN:965,_ZN4mfem24L2ProjectionGridTransfer14L2ProlongationD0Ev
FN:965,_ZN4mfem24L2ProjectionGridTransfer14L2ProlongationD2Ev
FN:983,_ZN4mfem15UsesTensorBasisERKNS_18FiniteElementSpaceE
FNDA:0,_ZN4mfem15UsesTensorBasisERKNS_18FiniteElementSpaceE
FNDA:0,_ZN4mfem24L2ProjectionGridTransfer12L2ProjectionD0Ev
FNDA:0,_ZN4mfem24L2ProjectionGridTransfer12L2ProjectionD2Ev
FNDA:0,_ZN4mfem24L2ProjectionGridTransfer14L2ProlongationD0Ev
FNDA:0,_ZN4mfem24L2ProjectionGridTransfer14L2ProlongationD2Ev
FNDA:1,_ZN4mfem18FiniteElementSpaceC2EPNS_4MeshEPKNS_23FiniteElementCollectionEii
FNF:6
FNH:1
DA:299,1
DA:302,1
DA:400,2
DA:409,1
DA:707,1
DA:949,0
DA:965,0
DA:983,0
DA:985,0
LF:9
LH:5
end_of_record
TN:
SF:/root/mfem/mfem/fem/gridfunc.hpp
FN:82,_ZN4mfem12GridFunctionC2EPNS_18FiniteElementSpaceE
FN:669,_ZN4mfem12GridFunctionD0Ev
FN:669,_ZN4mfem12GridFunctionD2Ev
FNDA:0,_ZN4mfem12GridFunctionD0Ev
FNDA:1,_ZN4mfem12GridFunctionC2EPNS_18FiniteElementSpaceE
FNDA:1,_ZN4mfem12GridFunctionD2Ev
FNF:3
FNH:2
DA:82,1
DA:83,1
DA:117,0
DA:669,1
LF:4
LH:3
end_of_record
TN:
SF:/root/mfem/mfem/fem/linearform.hpp
FN:66,_ZN4mfem10LinearFormC2EPNS_18FiniteElementSpaceE
FNDA:1,_ZN4mfem10LinearFormC2EPNS_18FiniteElementSpaceE
FNF:1
FNH:1
DA:66,1
DA:67,1
LF:2
LH:2
end_of_record
TN:
SF:/root/mfem/mfem/fem/lininteg.hpp
FN:39,_ZN4mfem20LinearFormIntegrator10SetIntRuleEPKNS_15IntegrationRuleE
FN:100,_ZN4mfem18DomainLFIntegratorC2ERNS_11CoefficientEii
FNDA:0,_ZN4mfem20LinearFormIntegrator10SetIntRuleEPKNS_15IntegrationRuleE
FNDA:1,_ZN4mfem18DomainLFIntegratorC2ERNS_11CoefficientEii
FNF:2
FNH:1
DA:27,1
DA:39,0
DA:56,1
DA:57,1
DA:58,1
DA:100,1
DA:103,1
LF:7
LH:6
end_of_record
TN:
SF:/root/mfem/mfem/fem/nonlininteg.hpp
FNF:0
FNH:0
DA:32,1
LF:1
LH:1
end_of_record
TN:
SF:/root/mfem/mfem/general/array.hpp
FN:635,_ZN4mfem5ArrayINS_13OptionsParser6OptionEE8GrowSizeEi
FN:726,_ZN4mfem5ArrayINS_13OptionsParser6OptionEE6AppendERKS2_
FNDA:5,_ZN4mfem5ArrayINS_13OptionsParser6OptionEE8GrowSizeEi
FNDA:9,_ZN4mfem5ArrayINS_13OptionsParser6OptionEE6AppendERKS2_
FNF:2
FNH:2
DA:58,3
DA:64,1
DA:65,1
DA:82,5
DA:124,1
DA:635,5
DA:637,8
DA:639,5
DA:641,5
DA:642,5
DA:643,5
DA:657,9
DA:659,5
DA:661,9
DA:726,9
DA:728,9
DA:729,9
DA:730,9
DA:868,2
DA:870,1
LF:20
LH:20
end_of_record
TN:
SF:/root/mfem/mfem/general/device.hpp
FNF:0
FNH:0
DA:180,1
DA:187,1
DA:188,1
LF:3
LH:3
end_of_record
TN:
SF:/root/mfem/mfem/general/mem_alloc.hpp
FN:93,_ZN4mfem5StackIPNS_11TetrahedronELi1024EE5ClearEv
FN:190,_ZN4mfem8MemAllocINS_11TetrahedronELi1024EE5ClearEv
FNDA:2,_ZN4mfem8MemAllocINS_11TetrahedronELi1024EE5ClearEv
FNDA:3,_ZN4mfem5StackIPNS_11TetrahedronELi1024EE5ClearEv
FNF:2
FNH:2
DA:52,1
DA:93,3
DA:96,3
DA:98,0
DA:99,0
DA:101,3
DA:103,0
DA:104,0
DA:106,3
DA:107,3
DA:108,3
DA:141,0
DA:162,1
DA:190,2
DA:193,2
DA:195,0
DA:196,0
DA:197,0
DA:199,2
DA:200,2
DA:201,2
LF:21
LH:13
end_of_record
TN:
SF:/root/mfem/mfem/general/mem_manager.hpp
FN:681,_ZN4mfem6MemoryIdE3NewEi
FN:681,_ZN4mfem6MemoryIiE3NewEi
FN:691,_ZN4mfem6MemoryINS_13OptionsParser6OptionEE3NewEiNS_10MemoryTypeE
FN:774,_ZN4mfem6MemoryINS_13OptionsParser6OptionEE6DeleteEv
FN:774,_ZN4mfem6MemoryINS_4Mesh10NCFaceInfoEE6DeleteEv
FN:774,_ZN4mfem6MemoryINS_4Mesh8FaceInfoEE6DeleteEv
FN:774,_ZN4mfem6MemoryINS_6TripleIiiiEEE6DeleteEv
FN:774,_ZN4mfem6MemoryINS_6VertexEE6DeleteEv
FN:774,_ZN4mfem6MemoryINS_9EmbeddingEE6DeleteEv
FN:774,_ZN4mfem6MemoryIPNS_16GeometricFactorsEE6DeleteEv
FN:774,_ZN4mfem6MemoryIPNS_20FaceGeometricFactorsEE6DeleteEv
FN:774,_ZN4mfem6MemoryIPNS_22QuadratureInterpolatorEE6DeleteEv
FN:774,_ZN4mfem6MemoryIPNS_26FaceQuadratureInterpolatorEE6DeleteEv
FN:774,_ZN4mfem6MemoryIPNS_7ElementEE6DeleteEv
FN:774,_ZN4mfem6MemoryIdE6DeleteEv
FN:774,_ZN4mfem6MemoryIiE6DeleteEv
FN:908,_ZN4mfem6MemoryINS_13OptionsParser6OptionEE8CopyFromERKS3_i
FNDA:0,_ZN4mfem6MemoryIPNS_22QuadratureInterpolatorEE6DeleteEv
FNDA:0,_ZN4mfem6MemoryIPNS_26FaceQuadratureInterpolatorEE6DeleteEv
FNDA:1,_ZN4mfem6MemoryINS_4Mesh10NCFaceInfoEE6DeleteEv
FNDA:1,_ZN4mfem6MemoryINS_4Mesh8FaceInfoEE6DeleteEv
FNDA:1,_ZN4mfem6MemoryINS_6TripleIiiiEEE6DeleteEv
FNDA:1,_ZN4mfem6MemoryINS_6VertexEE6DeleteEv
FNDA:1,_ZN4mfem6MemoryINS_9EmbeddingEE6DeleteEv
FNDA:1,_ZN4mfem6MemoryIPNS_16GeometricFactorsEE6DeleteEv
FNDA:1,_ZN4mfem6MemoryIPNS_20FaceGeometricFactorsEE6DeleteEv
FNDA:1,_ZN4mfem6MemoryIiE3NewEi
FNDA:2,_ZN4mfem6MemoryIdE3NewEi
FNDA:3,_ZN4mfem6MemoryIPNS_7ElementEE6DeleteEv
FNDA:5,_ZN4mfem6MemoryINS_13OptionsParser6OptionEE3NewEiNS_10MemoryTypeE
FNDA:5,_ZN4mfem6MemoryINS_13OptionsParser6OptionEE8CopyFromERKS3_i
FNDA:6,_ZN4mfem6MemoryINS_13OptionsParser6OptionEE6DeleteEv
FNDA:197,_ZN4mfem6MemoryIdE6DeleteEv
FNDA:341018,_ZN4mfem6MemoryIiE6DeleteEv
FNF:17
FNH:15
DA:155,3
DA:178,5
DA:231,5
DA:235,5
DA:238,14
DA:468,8
DA:665,9
DA:666,9
DA:667,9
DA:668,6
DA:669,0
DA:681,3
DA:683,3
DA:684,3
DA:685,3
DA:686,3
DA:687,0
DA:688,3
DA:691,5
DA:693,5
DA:694,5
DA:696,5
DA:697,5
DA:698,5
DA:700,5
DA:701,5
DA:774,341231
DA:776,341231
DA:777,341231
DA:780,341231
DA:781,0
DA:783,341231
DA:785,341231
DA:792,1
DA:903,5
DA:904,0
DA:908,5
DA:910,5
DA:912,5
DA:916,4
DA:922,0
DA:924,5
LF:42
LH:37
end_of_record
TN:
SF:/root/mfem/mfem/general/optparser.hpp
FN:82,_ZN4mfem13OptionsParser9AddOptionEPbPKcS3_S3_S3_S3_b
FNDA:3,_ZN4mfem13OptionsParser9AddOptionEPbPKcS3_S3_S3_S3_b
FNF:1
FNH:1
DA:31,1
DA:50,9
DA:51,9
DA:76,1
DA:82,3
DA:87,3
DA:89,3
DA:91,3
DA:97,1
DA:114,2
DA:145,1
LF:11
LH:11
end_of_record
TN:
SF:/root/mfem/mfem/general/socketstream.hpp
FN:255,_ZN4mfem12socketstreamC1EPKcib
FNDA:1,_ZN4mfem12socketstreamC1EPKcib
FNF:1
FNH:1
DA:255,1
DA:256,1
LF:2
LH:2
end_of_record
TN:
SF:/root/mfem/mfem/linalg/densemat.hpp
FNF:0
FNH:0
DA:862,0
LF:1
LH:0
end_of_record
TN:
SF:/root/mfem/mfem/linalg/handle.hpp
FNF:0
FNH:0
DA:56,2
DA:72,1
DA:85,1
DA:88,1
LF:4
LH:4
end_of_record
TN:
SF:/root/mfem/mfem/linalg/matrix.hpp
FNF:0
FNH:0
DA:69,1
LF:1
LH:1
end_of_record
TN:
SF:/root/mfem/mfem/linalg/operator.hpp
FN:450,_ZN4mfem21TimeDependentOperatorD0Ev
FN:450,_ZN4mfem21TimeDependentOperatorD2Ev
FN:629,_ZN4mfem32SecondOrderTimeDependentOperatorD0Ev
FN:629,_ZN4mfem32SecondOrderTimeDependentOperatorD2Ev
FN:851,_ZN4mfem19ConstrainedOperatorD0Ev
FN:851,_ZN4mfem19ConstrainedOperatorD2Ev
FN:904,_ZN4mfem30RectangularConstrainedOperatorD0Ev
FN:904,_ZN4mfem30RectangularConstrainedOperatorD2Ev
FNDA:0,_ZN4mfem19ConstrainedOperatorD0Ev
FNDA:0,_ZN4mfem19ConstrainedOperatorD2Ev
FNDA:0,_ZN4mfem21TimeDependentOperatorD0Ev
FNDA:0,_ZN4mfem21TimeDependentOperatorD2Ev
FNDA:0,_ZN4mfem30RectangularConstrainedOperatorD0Ev
FNDA:0,_ZN4mfem30RectangularConstrainedOperatorD2Ev
FNDA:0,_ZN4mfem32SecondOrderTimeDependentOperatorD0Ev
FNDA:0,_ZN4mfem32SecondOrderTimeDependentOperatorD2Ev
FNF:8
FNH:0
DA:62,1
DA:65,1
DA:450,0
DA:629,0
DA:649,1
DA:851,0
DA:904,0
LF:7
LH:3
end_of_record
TN:
SF:/root/mfem/mfem/linalg/solvers.hpp
FN:146,_ZN4mfem22OperatorJacobiSmootherD0Ev
FN:146,_ZN4mfem22OperatorJacobiSmootherD2Ev
FN:198,_ZN4mfem25OperatorChebyshevSmootherD0Ev
FN:198,_ZN4mfem25OperatorChebyshevSmootherD2Ev
FNDA:0,_ZN4mfem22OperatorJacobiSmootherD0Ev
FNDA:0,_ZN4mfem22OperatorJacobiSmootherD2Ev
FNDA:0,_ZN4mfem25OperatorChebyshevSmootherD0Ev
FNDA:0,_ZN4mfem25OperatorChebyshevSmootherD2Ev
FNF:4
FNH:0
DA:146,0
DA:198,0
LF:2
LH:0
end_of_record
TN:
SF:/root/mfem/mfem/linalg/sparsemat.hpp
FN:614,_ZN4mfem12SparseMatrixD0Ev
FN:614,_ZN4mfem12SparseMatrixD2Ev
FNDA:0,_ZN4mfem12SparseMatrixD0Ev
FNDA:0,_ZN4mfem12SparseMatrixD2Ev
FNF:2
FNH:0
DA:614,0
DA:615,0
DA:616,0
DA:625,0
LF:4
LH:0
end_of_record
TN:
SF:/root/mfem/mfem/linalg/sparsesmoothers.hpp
FNF:0
FNH:0
DA:30,1
DA:36,1
DA:48,1
LF:3
LH:3
end_of_record
TN:
SF:/root/mfem/mfem/linalg/vector.hpp
FN:576,_ZN4mfem6VectorD0Ev
FN:576,_ZN4mfem6VectorD2Ev
FNDA:0,_ZN4mfem6VectorD0Ev
FNDA:0,_ZN4mfem6VectorD2Ev
FNF:2
FNH:0
DA:70,3
DA:454,2
DA:456,2
DA:458,2
DA:459,2
DA:463,0
DA:576,9
DA:578,10
DA:579,0
LF:9
LH:7
end_of_record
TN:
SF:/root/mfem/mfem/mesh/mesh.hpp
FN:1238,_ZNK4mfem4Mesh5PrintERSo
FN:1381,_ZN4mfem4MeshD0Ev
FN:1381,_ZN4mfem4MeshD2Ev
FNDA:0,_ZN4mfem4MeshD0Ev
FNDA:1,_ZN4mfem4MeshD2Ev
FNDA:1,_ZNK4mfem4Mesh5PrintERSo
FNF:3
FNH:2
DA:741,1
DA:792,1
DA:1109,0
DA:1238,2
DA:1381,3
LF:5
LH:4
end_of_record
TN:
SF:/root/mfem/mfem/mesh/ncmesh.hpp
FNF:0
FNH:0
LF:0
LH:0
end_of_record
TN:
SF:/root/mfem/mfem/mesh/tetrahedron.hpp
FN:116,_ZN4mfem11TetrahedronD0Ev
FN:116,_ZN4mfem11TetrahedronD2Ev
FNDA:0,_ZN4mfem11TetrahedronD0Ev
FNDA:0,_ZN4mfem11TetrahedronD2Ev
FNF:2
FNH:0
DA:116,0
LF:1
LH:0
end_of_record
TN:
SF:/usr/include/c++/10/bits/basic_ios.h
FNF:0
FNH:0
DA:282,0
DA:460,1
DA:462,1
LF:3
LH:2
end_of_record
TN:
SF:/usr/include/c++/10/bits/basic_string.h
FNF:0
FNH:0
DA:187,0
DA:191,1
DA:195,4
DA:219,0
DA:225,1
DA:239,2
DA:245,0
DA:356,1
DA:671,2
LF:9
LH:6
end_of_record
TN:
SF:/usr/include/c++/10/bits/basic_string.tcc
FN:206,_ZNSt7__cxx1112basic_stringIcSt11char_traitsIcESaIcEE12_M_constructIPKcEEvT_S8_St20forward_iterator_tag
FNDA:1,_ZNSt7__cxx1112basic_stringIcSt11char_traitsIcESaIcEE12_M_constructIPKcEEvT_S8_St20forward_iterator_tag
FNF:1
FNH:1
DA:206,1
DA:211,1
DA:212,0
DA:215,1
DA:217,1
DA:219,0
DA:220,0
DA:232,1
DA:233,1
LF:9
LH:6
end_of_record
TN:
SF:/usr/include/c++/10/bits/char_traits.h
FNF:0
FNH:0
DA:357,0
DA:431,1
DA:437,0
LF:3
LH:1
end_of_record
TN:
SF:/usr/include/c++/10/bits/hashtable.h
FN:1438,_ZNSt10_HashtableIKSt5tupleIJbN4mfem18ElementDofOrderingENS1_8FaceTypeENS1_12L2FaceValuesEEESt4pairIS6_PNS1_8OperatorEESaISA_ENSt8__detail10_Select1stESt8equal_toIS6_ENS1_18FiniteElementSpace8key_hashENSC_18_Mod_range_hashingENSC_20_Default_ranged_hashENSC_20_Prime_rehash_policyENSC_17_Hashtable_traitsILb1ELb0ELb1EEEED2Ev
FN:2081,_ZNSt10_HashtableIKSt5tupleIJbN4mfem18ElementDofOrderingENS1_8FaceTypeENS1_12L2FaceValuesEEESt4pairIS6_PNS1_8OperatorEESaISA_ENSt8__detail10_Select1stESt8equal_toIS6_ENS1_18FiniteElementSpace8key_hashENSC_18_Mod_range_hashingENSC_20_Default_ranged_hashENSC_20_Prime_rehash_policyENSC_17_Hashtable_traitsILb1ELb0ELb1EEEE5clearEv
FNDA:1,_ZNSt10_HashtableIKSt5tupleIJbN4mfem18ElementDofOrderingENS1_8FaceTypeENS1_12L2FaceValuesEEESt4pairIS6_PNS1_8OperatorEESaISA_ENSt8__detail10_Select1stESt8equal_toIS6_ENS1_18FiniteElementSpace8key_hashENSC_18_Mod_range_hashingENSC_20_Default_ranged_hashENSC_20_Prime_rehash_policyENSC_17_Hashtable_traitsILb1ELb0ELb1EEEE5clearEv
FNDA:1,_ZNSt10_HashtableIKSt5tupleIJbN4mfem18ElementDofOrderingENS1_8FaceTypeENS1_12L2FaceValuesEEESt4pairIS6_PNS1_8OperatorEESaISA_ENSt8__detail10_Select1stESt8equal_toIS6_ENS1_18FiniteElementSpace8key_hashENSC_18_Mod_range_hashingENSC_20_Default_ranged_hashENSC_20_Prime_rehash_policyENSC_17_Hashtable_traitsILb1ELb0ELb1EEEED2Ev
FNF:2
FNH:2
DA:394,1
DA:418,1
DA:426,1
DA:435,1
DA:490,1
DA:1438,1
DA:1442,1
DA:1444,1
DA:2081,1
DA:2086,1
DA:2087,1
DA:2088,1
DA:2089,1
LF:13
LH:13
end_of_record
TN:
SF:/usr/include/c++/10/bits/hashtable_policy.h
FNF:0
FNH:0
DA:218,1
DA:270,0
DA:450,1
DA:2056,0
DA:2064,0
DA:2072,1
DA:2101,0
LF:7
LH:3
end_of_record
TN:
SF:/usr/include/c++/10/bits/ios_base.h
FNF:0
FNH:0
DA:731,3
LF:1
LH:1
end_of_record
TN:
SF:/usr/include/c++/10/bits/locale_facets.h
FN:872,_ZNKSt5ctypeIcE5widenEc
FN:1084,_ZNKSt5ctypeIcE8do_widenEc
FNDA:0,_ZNKSt5ctypeIcE8do_widenEc
FNDA:2,_ZNKSt5ctypeIcE5widenEc
FNF:2
FNH:1
DA:872,2
DA:874,2
DA:875,2
DA:876,0
DA:877,0
DA:1084,0
DA:1085,0
LF:7
LH:3
end_of_record
TN:
SF:/usr/include/c++/10/bits/stl_algobase.h
FNF:0
FNH:0
DA:259,5
DA:260,3
LF:2
LH:2
end_of_record
TN:
SF:/usr/include/c++/10/bits/stl_iterator_base_funcs.h
FNF:0
FNH:0
DA:104,1
LF:1
LH:1
end_of_record
TN:
SF:/usr/include/c++/10/bits/unordered_map.h
FNF:0
FNH:0
DA:102,0
LF:1
LH:0
end_of_record
TN:
SF:/usr/include/c++/10/ext/new_allocator.h
FNF:0
FNH:0
DA:139,0
LF:1
LH:0
end_of_record
TN:
SF:/usr/include/c++/10/iostream
FNF:0
FNH:0
LF:0
LH:0
end_of_record
TN:
SF:/usr/include/c++/10/istream
FNF:0
FNH:0
DA:104,0
DA:856,0
LF:2
LH:0
end_of_record
TN:
SF:/usr/include/c++/10/ostream
FNF:0
FNH:0
DA:93,0
DA:113,3
DA:611,3
LF:3
LH:2
end_of_record
TN:
SF:/usr/include/x86_64-linux-gnu/bits/string_fortified.h
FNF:0
FNH:0
DA:29,4
DA:30,4
LF:2
LH:2
end_of_record
