TN:
SF:/root/mfem/mfem/examples/test_full_periodic.cpp
FN:69,_ZN23DomainLFGrad2IntegratorC2ERN4mfem11CoefficientES2_i
FN:74,_ZN23DomainLFGrad2Integrator22AssembleRHSElementVectERKN4mfem13FiniteElementERNS0_21ElementTransformationERNS0_6VectorE
FN:154,main
FN:318,_Z10sol_exact1RKN4mfem6VectorERS0_
FN:332,_Z10sol_exact2RKN4mfem6VectorERS0_
FN:346,_Z10sol_exact3RKN4mfem6VectorERS0_
FN:360,_Z10sol_exact4RKN4mfem6VectorERS0_
FN:374,_Z10sol_exact5RKN4mfem6VectorERS0_
FN:379,_Z10sol_exact6RKN4mfem6VectorERS0_
FNDA:0,_Z10sol_exact2RKN4mfem6VectorERS0_
FNDA:0,_Z10sol_exact3RKN4mfem6VectorERS0_
FNDA:0,_Z10sol_exact4RKN4mfem6VectorERS0_
FNDA:0,_Z10sol_exact5RKN4mfem6VectorERS0_
FNDA:0,_Z10sol_exact6RKN4mfem6VectorERS0_
FNDA:1,_ZN23DomainLFGrad2IntegratorC2ERN4mfem11CoefficientES2_i
FNDA:1,main
FNDA:16,_ZN23DomainLFGrad2Integrator22AssembleRHSElementVectERKN4mfem13FiniteElementERNS0_21ElementTransformationERNS0_6VectorE
FNDA:144,_Z10sol_exact1RKN4mfem6VectorERS0_
FNF:9
FNH:4
DA:69,1
DA:70,1
DA:71,1
DA:72,1
DA:74,16
DA:78,16
DA:80,16
DA:81,16
DA:82,16
DA:83,16
DA:84,16
DA:86,16
DA:87,16
DA:89,16
DA:90,16
DA:93,80
DA:97,64
DA:99,64
DA:100,64
DA:101,64
DA:102,64
DA:103,64
DA:104,64
DA:105,64
DA:106,64
DA:107,0
DA:108,0
DA:109,0
DA:110,0
DA:111,0
DA:112,0
DA:113,0
DA:114,0
DA:115,0
DA:116,0
DA:117,0
DA:118,0
DA:119,0
DA:120,0
DA:121,0
DA:122,0
DA:123,0
DA:124,0
DA:125,0
DA:126,0
DA:127,0
DA:128,0
DA:129,0
DA:130,0
DA:131,0
DA:133,128
DA:134,192
DA:136,640
DA:138,512
DA:142,16
DA:154,1
DA:157,1
DA:159,1
DA:160,1
DA:171,1
DA:172,1
DA:174,0
DA:177,1
DA:181,1
DA:184,1
DA:186,0
DA:188,1
DA:190,0
DA:200,1
DA:201,1
DA:203,1
DA:204,3
DA:210,1
DA:211,1
DA:216,1
DA:217,1
DA:218,1
DA:219,1
DA:220,1
DA:221,1
DA:222,1
DA:223,1
DA:224,1
DA:225,1
DA:233,3
DA:235,2
DA:236,2
DA:237,2
DA:240,1
DA:241,1
DA:242,1
DA:245,1
DA:246,1
DA:247,1
DA:255,1
DA:256,1
DA:260,1
DA:263,1
DA:267,1
DA:268,2
DA:271,1
DA:275,1
DA:279,0
DA:281,0
DA:282,0
DA:284,0
DA:285,0
DA:287,0
DA:288,0
DA:290,0
DA:291,0
DA:293,0
DA:296,0
DA:299,0
DA:300,1
DA:301,1
DA:302,1
DA:305,0
DA:310,1
DA:318,144
DA:321,144
DA:322,144
DA:324,72
DA:328,72
DA:330,144
DA:332,0
DA:335,0
DA:336,0
DA:338,0
DA:342,0
DA:344,0
DA:346,0
DA:349,0
DA:350,0
DA:352,0
DA:356,0
DA:358,0
DA:360,0
DA:363,0
DA:364,0
DA:366,0
DA:370,0
DA:372,0
DA:374,0
DA:376,0
DA:377,0
DA:379,0
DA:382,0
DA:383,0
DA:385,0
DA:389,0
DA:391,0
LF:152
LH:84
end_of_record
TN:
SF:/root/mfem/mfem/fem/bilinearform.hpp
FN:430,_ZN4mfem12BilinearForm16FormLinearSystemINS_12SparseMatrixEEEvRKNS_5ArrayIiEERNS_6VectorES8_RT_S8_S8_i
FNDA:1,_ZN4mfem12BilinearForm16FormLinearSystemINS_12SparseMatrixEEEvRKNS_5ArrayIiEERNS_6VectorES8_RT_S8_S8_i
FNF:1
FNH:1
DA:430,1
DA:435,1
DA:437,1
DA:438,1
DA:439,1
LF:5
LH:5
end_of_record
TN:
SF:/root/mfem/mfem/fem/bilininteg.hpp
FN:2752,_ZN4mfem20ElasticityIntegratorC2ERNS_11CoefficientES2_
FNDA:1,_ZN4mfem20ElasticityIntegratorC2ERNS_11CoefficientES2_
FNF:1
FNH:1
DA:2752,1
DA:2753,1
LF:2
LH:2
end_of_record
TN:
SF:/root/mfem/mfem/fem/coefficient.hpp
FN:87,_ZN4mfem19ConstantCoefficient4EvalERNS_21ElementTransformationERKNS_16IntegrationPointE
FN:108,_ZN4mfem18PWConstCoefficientC2ERNS_6VectorE
FN:316,_ZN4mfem16DeltaCoefficient4EvalERNS_21ElementTransformationERKNS_16IntegrationPointE
FN:337,_ZN4mfem21RestrictedCoefficient4EvalERNS_21ElementTransformationERKNS_16IntegrationPointE
FN:441,_ZN4mfem25VectorFunctionCoefficientD0Ev
FN:441,_ZN4mfem25VectorFunctionCoefficientD2Ev
FN:940,_ZN4mfem14SumCoefficient4EvalERNS_21ElementTransformationERKNS_16IntegrationPointE
FN:1082,_ZN4mfem18ProductCoefficient4EvalERNS_21ElementTransformationERKNS_16IntegrationPointE
FN:1132,_ZN4mfem16RatioCoefficient4EvalERNS_21ElementTransformationERKNS_16IntegrationPointE
FN:1165,_ZN4mfem16PowerCoefficient4EvalERNS_21ElementTransformationERKNS_16IntegrationPointE
FNDA:0,_ZN4mfem14SumCoefficient4EvalERNS_21ElementTransformationERKNS_16IntegrationPointE
FNDA:0,_ZN4mfem16DeltaCoefficient4EvalERNS_21ElementTransformationERKNS_16IntegrationPointE
FNDA:0,_ZN4mfem16PowerCoefficient4EvalERNS_21ElementTransformationERKNS_16IntegrationPointE
FNDA:0,_ZN4mfem16RatioCoefficient4EvalERNS_21ElementTransformationERKNS_16IntegrationPointE
FNDA:0,_ZN4mfem18ProductCoefficient4EvalERNS_21ElementTransformationERKNS_16IntegrationPointE
FNDA:0,_ZN4mfem19ConstantCoefficient4EvalERNS_21ElementTransformationERKNS_16IntegrationPointE
FNDA:0,_ZN4mfem21RestrictedCoefficient4EvalERNS_21ElementTransformationERKNS_16IntegrationPointE
FNDA:0,_ZN4mfem25VectorFunctionCoefficientD0Ev
FNDA:0,_ZN4mfem25VectorFunctionCoefficientD2Ev
FNDA:2,_ZN4mfem18PWConstCoefficientC2ERNS_6VectorE
FNF:10
FNH:1
DA:45,2
DA:48,0
DA:51,0
DA:70,0
DA:87,0
DA:89,0
DA:94,0
DA:108,2
DA:109,2
DA:316,0
DA:317,0
DA:337,0
DA:338,0
DA:350,1
DA:423,1
DA:441,0
DA:940,0
DA:943,0
DA:944,0
DA:1082,0
DA:1084,0
DA:1132,0
DA:1135,0
DA:1137,0
DA:1165,0
DA:1167,0
LF:26
LH:5
end_of_record
TN:
SF:/root/mfem/mfem/fem/datacollection.hpp
FN:39,_ZN4mfem14NamedFieldsMapINS_12GridFunctionEE8RegisterERKNSt7__cxx1112basic_stringIcSt11char_traitsIcESaIcEEEPS1_b
FNDA:1,_ZN4mfem14NamedFieldsMapINS_12GridFunctionEE8RegisterERKNSt7__cxx1112basic_stringIcSt11char_traitsIcESaIcEEEPS1_b
FNF:1
FNH:1
DA:39,1
DA:41,1
DA:42,1
DA:44,0
DA:46,1
DA:47,1
DA:244,1
DA:318,1
DA:320,1
DA:484,1
LF:10
LH:9
end_of_record
TN:
SF:/root/mfem/mfem/fem/eltrans.hpp
FN:429,_ZNK4mfem27IsoparametricTransformation11GetSpaceDimEv
FNDA:16,_ZNK4mfem27IsoparametricTransformation11GetSpaceDimEv
FNF:1
FNH:1
DA:86,64
DA:123,64
DA:429,16
LF:3
LH:3
end_of_record
TN:
SF:/root/mfem/mfem/fem/fe.hpp
FNF:0
FNH:0
DA:312,16
DA:315,16
DA:319,16
LF:3
LH:3
end_of_record
TN:
SF:/root/mfem/mfem/fem/fespace.hpp
FN:299,_ZN4mfem18FiniteElementSpaceC2EPNS_4MeshEPKNS_23FiniteElementCollectionEii
FN:415,_ZNK4mfem18FiniteElementSpace12GetTrueVSizeEv
FN:964,_ZN4mfem24L2ProjectionGridTransfer12L2ProjectionD0Ev
FN:964,_ZN4mfem24L2ProjectionGridTransfer12L2ProjectionD2Ev
FN:980,_ZN4mfem24L2ProjectionGridTransfer14L2ProlongationD0Ev
FN:980,_ZN4mfem24L2ProjectionGridTransfer14L2ProlongationD2Ev
FNDA:0,_ZN4mfem24L2ProjectionGridTransfer12L2ProjectionD0Ev
FNDA:0,_ZN4mfem24L2ProjectionGridTransfer12L2ProjectionD2Ev
FNDA:0,_ZN4mfem24L2ProjectionGridTransfer14L2ProlongationD0Ev
FNDA:0,_ZN4mfem24L2ProjectionGridTransfer14L2ProlongationD2Ev
FNDA:1,_ZN4mfem18FiniteElementSpaceC2EPNS_4MeshEPKNS_23FiniteElementCollectionEii
FNDA:1,_ZNK4mfem18FiniteElementSpace12GetTrueVSizeEv
FNF:6
FNH:2
DA:299,1
DA:302,1
DA:412,2
DA:415,2
DA:421,1
DA:719,1
DA:964,0
DA:980,0
LF:8
LH:6
end_of_record
TN:
SF:/root/mfem/mfem/fem/gridfunc.hpp
FN:85,_ZN4mfem12GridFunctionC2EPNS_18FiniteElementSpaceE
FN:691,_ZN4mfem12GridFunctionD0Ev
FN:691,_ZN4mfem12GridFunctionD2Ev
FNDA:0,_ZN4mfem12GridFunctionD0Ev
FNDA:0,_ZN4mfem12GridFunctionD2Ev
FNDA:1,_ZN4mfem12GridFunctionC2EPNS_18FiniteElementSpaceE
FNF:3
FNH:1
DA:85,1
DA:86,1
DA:691,0
LF:3
LH:2
end_of_record
TN:
SF:/root/mfem/mfem/fem/linearform.hpp
FN:66,_ZN4mfem10LinearFormC2EPNS_18FiniteElementSpaceE
FNDA:1,_ZN4mfem10LinearFormC2EPNS_18FiniteElementSpaceE
FNF:1
FNH:1
DA:66,1
DA:67,1
LF:2
LH:2
end_of_record
TN:
SF:/root/mfem/mfem/fem/lininteg.hpp
FN:39,_ZN4mfem20LinearFormIntegrator10SetIntRuleEPKNS_15IntegrationRuleE
FNDA:0,_ZN4mfem20LinearFormIntegrator10SetIntRuleEPKNS_15IntegrationRuleE
FNF:1
FNH:0
DA:27,1
DA:39,0
LF:2
LH:1
end_of_record
TN:
SF:/root/mfem/mfem/fem/nonlininteg.hpp
FNF:0
FNH:0
DA:32,1
LF:1
LH:1
end_of_record
TN:
SF:/root/mfem/mfem/general/array.hpp
FN:635,_ZN4mfem5ArrayINS_13OptionsParser6OptionEE8GrowSizeEi
FN:635,_ZN4mfem5ArrayIiE8GrowSizeEi
FN:726,_ZN4mfem5ArrayINS_13OptionsParser6OptionEE6AppendERKS2_
FNDA:3,_ZN4mfem5ArrayINS_13OptionsParser6OptionEE6AppendERKS2_
FNDA:3,_ZN4mfem5ArrayINS_13OptionsParser6OptionEE8GrowSizeEi
FNDA:155,_ZN4mfem5ArrayIiE8GrowSizeEi
FNF:3
FNH:3
DA:58,3
DA:82,0
DA:124,80
DA:635,158
DA:637,159
DA:639,158
DA:641,158
DA:642,158
DA:643,158
DA:657,4
DA:659,4
DA:661,1
DA:726,3
DA:728,3
DA:729,3
DA:730,3
LF:16
LH:15
end_of_record
TN:
SF:/root/mfem/mfem/general/mem_manager.hpp
FN:681,_ZN4mfem6MemoryIdE3NewEi
FN:691,_ZN4mfem6MemoryINS_13OptionsParser6OptionEE3NewEiNS_10MemoryTypeE
FN:691,_ZN4mfem6MemoryIdE3NewEiNS_10MemoryTypeE
FN:691,_ZN4mfem6MemoryIiE3NewEiNS_10MemoryTypeE
FN:774,_ZN4mfem6MemoryINS_13OptionsParser6OptionEE6DeleteEv
FN:774,_ZN4mfem6MemoryIPNS_22QuadratureInterpolatorEE6DeleteEv
FN:774,_ZN4mfem6MemoryIPNS_26FaceQuadratureInterpolatorEE6DeleteEv
FN:774,_ZN4mfem6MemoryIdE6DeleteEv
FN:774,_ZN4mfem6MemoryIiE6DeleteEv
FN:908,_ZN4mfem6MemoryINS_13OptionsParser6OptionEE8CopyFromERKS3_i
FN:908,_ZN4mfem6MemoryIiE8CopyFromERKS1_i
FNDA:0,_ZN4mfem6MemoryIPNS_22QuadratureInterpolatorEE6DeleteEv
FNDA:0,_ZN4mfem6MemoryIPNS_26FaceQuadratureInterpolatorEE6DeleteEv
FNDA:3,_ZN4mfem6MemoryINS_13OptionsParser6OptionEE3NewEiNS_10MemoryTypeE
FNDA:3,_ZN4mfem6MemoryINS_13OptionsParser6OptionEE6DeleteEv
FNDA:3,_ZN4mfem6MemoryINS_13OptionsParser6OptionEE8CopyFromERKS3_i
FNDA:5,_ZN4mfem6MemoryIdE3NewEiNS_10MemoryTypeE
FNDA:52,_ZN4mfem6MemoryIdE3NewEi
FNDA:119,_ZN4mfem6MemoryIdE6DeleteEv
FNDA:155,_ZN4mfem6MemoryIiE3NewEiNS_10MemoryTypeE
FNDA:155,_ZN4mfem6MemoryIiE8CopyFromERKS1_i
FNDA:654,_ZN4mfem6MemoryIiE6DeleteEv
FNF:11
FNH:9
DA:155,5
DA:178,158
DA:231,5
DA:235,163
DA:238,166
DA:468,215
DA:665,11
DA:666,11
DA:667,11
DA:668,9
DA:669,0
DA:681,52
DA:683,52
DA:684,52
DA:685,52
DA:686,52
DA:687,0
DA:688,52
DA:691,163
DA:693,163
DA:694,163
DA:696,163
DA:697,163
DA:698,163
DA:700,163
DA:701,163
DA:774,776
DA:776,776
DA:777,776
DA:780,776
DA:781,0
DA:783,776
DA:785,776
DA:792,660
DA:799,208
DA:809,576
DA:903,163
DA:904,0
DA:908,158
DA:910,158
DA:912,158
DA:916,138
DA:922,0
DA:924,158
LF:44
LH:39
end_of_record
TN:
SF:/root/mfem/mfem/general/optparser.hpp
FNF:0
FNH:0
DA:31,0
DA:50,3
DA:51,3
DA:74,1
DA:76,1
DA:97,1
DA:114,1
DA:145,1
LF:8
LH:7
end_of_record
TN:
SF:/root/mfem/mfem/linalg/densemat.hpp
FNF:0
FNH:0
DA:862,0
DA:893,512
LF:2
LH:1
end_of_record
TN:
SF:/root/mfem/mfem/linalg/handle.hpp
FNF:0
FNH:0
DA:56,2
DA:72,1
DA:100,1
LF:3
LH:3
end_of_record
TN:
SF:/root/mfem/mfem/linalg/matrix.hpp
FNF:0
FNH:0
DA:69,1
LF:1
LH:1
end_of_record
TN:
SF:/root/mfem/mfem/linalg/operator.hpp
FN:456,_ZN4mfem21TimeDependentOperatorD0Ev
FN:456,_ZN4mfem21TimeDependentOperatorD2Ev
FN:634,_ZN4mfem32SecondOrderTimeDependentOperatorD0Ev
FN:634,_ZN4mfem32SecondOrderTimeDependentOperatorD2Ev
FN:856,_ZN4mfem19ConstrainedOperatorD0Ev
FN:856,_ZN4mfem19ConstrainedOperatorD2Ev
FN:909,_ZN4mfem30RectangularConstrainedOperatorD0Ev
FN:909,_ZN4mfem30RectangularConstrainedOperatorD2Ev
FNDA:0,_ZN4mfem19ConstrainedOperatorD0Ev
FNDA:0,_ZN4mfem19ConstrainedOperatorD2Ev
FNDA:0,_ZN4mfem21TimeDependentOperatorD0Ev
FNDA:0,_ZN4mfem21TimeDependentOperatorD2Ev
FNDA:0,_ZN4mfem30RectangularConstrainedOperatorD0Ev
FNDA:0,_ZN4mfem30RectangularConstrainedOperatorD2Ev
FNDA:0,_ZN4mfem32SecondOrderTimeDependentOperatorD0Ev
FNDA:0,_ZN4mfem32SecondOrderTimeDependentOperatorD2Ev
FNF:8
FNH:0
DA:59,1
DA:63,1
DA:66,1
DA:456,0
DA:634,0
DA:654,1
DA:856,0
DA:909,0
LF:8
LH:4
end_of_record
TN:
SF:/root/mfem/mfem/linalg/solvers.hpp
FN:146,_ZN4mfem22OperatorJacobiSmootherD0Ev
FN:146,_ZN4mfem22OperatorJacobiSmootherD2Ev
FN:198,_ZN4mfem25OperatorChebyshevSmootherD0Ev
FN:198,_ZN4mfem25OperatorChebyshevSmootherD2Ev
FNDA:0,_ZN4mfem22OperatorJacobiSmootherD0Ev
FNDA:0,_ZN4mfem22OperatorJacobiSmootherD2Ev
FNDA:0,_ZN4mfem25OperatorChebyshevSmootherD0Ev
FNDA:0,_ZN4mfem25OperatorChebyshevSmootherD2Ev
FNF:4
FNH:0
DA:146,0
DA:198,0
LF:2
LH:0
end_of_record
TN:
SF:/root/mfem/mfem/linalg/sparsemat.hpp
FN:618,_ZN4mfem12SparseMatrixD0Ev
FN:618,_ZN4mfem12SparseMatrixD2Ev
FNDA:0,_ZN4mfem12SparseMatrixD0Ev
FNDA:0,_ZN4mfem12SparseMatrixD2Ev
FNF:2
FNH:0
DA:111,1
DA:112,1
DA:114,1
DA:115,1
DA:618,0
DA:619,0
DA:620,0
DA:629,0
LF:8
LH:4
end_of_record
TN:
SF:/root/mfem/mfem/linalg/sparsesmoothers.hpp
FNF:0
FNH:0
DA:30,1
DA:36,0
DA:48,1
LF:3
LH:2
end_of_record
TN:
SF:/root/mfem/mfem/linalg/vector.hpp
FN:468,_ZN4mfem6Vector7SetSizeEi
FN:576,_ZN4mfem6VectorD0Ev
FN:576,_ZN4mfem6VectorD2Ev
FNDA:0,_ZN4mfem6VectorD0Ev
FNDA:0,_ZN4mfem6VectorD2Ev
FNDA:50,_ZN4mfem6Vector7SetSizeEi
FNF:3
FNH:1
DA:70,6
DA:169,2
DA:454,4
DA:456,4
DA:458,4
DA:459,4
DA:463,0
DA:468,50
DA:470,50
DA:474,5
DA:476,0
DA:477,0
DA:482,5
DA:483,5
DA:484,5
DA:576,0
DA:578,0
DA:579,0
LF:18
LH:12
end_of_record
TN:
SF:/root/mfem/mfem/mesh/mesh.hpp
FNF:0
FNH:0
DA:802,1
LF:1
LH:1
end_of_record
TN:
SF:/usr/include/c++/10/bits/basic_string.h
FNF:0
FNH:0
DA:167,1
DA:168,1
DA:187,0
DA:191,3
DA:195,0
DA:201,1
DA:211,0
DA:219,0
DA:225,3
DA:239,2
DA:245,0
DA:255,1
DA:356,3
DA:456,1
DA:459,1
DA:671,2
DA:921,1
DA:6292,0
LF:18
LH:12
end_of_record
TN:
SF:/usr/include/c++/10/bits/basic_string.tcc
FN:206,_ZNSt7__cxx1112basic_stringIcSt11char_traitsIcESaIcEE12_M_constructIPKcEEvT_S8_St20forward_iterator_tag
FN:206,_ZNSt7__cxx1112basic_stringIcSt11char_traitsIcESaIcEE12_M_constructIPcEEvT_S7_St20forward_iterator_tag
FNDA:1,_ZNSt7__cxx1112basic_stringIcSt11char_traitsIcESaIcEE12_M_constructIPcEEvT_S7_St20forward_iterator_tag
FNDA:2,_ZNSt7__cxx1112basic_stringIcSt11char_traitsIcESaIcEE12_M_constructIPKcEEvT_S8_St20forward_iterator_tag
FNF:2
FNH:2
DA:206,3
DA:211,3
DA:212,0
DA:215,3
DA:217,3
DA:219,0
DA:220,0
DA:232,3
DA:233,3
LF:9
LH:6
end_of_record
TN:
SF:/usr/include/c++/10/bits/char_traits.h
FNF:0
FNH:0
DA:357,2
DA:431,1
DA:437,1
LF:3
LH:3
end_of_record
TN:
SF:/usr/include/c++/10/bits/hashtable.h
FN:1438,_ZNSt10_HashtableIKSt5tupleIJbN4mfem18ElementDofOrderingENS1_8FaceTypeENS1_12L2FaceValuesEEESt4pairIS6_PNS1_8OperatorEESaISA_ENSt8__detail10_Select1stESt8equal_toIS6_ENS1_18FiniteElementSpace8key_hashENSC_18_Mod_range_hashingENSC_20_Default_ranged_hashENSC_20_Prime_rehash_policyENSC_17_Hashtable_traitsILb1ELb0ELb1EEEED2Ev
FN:2081,_ZNSt10_HashtableIKSt5tupleIJbN4mfem18ElementDofOrderingENS1_8FaceTypeENS1_12L2FaceValuesEEESt4pairIS6_PNS1_8OperatorEESaISA_ENSt8__detail10_Select1stESt8equal_toIS6_ENS1_18FiniteElementSpace8key_hashENSC_18_Mod_range_hashingENSC_20_Default_ranged_hashENSC_20_Prime_rehash_policyENSC_17_Hashtable_traitsILb1ELb0ELb1EEEE5clearEv
FNDA:0,_ZNSt10_HashtableIKSt5tupleIJbN4mfem18ElementDofOrderingENS1_8FaceTypeENS1_12L2FaceValuesEEESt4pairIS6_PNS1_8OperatorEESaISA_ENSt8__detail10_Select1stESt8equal_toIS6_ENS1_18FiniteElementSpace8key_hashENSC_18_Mod_range_hashingENSC_20_Default_ranged_hashENSC_20_Prime_rehash_policyENSC_17_Hashtable_traitsILb1ELb0ELb1EEEE5clearEv
FNDA:0,_ZNSt10_HashtableIKSt5tupleIJbN4mfem18ElementDofOrderingENS1_8FaceTypeENS1_12L2FaceValuesEEESt4pairIS6_PNS1_8OperatorEESaISA_ENSt8__detail10_Select1stESt8equal_toIS6_ENS1_18FiniteElementSpace8key_hashENSC_18_Mod_range_hashingENSC_20_Default_ranged_hashENSC_20_Prime_rehash_policyENSC_17_Hashtable_traitsILb1ELb0ELb1EEEED2Ev
FNF:2
FNH:0
DA:394,0
DA:418,0
DA:426,0
DA:435,0
DA:490,1
DA:1438,0
DA:1442,0
DA:1444,0
DA:2081,0
DA:2086,0
DA:2087,0
DA:2088,0
DA:2089,0
LF:13
LH:1
end_of_record
TN:
SF:/usr/include/c++/10/bits/hashtable_policy.h
FNF:0
FNH:0
DA:218,1
DA:270,0
DA:450,1
DA:2056,0
DA:2064,0
DA:2072,0
DA:2101,0
LF:7
LH:2
end_of_record
TN:
SF:/usr/include/c++/10/bits/invoke.h
FNF:0
FNH:0
DA:60,208
LF:1
LH:1
end_of_record
TN:
SF:/usr/include/c++/10/bits/ios_base.h
FNF:0
FNH:0
DA:88,0
DA:100,0
DA:678,0
DA:731,0
LF:4
LH:0
end_of_record
TN:
SF:/usr/include/c++/10/bits/locale_facets.h
FN:872,_ZNKSt5ctypeIcE5widenEc
FN:1084,_ZNKSt5ctypeIcE8do_widenEc
FNDA:0,_ZNKSt5ctypeIcE5widenEc
FNDA:0,_ZNKSt5ctypeIcE8do_widenEc
FNF:2
FNH:0
DA:872,0
DA:874,0
DA:875,0
DA:876,0
DA:877,0
DA:1084,0
DA:1085,0
LF:7
LH:0
end_of_record
TN:
SF:/usr/include/c++/10/bits/move.h
FNF:0
FNH:0
DA:197,1
DA:199,1
LF:2
LH:2
end_of_record
TN:
SF:/usr/include/c++/10/bits/std_function.h
FN:268,_ZNSt17_Function_handlerIFvRKN4mfem6VectorERS1_EPS5_E10_M_managerERSt9_Any_dataRKS8_St18_Manager_operation
FN:289,_ZNSt17_Function_handlerIFvRKN4mfem6VectorERS1_EPS5_E9_M_invokeERKSt9_Any_dataS3_S4_
FNDA:1,_ZNSt17_Function_handlerIFvRKN4mfem6VectorERS1_EPS5_E10_M_managerERSt9_Any_dataRKS8_St18_Manager_operation
FNDA:208,_ZNSt17_Function_handlerIFvRKN4mfem6VectorERS1_EPS5_E9_M_invokeERKSt9_Any_dataS3_S4_
FNF:2
FNH:2
DA:88,0
DA:152,0
DA:184,1
DA:188,0
DA:189,0
DA:192,0
DA:193,0
DA:195,0
DA:197,0
DA:233,1
DA:240,1
DA:244,0
DA:245,0
DA:268,1
DA:271,1
DA:275,0
DA:276,0
DA:279,0
DA:280,0
DA:285,1
DA:289,208
DA:292,208
DA:303,0
DA:330,1
DA:357,1
DA:601,1
DA:610,1
DA:611,1
LF:28
LH:13
end_of_record
TN:
SF:/usr/include/c++/10/bits/stl_algobase.h
FNF:0
FNH:0
DA:259,158
DA:260,1
LF:2
LH:2
end_of_record
TN:
SF:/usr/include/c++/10/bits/stl_function.h
FNF:0
FNH:0
DA:1156,1
LF:1
LH:1
end_of_record
TN:
SF:/usr/include/c++/10/bits/stl_iterator_base_funcs.h
FNF:0
FNH:0
DA:104,3
LF:1
LH:1
end_of_record
TN:
SF:/usr/include/c++/10/bits/stl_map.h
FN:492,_ZNSt3mapINSt7__cxx1112basic_stringIcSt11char_traitsIcESaIcEEEPN4mfem12GridFunctionESt4lessIS5_ESaISt4pairIKS5_S8_EEEixERSC_
FNDA:1,_ZNSt3mapINSt7__cxx1112basic_stringIcSt11char_traitsIcESaIcEEEPN4mfem12GridFunctionESt4lessIS5_ESaISt4pairIKS5_S8_EEEixERSC_
FNF:1
FNH:1
DA:492,1
DA:499,1
DA:501,1
DA:502,1
DA:503,1
DA:507,1
DA:1259,1
LF:7
LH:7
end_of_record
TN:
SF:/usr/include/c++/10/bits/stl_tree.h
FN:613,_ZNSt8_Rb_treeINSt7__cxx1112basic_stringIcSt11char_traitsIcESaIcEEESt4pairIKS5_PN4mfem12GridFunctionEESt10_Select1stISB_ESt4lessIS5_ESaISB_EE17_M_construct_nodeIJRKSt21piecewise_construct_tSt5tupleIJRS7_EESM_IJEEEEEvPSt13_Rb_tree_nodeISB_EDpOT_
FN:1278,_ZNSt8_Rb_treeINSt7__cxx1112basic_stringIcSt11char_traitsIcESaIcEEESt4pairIKS5_PN4mfem12GridFunctionEESt10_Select1stISB_ESt4lessIS5_ESaISB_EE11lower_boundERS7_
FN:2096,_ZNSt8_Rb_treeINSt7__cxx1112basic_stringIcSt11char_traitsIcESaIcEEESt4pairIKS5_PN4mfem12GridFunctionEESt10_Select1stISB_ESt4lessIS5_ESaISB_EE24_M_get_insert_unique_posERS7_
FN:2198,_ZNSt8_Rb_treeINSt7__cxx1112basic_stringIcSt11char_traitsIcESaIcEEESt4pairIKS5_PN4mfem12GridFunctionEESt10_Select1stISB_ESt4lessIS5_ESaISB_EE29_M_get_insert_hint_unique_posESt23_Rb_tree_const_iteratorISB_ERS7_
FN:2365,_ZNSt8_Rb_treeINSt7__cxx1112basic_stringIcSt11char_traitsIcESaIcEEESt4pairIKS5_PN4mfem12GridFunctionEESt10_Select1stISB_ESt4lessIS5_ESaISB_EE14_M_insert_nodeEPSt18_Rb_tree_node_baseSJ_PSt13_Rb_tree_nodeISB_E
FN:2463,_ZNSt8_Rb_treeINSt7__cxx1112basic_stringIcSt11char_traitsIcESaIcEEESt4pairIKS5_PN4mfem12GridFunctionEESt10_Select1stISB_ESt4lessIS5_ESaISB_EE22_M_emplace_hint_uniqueIJRKSt21piecewise_construct_tSt5tupleIJRS7_EESM_IJEEEEESt17_Rb_tree_iteratorISB_ESt23_Rb_tree_const_iteratorISB_EDpOT_
FNDA:1,_ZNSt8_Rb_treeINSt7__cxx1112basic_stringIcSt11char_traitsIcESaIcEEESt4pairIKS5_PN4mfem12GridFunctionEESt10_Select1stISB_ESt4lessIS5_ESaISB_EE11lower_boundERS7_
FNDA:1,_ZNSt8_Rb_treeINSt7__cxx1112basic_stringIcSt11char_traitsIcESaIcEEESt4pairIKS5_PN4mfem12GridFunctionEESt10_Select1stISB_ESt4lessIS5_ESaISB_EE14_M_insert_nodeEPSt18_Rb_tree_node_baseSJ_PSt13_Rb_tree_nodeISB_E
FNDA:1,_ZNSt8_Rb_treeINSt7__cxx1112basic_stringIcSt11char_traitsIcESaIcEEESt4pairIKS5_PN4mfem12GridFunctionEESt10_Select1stISB_ESt4lessIS5_ESaISB_EE17_M_construct_nodeIJRKSt21piecewise_construct_tSt5tupleIJRS7_EESM_IJEEEEEvPSt13_Rb_tree_nodeISB_EDpOT_
FNDA:1,_ZNSt8_Rb_treeINSt7__cxx1112basic_stringIcSt11char_traitsIcESaIcEEESt4pairIKS5_PN4mfem12GridFunctionEESt10_Select1stISB_ESt4lessIS5_ESaISB_EE22_M_emplace_hint_uniqueIJRKSt21piecewise_construct_tSt5tupleIJRS7_EESM_IJEEEEESt17_Rb_tree_iteratorISB_ESt23_Rb_tree_const_iteratorISB_EDpOT_
FNDA:1,_ZNSt8_Rb_treeINSt7__cxx1112basic_stringIcSt11char_traitsIcESaIcEEESt4pairIKS5_PN4mfem12GridFunctionEESt10_Select1stISB_ESt4lessIS5_ESaISB_EE24_M_get_insert_unique_posERS7_
FNDA:1,_ZNSt8_Rb_treeINSt7__cxx1112basic_stringIcSt11char_traitsIcESaIcEEESt4pairIKS5_PN4mfem12GridFunctionEESt10_Select1stISB_ESt4lessIS5_ESaISB_EE29_M_get_insert_hint_unique_posESt23_Rb_tree_const_iteratorISB_ERS7_
FNF:6
FNH:6
DA:287,0
DA:302,0
DA:303,0
DA:350,1
DA:351,1
DA:355,1
DA:613,1
DA:622,0
DA:624,0
DA:626,0
DA:628,1
DA:635,1
DA:647,0
DA:751,2
DA:762,4
DA:792,0
DA:800,0
DA:1005,1
DA:1013,1
DA:1041,1
DA:1278,1
DA:1279,1
DA:1939,1
DA:1940,0
DA:2096,1
DA:2103,1
DA:2107,0
DA:2110,1
DA:2112,1
DA:2113,1
DA:2117,0
DA:2118,0
DA:2119,0
DA:2198,1
DA:2206,1
DA:2209,1
DA:2210,0
DA:2212,1
DA:2214,0
DA:2218,0
DA:2219,0
DA:2220,0
DA:2222,0
DA:2223,0
DA:2225,0
DA:2228,0
DA:2230,0
DA:2234,0
DA:2235,0
DA:2236,0
DA:2238,0
DA:2239,0
DA:2241,0
DA:2244,0
DA:2248,0
DA:2365,1
DA:2368,1
DA:2369,1
DA:2372,1
DA:2373,1
DA:2374,1
DA:2375,1
DA:2463,1
DA:2470,1
DA:2472,1
DA:2473,1
DA:2476,0
LF:67
LH:34
end_of_record
TN:
SF:/usr/include/c++/10/bits/unordered_map.h
FNF:0
FNH:0
DA:102,0
LF:1
LH:0
end_of_record
TN:
SF:/usr/include/c++/10/ext/new_allocator.h
FNF:0
FNH:0
DA:121,1
DA:139,0
LF:2
LH:1
end_of_record
TN:
SF:/usr/include/c++/10/iomanip
FNF:0
FNH:0
DA:111,0
DA:210,0
LF:2
LH:0
end_of_record
TN:
SF:/usr/include/c++/10/iostream
FNF:0
FNH:0
LF:0
LH:0
end_of_record
TN:
SF:/usr/include/c++/10/ostream
FNF:0
FNH:0
DA:113,5
DA:221,1
DA:518,0
DA:611,8
LF:4
LH:3
end_of_record
TN:
SF:/usr/include/c++/10/sstream
FNF:0
FNH:0
DA:678,0
LF:1
LH:0
end_of_record
TN:
SF:/usr/include/c++/10/streambuf
FNF:0
FNH:0
LF:0
LH:0
end_of_record
TN:
SF:/usr/include/c++/10/tuple
FNF:0
FNH:0
DA:135,1
DA:136,1
DA:176,1
DA:1702,1
DA:1706,1
LF:5
LH:5
end_of_record
TN:
SF:/usr/include/x86_64-linux-gnu/bits/string_fortified.h
FNF:0
FNH:0
DA:29,138
DA:30,138
LF:2
LH:2
end_of_record
