TN:
SF:/root/mfem/fem/bilinearform.hpp
FN:339,_ZN4mfem12BilinearForm5SpMatEv
FN:441,_ZNK4mfem12BilinearForm15GetProlongationEv
FN:444,_ZNK4mfem12BilinearForm14GetRestrictionEv
FN:528,_ZN4mfem12BilinearForm16FormSystemMatrixINS_12SparseMatrixEEEvRKNS_5ArrayIiEERT_
FN:528,_ZN4mfem12BilinearForm16FormSystemMatrixINS_14HypreParMatrixEEEvRKNS_5ArrayIiEERT_
FN:859,_ZNK4mfem17MixedBilinearForm15GetProlongationEv
FN:863,_ZNK4mfem17MixedBilinearForm14GetRestrictionEv
FNDA:0,_ZN4mfem12BilinearForm16FormSystemMatrixINS_12SparseMatrixEEEvRKNS_5ArrayIiEERT_
FNDA:0,_ZN4mfem12BilinearForm16FormSystemMatrixINS_14HypreParMatrixEEEvRKNS_5ArrayIiEERT_
FNDA:0,_ZN4mfem12BilinearForm5SpMatEv
FNDA:0,_ZNK4mfem12BilinearForm14GetRestrictionEv
FNDA:0,_ZNK4mfem12BilinearForm15GetProlongationEv
FNDA:0,_ZNK4mfem17MixedBilinearForm14GetRestrictionEv
FNDA:0,_ZNK4mfem17MixedBilinearForm15GetProlongationEv
FNF:7
FNH:0
DA:197,0
DA:199,0
DA:339,0
DA:341,0
DA:342,0
DA:441,0
DA:442,0
DA:444,0
DA:445,0
DA:528,0
DA:530,0
DA:531,0
DA:532,0
DA:533,0
DA:534,0
DA:535,0
DA:793,0
DA:859,0
DA:860,0
DA:863,0
DA:864,0
DA:1041,0
DA:1055,0
DA:1057,0
DA:1060,0
DA:1061,0
LF:26
LH:0
end_of_record
TN:
SF:/root/mfem/fem/bilininteg.hpp
FN:178,_ZN4mfem22BilinearFormIntegrator19AssembleElementGradERKNS_13FiniteElementERNS_21ElementTransformationERKNS_6VectorERNS_11DenseMatrixE
FN:183,_ZN4mfem22BilinearFormIntegrator16AssembleFaceGradERKNS_13FiniteElementES3_RNS_26FaceElementTransformationsERKNS_6VectorERNS_11DenseMatrixE
FN:223,_ZN4mfem22BilinearFormIntegrator18ComputeElementFluxERKNS_13FiniteElementERNS_21ElementTransformationERNS_6VectorES3_S7_bPKNS_15IntegrationRuleE
FN:249,_ZN4mfem22BilinearFormIntegrator17ComputeFluxEnergyERKNS_13FiniteElementERNS_21ElementTransformationERNS_6VectorEPS6_
FN:268,_ZN4mfem19TransposeIntegratorC2EPNS_22BilinearFormIntegratorEi
FN:378,_ZN4mfem13SumIntegratorC2Ei
FN:453,_ZN4mfem21MixedScalarIntegrator21AssembleElementMatrixERKNS_13FiniteElementERNS_21ElementTransformationERNS_11DenseMatrixE
FN:467,_ZNK4mfem21MixedScalarIntegrator24VerifyFiniteElementTypesERKNS_13FiniteElementES3_
FN:475,_ZNK4mfem21MixedScalarIntegrator31FiniteElementTypeFailureMessageEv
FN:481,_ZN4mfem21MixedScalarIntegrator19GetIntegrationOrderERKNS_13FiniteElementES3_RNS_21ElementTransformationE
FN:487,_ZN4mfem21MixedScalarIntegrator13CalcTestShapeERKNS_13FiniteElementERNS_21ElementTransformationERNS_6VectorE
FN:492,_ZN4mfem21MixedScalarIntegrator14CalcTrialShapeERKNS_13FiniteElementERNS_21ElementTransformationERNS_6VectorE
FN:520,_ZN4mfem21MixedVectorIntegrator21AssembleElementMatrixERKNS_13FiniteElementERNS_21ElementTransformationERNS_11DenseMatrixE
FN:531,_ZN4mfem21MixedVectorIntegratorC2Ev
FN:533,_ZN4mfem21MixedVectorIntegratorC2ERNS_11CoefficientE
FN:535,_ZN4mfem21MixedVectorIntegratorC2ERNS_17VectorCoefficientEb
FN:538,_ZN4mfem21MixedVectorIntegratorC2ERNS_17MatrixCoefficientE
FN:541,_ZNK4mfem21MixedVectorIntegrator24VerifyFiniteElementTypesERKNS_13FiniteElementES3_
FN:549,_ZNK4mfem21MixedVectorIntegrator31FiniteElementTypeFailureMessageEv
FN:555,_ZN4mfem21MixedVectorIntegrator19GetIntegrationOrderERKNS_13FiniteElementES3_RNS_21ElementTransformationE
FN:561,_ZN4mfem21MixedVectorIntegrator11GetTestVDimERKNS_13FiniteElementE
FN:564,_ZN4mfem21MixedVectorIntegrator13CalcTestShapeERKNS_13FiniteElementERNS_21ElementTransformationERNS_11DenseMatrixE
FN:569,_ZN4mfem21MixedVectorIntegrator12GetTrialVDimERKNS_13FiniteElementE
FN:572,_ZN4mfem21MixedVectorIntegrator14CalcTrialShapeERKNS_13FiniteElementERNS_21ElementTransformationERNS_11DenseMatrixE
FN:613,_ZN4mfem27MixedScalarVectorIntegrator21AssembleElementMatrixERKNS_13FiniteElementERNS_21ElementTransformationERNS_11DenseMatrixE
FN:620,_ZN4mfem27MixedScalarVectorIntegratorC2ERNS_17VectorCoefficientEbb
FN:624,_ZNK4mfem27MixedScalarVectorIntegrator24VerifyFiniteElementTypesERKNS_13FiniteElementES3_
FN:637,_ZNK4mfem27MixedScalarVectorIntegrator31FiniteElementTypeFailureMessageEv
FN:653,_ZN4mfem27MixedScalarVectorIntegrator19GetIntegrationOrderERKNS_13FiniteElementES3_RNS_21ElementTransformationE
FN:659,_ZN4mfem27MixedScalarVectorIntegrator7GetVDimERKNS_13FiniteElementE
FN:662,_ZN4mfem27MixedScalarVectorIntegrator10CalcVShapeERKNS_13FiniteElementERNS_21ElementTransformationERNS_11DenseMatrixE
FN:667,_ZN4mfem27MixedScalarVectorIntegrator9CalcShapeERKNS_13FiniteElementERNS_21ElementTransformationERNS_6VectorE
FN:719,_ZNK4mfem31MixedScalarDerivativeIntegrator24VerifyFiniteElementTypesERKNS_13FiniteElementES3_
FN:728,_ZNK4mfem31MixedScalarDerivativeIntegrator31FiniteElementTypeFailureMessageEv
FN:735,_ZN4mfem31MixedScalarDerivativeIntegrator14CalcTrialShapeERKNS_13FiniteElementERNS_21ElementTransformationERNS_6VectorE
FN:754,_ZNK4mfem35MixedScalarWeakDerivativeIntegrator24VerifyFiniteElementTypesERKNS_13FiniteElementES3_
FN:763,_ZNK4mfem35MixedScalarWeakDerivativeIntegrator31FiniteElementTypeFailureMessageEv
FN:771,_ZN4mfem35MixedScalarWeakDerivativeIntegrator13CalcTestShapeERKNS_13FiniteElementERNS_21ElementTransformationERNS_6VectorE
FN:792,_ZNK4mfem31MixedScalarDivergenceIntegrator24VerifyFiniteElementTypesERKNS_13FiniteElementES3_
FN:800,_ZNK4mfem31MixedScalarDivergenceIntegrator31FiniteElementTypeFailureMessageEv
FN:807,_ZN4mfem31MixedScalarDivergenceIntegrator19GetIntegrationOrderERKNS_13FiniteElementES3_RNS_21ElementTransformationE
FN:812,_ZN4mfem31MixedScalarDivergenceIntegrator14CalcTrialShapeERKNS_13FiniteElementERNS_21ElementTransformationERNS_6VectorE
FN:828,_ZNK4mfem31MixedVectorDivergenceIntegrator24VerifyFiniteElementTypesERKNS_13FiniteElementES3_
FN:836,_ZNK4mfem31MixedVectorDivergenceIntegrator31FiniteElementTypeFailureMessageEv
FN:845,_ZN4mfem31MixedVectorDivergenceIntegrator19GetIntegrationOrderERKNS_13FiniteElementES3_RNS_21ElementTransformationE
FN:850,_ZN4mfem31MixedVectorDivergenceIntegrator9CalcShapeERKNS_13FiniteElementERNS_21ElementTransformationERNS_6VectorE
FN:867,_ZNK4mfem33MixedScalarWeakGradientIntegrator24VerifyFiniteElementTypesERKNS_13FiniteElementES3_
FN:875,_ZNK4mfem33MixedScalarWeakGradientIntegrator31FiniteElementTypeFailureMessageEv
FN:882,_ZN4mfem33MixedScalarWeakGradientIntegrator19GetIntegrationOrderERKNS_13FiniteElementES3_RNS_21ElementTransformationE
FN:887,_ZN4mfem33MixedScalarWeakGradientIntegrator13CalcTestShapeERKNS_13FiniteElementERNS_21ElementTransformationERNS_6VectorE
FN:963,_ZNK4mfem29MixedScalarWeakCurlIntegrator24VerifyFiniteElementTypesERKNS_13FiniteElementES3_
FN:972,_ZNK4mfem29MixedScalarWeakCurlIntegrator31FiniteElementTypeFailureMessageEv
FN:979,_ZN4mfem29MixedScalarWeakCurlIntegrator13CalcTestShapeERKNS_13FiniteElementERNS_21ElementTransformationERNS_6VectorE
FN:1021,_ZNK4mfem25MixedDotProductIntegrator24VerifyFiniteElementTypesERKNS_13FiniteElementES3_
FN:1029,_ZNK4mfem25MixedDotProductIntegrator31FiniteElementTypeFailureMessageEv
FN:1046,_ZNK4mfem26MixedWeakGradDotIntegrator24VerifyFiniteElementTypesERKNS_13FiniteElementES3_
FN:1055,_ZNK4mfem26MixedWeakGradDotIntegrator31FiniteElementTypeFailureMessageEv
FN:1064,_ZN4mfem26MixedWeakGradDotIntegrator19GetIntegrationOrderERKNS_13FiniteElementES3_RNS_21ElementTransformationE
FN:1069,_ZN4mfem26MixedWeakGradDotIntegrator9CalcShapeERKNS_13FiniteElementERNS_21ElementTransformationERNS_6VectorE
FN:1083,_ZNK4mfem27MixedWeakDivCrossIntegrator24VerifyFiniteElementTypesERKNS_13FiniteElementES3_
FN:1093,_ZNK4mfem27MixedWeakDivCrossIntegrator31FiniteElementTypeFailureMessageEv
FN:1100,_ZN4mfem27MixedWeakDivCrossIntegrator11GetTestVDimERKNS_13FiniteElementE
FN:1103,_ZN4mfem27MixedWeakDivCrossIntegrator13CalcTestShapeERKNS_13FiniteElementERNS_21ElementTransformationERNS_11DenseMatrixE
FN:1123,_ZNK4mfem23MixedGradGradIntegrator24VerifyFiniteElementTypesERKNS_13FiniteElementES3_
FN:1133,_ZNK4mfem23MixedGradGradIntegrator31FiniteElementTypeFailureMessageEv
FN:1140,_ZN4mfem23MixedGradGradIntegrator19GetIntegrationOrderERKNS_13FiniteElementES3_RNS_21ElementTransformationE
FN:1150,_ZN4mfem23MixedGradGradIntegrator12GetTrialVDimERKNS_13FiniteElementE
FN:1153,_ZN4mfem23MixedGradGradIntegrator14CalcTrialShapeERKNS_13FiniteElementERNS_21ElementTransformationERNS_11DenseMatrixE
FN:1158,_ZN4mfem23MixedGradGradIntegrator11GetTestVDimERKNS_13FiniteElementE
FN:1161,_ZN4mfem23MixedGradGradIntegrator13CalcTestShapeERKNS_13FiniteElementERNS_21ElementTransformationERNS_11DenseMatrixE
FN:1175,_ZNK4mfem28MixedCrossGradGradIntegrator24VerifyFiniteElementTypesERKNS_13FiniteElementES3_
FN:1185,_ZNK4mfem28MixedCrossGradGradIntegrator31FiniteElementTypeFailureMessageEv
FN:1192,_ZN4mfem28MixedCrossGradGradIntegrator12GetTrialVDimERKNS_13FiniteElementE
FN:1195,_ZN4mfem28MixedCrossGradGradIntegrator14CalcTrialShapeERKNS_13FiniteElementERNS_21ElementTransformationERNS_11DenseMatrixE
FN:1200,_ZN4mfem28MixedCrossGradGradIntegrator11GetTestVDimERKNS_13FiniteElementE
FN:1203,_ZN4mfem28MixedCrossGradGradIntegrator13CalcTestShapeERKNS_13FiniteElementERNS_21ElementTransformationERNS_11DenseMatrixE
FN:1223,_ZNK4mfem23MixedCurlCurlIntegrator24VerifyFiniteElementTypesERKNS_13FiniteElementES3_
FN:1234,_ZNK4mfem23MixedCurlCurlIntegrator31FiniteElementTypeFailureMessageEv
FN:1241,_ZN4mfem23MixedCurlCurlIntegrator12GetTrialVDimERKNS_13FiniteElementE
FN:1244,_ZN4mfem23MixedCurlCurlIntegrator14CalcTrialShapeERKNS_13FiniteElementERNS_21ElementTransformationERNS_11DenseMatrixE
FN:1249,_ZN4mfem23MixedCurlCurlIntegrator11GetTestVDimERKNS_13FiniteElementE
FN:1252,_ZN4mfem23MixedCurlCurlIntegrator13CalcTestShapeERKNS_13FiniteElementERNS_21ElementTransformationERNS_11DenseMatrixE
FN:1266,_ZNK4mfem28MixedCrossCurlCurlIntegrator24VerifyFiniteElementTypesERKNS_13FiniteElementES3_
FN:1278,_ZNK4mfem28MixedCrossCurlCurlIntegrator31FiniteElementTypeFailureMessageEv
FN:1285,_ZN4mfem28MixedCrossCurlCurlIntegrator12GetTrialVDimERKNS_13FiniteElementE
FN:1288,_ZN4mfem28MixedCrossCurlCurlIntegrator14CalcTrialShapeERKNS_13FiniteElementERNS_21ElementTransformationERNS_11DenseMatrixE
FN:1293,_ZN4mfem28MixedCrossCurlCurlIntegrator11GetTestVDimERKNS_13FiniteElementE
FN:1296,_ZN4mfem28MixedCrossCurlCurlIntegrator13CalcTestShapeERKNS_13FiniteElementERNS_21ElementTransformationERNS_11DenseMatrixE
FN:1310,_ZNK4mfem28MixedCrossCurlGradIntegrator24VerifyFiniteElementTypesERKNS_13FiniteElementES3_
FN:1321,_ZNK4mfem28MixedCrossCurlGradIntegrator31FiniteElementTypeFailureMessageEv
FN:1328,_ZN4mfem28MixedCrossCurlGradIntegrator12GetTrialVDimERKNS_13FiniteElementE
FN:1331,_ZN4mfem28MixedCrossCurlGradIntegrator14CalcTrialShapeERKNS_13FiniteElementERNS_21ElementTransformationERNS_11DenseMatrixE
FN:1336,_ZN4mfem28MixedCrossCurlGradIntegrator11GetTestVDimERKNS_13FiniteElementE
FN:1339,_ZN4mfem28MixedCrossCurlGradIntegrator13CalcTestShapeERKNS_13FiniteElementERNS_21ElementTransformationERNS_11DenseMatrixE
FN:1353,_ZNK4mfem28MixedCrossGradCurlIntegrator24VerifyFiniteElementTypesERKNS_13FiniteElementES3_
FN:1364,_ZNK4mfem28MixedCrossGradCurlIntegrator31FiniteElementTypeFailureMessageEv
FN:1371,_ZN4mfem28MixedCrossGradCurlIntegrator12GetTrialVDimERKNS_13FiniteElementE
FN:1374,_ZN4mfem28MixedCrossGradCurlIntegrator14CalcTrialShapeERKNS_13FiniteElementERNS_21ElementTransformationERNS_11DenseMatrixE
FN:1379,_ZN4mfem28MixedCrossGradCurlIntegrator11GetTestVDimERKNS_13FiniteElementE
FN:1382,_ZN4mfem28MixedCrossGradCurlIntegrator13CalcTestShapeERKNS_13FiniteElementERNS_21ElementTransformationERNS_11DenseMatrixE
FN:1397,_ZNK4mfem28MixedWeakCurlCrossIntegrator24VerifyFiniteElementTypesERKNS_13FiniteElementES3_
FN:1407,_ZNK4mfem28MixedWeakCurlCrossIntegrator31FiniteElementTypeFailureMessageEv
FN:1414,_ZN4mfem28MixedWeakCurlCrossIntegrator11GetTestVDimERKNS_13FiniteElementE
FN:1417,_ZN4mfem28MixedWeakCurlCrossIntegrator13CalcTestShapeERKNS_13FiniteElementERNS_21ElementTransformationERNS_11DenseMatrixE
FN:1432,_ZNK4mfem34MixedScalarWeakCurlCrossIntegrator24VerifyFiniteElementTypesERKNS_13FiniteElementES3_
FN:1442,_ZNK4mfem34MixedScalarWeakCurlCrossIntegrator31FiniteElementTypeFailureMessageEv
FN:1449,_ZN4mfem34MixedScalarWeakCurlCrossIntegrator9CalcShapeERKNS_13FiniteElementERNS_21ElementTransformationERNS_6VectorE
FN:1467,_ZNK4mfem24MixedCrossGradIntegrator24VerifyFiniteElementTypesERKNS_13FiniteElementES3_
FN:1477,_ZNK4mfem24MixedCrossGradIntegrator31FiniteElementTypeFailureMessageEv
FN:1484,_ZN4mfem24MixedCrossGradIntegrator12GetTrialVDimERKNS_13FiniteElementE
FN:1487,_ZN4mfem24MixedCrossGradIntegrator14CalcTrialShapeERKNS_13FiniteElementERNS_21ElementTransformationERNS_11DenseMatrixE
FN:1492,_ZN4mfem24MixedCrossGradIntegrator13CalcTestShapeERKNS_13FiniteElementERNS_21ElementTransformationERNS_11DenseMatrixE
FN:1507,_ZNK4mfem24MixedCrossCurlIntegrator24VerifyFiniteElementTypesERKNS_13FiniteElementES3_
FN:1517,_ZNK4mfem24MixedCrossCurlIntegrator31FiniteElementTypeFailureMessageEv
FN:1524,_ZN4mfem24MixedCrossCurlIntegrator12GetTrialVDimERKNS_13FiniteElementE
FN:1527,_ZN4mfem24MixedCrossCurlIntegrator14CalcTrialShapeERKNS_13FiniteElementERNS_21ElementTransformationERNS_11DenseMatrixE
FN:1542,_ZNK4mfem30MixedScalarCrossCurlIntegrator24VerifyFiniteElementTypesERKNS_13FiniteElementES3_
FN:1552,_ZNK4mfem30MixedScalarCrossCurlIntegrator31FiniteElementTypeFailureMessageEv
FN:1559,_ZN4mfem30MixedScalarCrossCurlIntegrator9CalcShapeERKNS_13FiniteElementERNS_21ElementTransformationERNS_6VectorE
FN:1576,_ZNK4mfem30MixedScalarCrossGradIntegrator24VerifyFiniteElementTypesERKNS_13FiniteElementES3_
FN:1586,_ZNK4mfem30MixedScalarCrossGradIntegrator31FiniteElementTypeFailureMessageEv
FN:1593,_ZN4mfem30MixedScalarCrossGradIntegrator7GetVDimERKNS_13FiniteElementE
FN:1596,_ZN4mfem30MixedScalarCrossGradIntegrator10CalcVShapeERKNS_13FiniteElementERNS_21ElementTransformationERNS_11DenseMatrixE
FN:1610,_ZNK4mfem33MixedScalarCrossProductIntegrator24VerifyFiniteElementTypesERKNS_13FiniteElementES3_
FN:1619,_ZNK4mfem33MixedScalarCrossProductIntegrator31FiniteElementTypeFailureMessageEv
FN:1635,_ZNK4mfem37MixedScalarWeakCrossProductIntegrator24VerifyFiniteElementTypesERKNS_13FiniteElementES3_
FN:1644,_ZNK4mfem37MixedScalarWeakCrossProductIntegrator31FiniteElementTypeFailureMessageEv
FN:1651,_ZN4mfem37MixedScalarWeakCrossProductIntegrator9CalcShapeERKNS_13FiniteElementERNS_21ElementTransformationERNS_6VectorE
FN:1665,_ZNK4mfem36MixedDirectionalDerivativeIntegrator24VerifyFiniteElementTypesERKNS_13FiniteElementES3_
FN:1674,_ZNK4mfem36MixedDirectionalDerivativeIntegrator31FiniteElementTypeFailureMessageEv
FN:1681,_ZN4mfem36MixedDirectionalDerivativeIntegrator7GetVDimERKNS_13FiniteElementE
FN:1684,_ZN4mfem36MixedDirectionalDerivativeIntegrator10CalcVShapeERKNS_13FiniteElementERNS_21ElementTransformationERNS_11DenseMatrixE
FN:1698,_ZNK4mfem22MixedGradDivIntegrator24VerifyFiniteElementTypesERKNS_13FiniteElementES3_
FN:1708,_ZNK4mfem22MixedGradDivIntegrator31FiniteElementTypeFailureMessageEv
FN:1715,_ZN4mfem22MixedGradDivIntegrator7GetVDimERKNS_13FiniteElementE
FN:1718,_ZN4mfem22MixedGradDivIntegrator10CalcVShapeERKNS_13FiniteElementERNS_21ElementTransformationERNS_11DenseMatrixE
FN:1723,_ZN4mfem22MixedGradDivIntegrator9CalcShapeERKNS_13FiniteElementERNS_21ElementTransformationERNS_6VectorE
FN:1737,_ZNK4mfem22MixedDivGradIntegrator24VerifyFiniteElementTypesERKNS_13FiniteElementES3_
FN:1748,_ZNK4mfem22MixedDivGradIntegrator31FiniteElementTypeFailureMessageEv
FN:1755,_ZN4mfem22MixedDivGradIntegrator7GetVDimERKNS_13FiniteElementE
FN:1758,_ZN4mfem22MixedDivGradIntegrator10CalcVShapeERKNS_13FiniteElementERNS_21ElementTransformationERNS_11DenseMatrixE
FN:1763,_ZN4mfem22MixedDivGradIntegrator9CalcShapeERKNS_13FiniteElementERNS_21ElementTransformationERNS_6VectorE
FN:1777,_ZNK4mfem35MixedScalarWeakDivergenceIntegrator24VerifyFiniteElementTypesERKNS_13FiniteElementES3_
FN:1786,_ZNK4mfem35MixedScalarWeakDivergenceIntegrator31FiniteElementTypeFailureMessageEv
FN:1793,_ZN4mfem35MixedScalarWeakDivergenceIntegrator7GetVDimERKNS_13FiniteElementE
FN:1796,_ZN4mfem35MixedScalarWeakDivergenceIntegrator10CalcVShapeERKNS_13FiniteElementERNS_21ElementTransformationERNS_11DenseMatrixE
FN:1811,_ZN4mfem29MixedVectorGradientIntegratorC2Ev
FN:1812,_ZN4mfem29MixedVectorGradientIntegratorC2ERNS_11CoefficientE
FN:1814,_ZN4mfem29MixedVectorGradientIntegratorC2ERNS_17VectorCoefficientE
FN:1816,_ZN4mfem29MixedVectorGradientIntegratorC2ERNS_17MatrixCoefficientE
FN:1994,_ZNK4mfem35MixedVectorWeakDivergenceIntegrator24VerifyFiniteElementTypesERKNS_13FiniteElementES3_
FN:2002,_ZNK4mfem35MixedVectorWeakDivergenceIntegrator31FiniteElementTypeFailureMessageEv
FN:2009,_ZN4mfem35MixedVectorWeakDivergenceIntegrator11GetTestVDimERKNS_13FiniteElementE
FN:2012,_ZN4mfem35MixedVectorWeakDivergenceIntegrator13CalcTestShapeERKNS_13FiniteElementERNS_21ElementTransformationERNS_11DenseMatrixE
FN:2045,_ZN4mfem18GradientIntegratorC2Ev
FN:2099,_ZN4mfem19DiffusionIntegratorC2EPKNS_15IntegrationRuleE
FN:2104,_ZN4mfem19DiffusionIntegratorC2ERNS_11CoefficientEPKNS_15IntegrationRuleE
FN:2109,_ZN4mfem19DiffusionIntegratorC2ERNS_17VectorCoefficientEPKNS_15IntegrationRuleE
FN:2115,_ZN4mfem19DiffusionIntegratorC2ERNS_17MatrixCoefficientEPKNS_15IntegrationRuleE
FN:2269,_ZN4mfem20ConvectionIntegratorC2ERNS_17VectorCoefficientEd
FN:2359,_ZN4mfem20VectorMassIntegratorC2Ev
FN:2432,_ZN4mfem28VectorFEDivergenceIntegrator21AssembleElementMatrixERKNS_13FiniteElementERNS_21ElementTransformationERNS_11DenseMatrixE
FN:2462,_ZN4mfem32VectorFEWeakDivergenceIntegrator21AssembleElementMatrixERKNS_13FiniteElementERNS_21ElementTransformationERNS_11DenseMatrixE
FN:2488,_ZN4mfem22VectorFECurlIntegrator21AssembleElementMatrixERKNS_13FiniteElementERNS_21ElementTransformationERNS_11DenseMatrixE
FN:2510,_ZN4mfem20DerivativeIntegrator21AssembleElementMatrixERKNS_13FiniteElementERNS_21ElementTransformationERNS_11DenseMatrixE
FN:2546,_ZN4mfem18CurlCurlIntegratorC2Ev
FN:2548,_ZN4mfem18CurlCurlIntegratorC2ERNS_11CoefficientEPKNS_15IntegrationRuleE
FN:2550,_ZN4mfem18CurlCurlIntegratorC2ERNS_17VectorCoefficientEPKNS_15IntegrationRuleE
FN:2553,_ZN4mfem18CurlCurlIntegratorC2ERNS_17MatrixCoefficientEPKNS_15IntegrationRuleE
FN:2631,_ZN4mfem19MixedCurlIntegratorC2Ev
FN:2633,_ZN4mfem19MixedCurlIntegratorC2ERNS_11CoefficientE
FN:2676,_ZN4mfem22VectorFEMassIntegratorC2Ev
FN:2678,_ZN4mfem22VectorFEMassIntegratorC2ERNS_11CoefficientE
FN:2680,_ZN4mfem22VectorFEMassIntegratorC2ERNS_17VectorCoefficientE
FN:2682,_ZN4mfem22VectorFEMassIntegratorC2ERNS_17MatrixCoefficientE
FN:2724,_ZN4mfem26VectorDivergenceIntegratorC2Ev
FN:2824,_ZN4mfem25VectorDiffusionIntegratorC2Ev
FN:3386,_ZN4mfem16CurlInterpolator22AssembleElementMatrix2ERKNS_13FiniteElementES3_RNS_21ElementTransformationERNS_11DenseMatrixE
FN:3405,_ZN4mfem22DivergenceInterpolator22AssembleElementMatrix2ERKNS_13FiniteElementES3_RNS_21ElementTransformationERNS_11DenseMatrixE
FNDA:0,_ZN4mfem13SumIntegratorC2Ei
FNDA:0,_ZN4mfem16CurlInterpolator22AssembleElementMatrix2ERKNS_13FiniteElementES3_RNS_21ElementTransformationERNS_11DenseMatrixE
FNDA:0,_ZN4mfem18CurlCurlIntegratorC2ERNS_11CoefficientEPKNS_15IntegrationRuleE
FNDA:0,_ZN4mfem18CurlCurlIntegratorC2ERNS_17MatrixCoefficientEPKNS_15IntegrationRuleE
FNDA:0,_ZN4mfem18CurlCurlIntegratorC2ERNS_17VectorCoefficientEPKNS_15IntegrationRuleE
FNDA:0,_ZN4mfem18CurlCurlIntegratorC2Ev
FNDA:0,_ZN4mfem18GradientIntegratorC2Ev
FNDA:0,_ZN4mfem19DiffusionIntegratorC2EPKNS_15IntegrationRuleE
FNDA:0,_ZN4mfem19DiffusionIntegratorC2ERNS_11CoefficientEPKNS_15IntegrationRuleE
FNDA:0,_ZN4mfem19DiffusionIntegratorC2ERNS_17MatrixCoefficientEPKNS_15IntegrationRuleE
FNDA:0,_ZN4mfem19DiffusionIntegratorC2ERNS_17VectorCoefficientEPKNS_15IntegrationRuleE
FNDA:0,_ZN4mfem19MixedCurlIntegratorC2ERNS_11CoefficientE
FNDA:0,_ZN4mfem19MixedCurlIntegratorC2Ev
FNDA:0,_ZN4mfem19TransposeIntegratorC2EPNS_22BilinearFormIntegratorEi
FNDA:0,_ZN4mfem20ConvectionIntegratorC2ERNS_17VectorCoefficientEd
FNDA:0,_ZN4mfem20DerivativeIntegrator21AssembleElementMatrixERKNS_13FiniteElementERNS_21ElementTransformationERNS_11DenseMatrixE
FNDA:0,_ZN4mfem20VectorMassIntegratorC2Ev
FNDA:0,_ZN4mfem21MixedScalarIntegrator13CalcTestShapeERKNS_13FiniteElementERNS_21ElementTransformationERNS_6VectorE
FNDA:0,_ZN4mfem21MixedScalarIntegrator14CalcTrialShapeERKNS_13FiniteElementERNS_21ElementTransformationERNS_6VectorE
FNDA:0,_ZN4mfem21MixedScalarIntegrator19GetIntegrationOrderERKNS_13FiniteElementES3_RNS_21ElementTransformationE
FNDA:0,_ZN4mfem21MixedScalarIntegrator21AssembleElementMatrixERKNS_13FiniteElementERNS_21ElementTransformationERNS_11DenseMatrixE
FNDA:0,_ZN4mfem21MixedVectorIntegrator11GetTestVDimERKNS_13FiniteElementE
FNDA:0,_ZN4mfem21MixedVectorIntegrator12GetTrialVDimERKNS_13FiniteElementE
FNDA:0,_ZN4mfem21MixedVectorIntegrator13CalcTestShapeERKNS_13FiniteElementERNS_21ElementTransformationERNS_11DenseMatrixE
FNDA:0,_ZN4mfem21MixedVectorIntegrator14CalcTrialShapeERKNS_13FiniteElementERNS_21ElementTransformationERNS_11DenseMatrixE
FNDA:0,_ZN4mfem21MixedVectorIntegrator19GetIntegrationOrderERKNS_13FiniteElementES3_RNS_21ElementTransformationE
FNDA:0,_ZN4mfem21MixedVectorIntegrator21AssembleElementMatrixERKNS_13FiniteElementERNS_21ElementTransformationERNS_11DenseMatrixE
FNDA:0,_ZN4mfem21MixedVectorIntegratorC2ERNS_11CoefficientE
FNDA:0,_ZN4mfem21MixedVectorIntegratorC2ERNS_17MatrixCoefficientE
FNDA:0,_ZN4mfem21MixedVectorIntegratorC2ERNS_17VectorCoefficientEb
FNDA:0,_ZN4mfem21MixedVectorIntegratorC2Ev
FNDA:0,_ZN4mfem22BilinearFormIntegrator16AssembleFaceGradERKNS_13FiniteElementES3_RNS_26FaceElementTransformationsERKNS_6VectorERNS_11DenseMatrixE
FNDA:0,_ZN4mfem22BilinearFormIntegrator17ComputeFluxEnergyERKNS_13FiniteElementERNS_21ElementTransformationERNS_6VectorEPS6_
FNDA:0,_ZN4mfem22BilinearFormIntegrator18ComputeElementFluxERKNS_13FiniteElementERNS_21ElementTransformationERNS_6VectorES3_S7_bPKNS_15IntegrationRuleE
FNDA:0,_ZN4mfem22BilinearFormIntegrator19AssembleElementGradERKNS_13FiniteElementERNS_21ElementTransformationERKNS_6VectorERNS_11DenseMatrixE
FNDA:0,_ZN4mfem22DivergenceInterpolator22AssembleElementMatrix2ERKNS_13FiniteElementES3_RNS_21ElementTransformationERNS_11DenseMatrixE
FNDA:0,_ZN4mfem22MixedDivGradIntegrator10CalcVShapeERKNS_13FiniteElementERNS_21ElementTransformationERNS_11DenseMatrixE
FNDA:0,_ZN4mfem22MixedDivGradIntegrator7GetVDimERKNS_13FiniteElementE
FNDA:0,_ZN4mfem22MixedDivGradIntegrator9CalcShapeERKNS_13FiniteElementERNS_21ElementTransformationERNS_6VectorE
FNDA:0,_ZN4mfem22MixedGradDivIntegrator10CalcVShapeERKNS_13FiniteElementERNS_21ElementTransformationERNS_11DenseMatrixE
FNDA:0,_ZN4mfem22MixedGradDivIntegrator7GetVDimERKNS_13FiniteElementE
FNDA:0,_ZN4mfem22MixedGradDivIntegrator9CalcShapeERKNS_13FiniteElementERNS_21ElementTransformationERNS_6VectorE
FNDA:0,_ZN4mfem22VectorFECurlIntegrator21AssembleElementMatrixERKNS_13FiniteElementERNS_21ElementTransformationERNS_11DenseMatrixE
FNDA:0,_ZN4mfem22VectorFEMassIntegratorC2ERNS_11CoefficientE
FNDA:0,_ZN4mfem22VectorFEMassIntegratorC2ERNS_17MatrixCoefficientE
FNDA:0,_ZN4mfem22VectorFEMassIntegratorC2ERNS_17VectorCoefficientE
FNDA:0,_ZN4mfem22VectorFEMassIntegratorC2Ev
FNDA:0,_ZN4mfem23MixedCurlCurlIntegrator11GetTestVDimERKNS_13FiniteElementE
FNDA:0,_ZN4mfem23MixedCurlCurlIntegrator12GetTrialVDimERKNS_13FiniteElementE
FNDA:0,_ZN4mfem23MixedCurlCurlIntegrator13CalcTestShapeERKNS_13FiniteElementERNS_21ElementTransformationERNS_11DenseMatrixE
FNDA:0,_ZN4mfem23MixedCurlCurlIntegrator14CalcTrialShapeERKNS_13FiniteElementERNS_21ElementTransformationERNS_11DenseMatrixE
FNDA:0,_ZN4mfem23MixedGradGradIntegrator11GetTestVDimERKNS_13FiniteElementE
FNDA:0,_ZN4mfem23MixedGradGradIntegrator12GetTrialVDimERKNS_13FiniteElementE
FNDA:0,_ZN4mfem23MixedGradGradIntegrator13CalcTestShapeERKNS_13FiniteElementERNS_21ElementTransformationERNS_11DenseMatrixE
FNDA:0,_ZN4mfem23MixedGradGradIntegrator14CalcTrialShapeERKNS_13FiniteElementERNS_21ElementTransformationERNS_11DenseMatrixE
FNDA:0,_ZN4mfem23MixedGradGradIntegrator19GetIntegrationOrderERKNS_13FiniteElementES3_RNS_21ElementTransformationE
FNDA:0,_ZN4mfem24MixedCrossCurlIntegrator12GetTrialVDimERKNS_13FiniteElementE
FNDA:0,_ZN4mfem24MixedCrossCurlIntegrator14CalcTrialShapeERKNS_13FiniteElementERNS_21ElementTransformationERNS_11DenseMatrixE
FNDA:0,_ZN4mfem24MixedCrossGradIntegrator12GetTrialVDimERKNS_13FiniteElementE
FNDA:0,_ZN4mfem24MixedCrossGradIntegrator13CalcTestShapeERKNS_13FiniteElementERNS_21ElementTransformationERNS_11DenseMatrixE
FNDA:0,_ZN4mfem24MixedCrossGradIntegrator14CalcTrialShapeERKNS_13FiniteElementERNS_21ElementTransformationERNS_11DenseMatrixE
FNDA:0,_ZN4mfem25VectorDiffusionIntegratorC2Ev
FNDA:0,_ZN4mfem26MixedWeakGradDotIntegrator19GetIntegrationOrderERKNS_13FiniteElementES3_RNS_21ElementTransformationE
FNDA:0,_ZN4mfem26MixedWeakGradDotIntegrator9CalcShapeERKNS_13FiniteElementERNS_21ElementTransformationERNS_6VectorE
FNDA:0,_ZN4mfem26VectorDivergenceIntegratorC2Ev
FNDA:0,_ZN4mfem27MixedScalarVectorIntegrator10CalcVShapeERKNS_13FiniteElementERNS_21ElementTransformationERNS_11DenseMatrixE
FNDA:0,_ZN4mfem27MixedScalarVectorIntegrator19GetIntegrationOrderERKNS_13FiniteElementES3_RNS_21ElementTransformationE
FNDA:0,_ZN4mfem27MixedScalarVectorIntegrator21AssembleElementMatrixERKNS_13FiniteElementERNS_21ElementTransformationERNS_11DenseMatrixE
FNDA:0,_ZN4mfem27MixedScalarVectorIntegrator7GetVDimERKNS_13FiniteElementE
FNDA:0,_ZN4mfem27MixedScalarVectorIntegrator9CalcShapeERKNS_13FiniteElementERNS_21ElementTransformationERNS_6VectorE
FNDA:0,_ZN4mfem27MixedScalarVectorIntegratorC2ERNS_17VectorCoefficientEbb
FNDA:0,_ZN4mfem27MixedWeakDivCrossIntegrator11GetTestVDimERKNS_13FiniteElementE
FNDA:0,_ZN4mfem27MixedWeakDivCrossIntegrator13CalcTestShapeERKNS_13FiniteElementERNS_21ElementTransformationERNS_11DenseMatrixE
FNDA:0,_ZN4mfem28MixedCrossCurlCurlIntegrator11GetTestVDimERKNS_13FiniteElementE
FNDA:0,_ZN4mfem28MixedCrossCurlCurlIntegrator12GetTrialVDimERKNS_13FiniteElementE
FNDA:0,_ZN4mfem28MixedCrossCurlCurlIntegrator13CalcTestShapeERKNS_13FiniteElementERNS_21ElementTransformationERNS_11DenseMatrixE
FNDA:0,_ZN4mfem28MixedCrossCurlCurlIntegrator14CalcTrialShapeERKNS_13FiniteElementERNS_21ElementTransformationERNS_11DenseMatrixE
FNDA:0,_ZN4mfem28MixedCrossCurlGradIntegrator11GetTestVDimERKNS_13FiniteElementE
FNDA:0,_ZN4mfem28MixedCrossCurlGradIntegrator12GetTrialVDimERKNS_13FiniteElementE
FNDA:0,_ZN4mfem28MixedCrossCurlGradIntegrator13CalcTestShapeERKNS_13FiniteElementERNS_21ElementTransformationERNS_11DenseMatrixE
FNDA:0,_ZN4mfem28MixedCrossCurlGradIntegrator14CalcTrialShapeERKNS_13FiniteElementERNS_21ElementTransformationERNS_11DenseMatrixE
FNDA:0,_ZN4mfem28MixedCrossGradCurlIntegrator11GetTestVDimERKNS_13FiniteElementE
FNDA:0,_ZN4mfem28MixedCrossGradCurlIntegrator12GetTrialVDimERKNS_13FiniteElementE
FNDA:0,_ZN4mfem28MixedCrossGradCurlIntegrator13CalcTestShapeERKNS_13FiniteElementERNS_21ElementTransformationERNS_11DenseMatrixE
FNDA:0,_ZN4mfem28MixedCrossGradCurlIntegrator14CalcTrialShapeERKNS_13FiniteElementERNS_21ElementTransformationERNS_11DenseMatrixE
FNDA:0,_ZN4mfem28MixedCrossGradGradIntegrator11GetTestVDimERKNS_13FiniteElementE
FNDA:0,_ZN4mfem28MixedCrossGradGradIntegrator12GetTrialVDimERKNS_13FiniteElementE
FNDA:0,_ZN4mfem28MixedCrossGradGradIntegrator13CalcTestShapeERKNS_13FiniteElementERNS_21ElementTransformationERNS_11DenseMatrixE
FNDA:0,_ZN4mfem28MixedCrossGradGradIntegrator14CalcTrialShapeERKNS_13FiniteElementERNS_21ElementTransformationERNS_11DenseMatrixE
FNDA:0,_ZN4mfem28MixedWeakCurlCrossIntegrator11GetTestVDimERKNS_13FiniteElementE
FNDA:0,_ZN4mfem28MixedWeakCurlCrossIntegrator13CalcTestShapeERKNS_13FiniteElementERNS_21ElementTransformationERNS_11DenseMatrixE
FNDA:0,_ZN4mfem28VectorFEDivergenceIntegrator21AssembleElementMatrixERKNS_13FiniteElementERNS_21ElementTransformationERNS_11DenseMatrixE
FNDA:0,_ZN4mfem29MixedScalarWeakCurlIntegrator13CalcTestShapeERKNS_13FiniteElementERNS_21ElementTransformationERNS_6VectorE
FNDA:0,_ZN4mfem29MixedVectorGradientIntegratorC2ERNS_11CoefficientE
FNDA:0,_ZN4mfem29MixedVectorGradientIntegratorC2ERNS_17MatrixCoefficientE
FNDA:0,_ZN4mfem29MixedVectorGradientIntegratorC2ERNS_17VectorCoefficientE
FNDA:0,_ZN4mfem29MixedVectorGradientIntegratorC2Ev
FNDA:0,_ZN4mfem30MixedScalarCrossCurlIntegrator9CalcShapeERKNS_13FiniteElementERNS_21ElementTransformationERNS_6VectorE
FNDA:0,_ZN4mfem30MixedScalarCrossGradIntegrator10CalcVShapeERKNS_13FiniteElementERNS_21ElementTransformationERNS_11DenseMatrixE
FNDA:0,_ZN4mfem30MixedScalarCrossGradIntegrator7GetVDimERKNS_13FiniteElementE
FNDA:0,_ZN4mfem31MixedScalarDerivativeIntegrator14CalcTrialShapeERKNS_13FiniteElementERNS_21ElementTransformationERNS_6VectorE
FNDA:0,_ZN4mfem31MixedScalarDivergenceIntegrator14CalcTrialShapeERKNS_13FiniteElementERNS_21ElementTransformationERNS_6VectorE
FNDA:0,_ZN4mfem31MixedScalarDivergenceIntegrator19GetIntegrationOrderERKNS_13FiniteElementES3_RNS_21ElementTransformationE
FNDA:0,_ZN4mfem31MixedVectorDivergenceIntegrator19GetIntegrationOrderERKNS_13FiniteElementES3_RNS_21ElementTransformationE
FNDA:0,_ZN4mfem31MixedVectorDivergenceIntegrator9CalcShapeERKNS_13FiniteElementERNS_21ElementTransformationERNS_6VectorE
FNDA:0,_ZN4mfem32VectorFEWeakDivergenceIntegrator21AssembleElementMatrixERKNS_13FiniteElementERNS_21ElementTransformationERNS_11DenseMatrixE
FNDA:0,_ZN4mfem33MixedScalarWeakGradientIntegrator13CalcTestShapeERKNS_13FiniteElementERNS_21ElementTransformationERNS_6VectorE
FNDA:0,_ZN4mfem33MixedScalarWeakGradientIntegrator19GetIntegrationOrderERKNS_13FiniteElementES3_RNS_21ElementTransformationE
FNDA:0,_ZN4mfem34MixedScalarWeakCurlCrossIntegrator9CalcShapeERKNS_13FiniteElementERNS_21ElementTransformationERNS_6VectorE
FNDA:0,_ZN4mfem35MixedScalarWeakDerivativeIntegrator13CalcTestShapeERKNS_13FiniteElementERNS_21ElementTransformationERNS_6VectorE
FNDA:0,_ZN4mfem35MixedScalarWeakDivergenceIntegrator10CalcVShapeERKNS_13FiniteElementERNS_21ElementTransformationERNS_11DenseMatrixE
FNDA:0,_ZN4mfem35MixedScalarWeakDivergenceIntegrator7GetVDimERKNS_13FiniteElementE
FNDA:0,_ZN4mfem35MixedVectorWeakDivergenceIntegrator11GetTestVDimERKNS_13FiniteElementE
FNDA:0,_ZN4mfem35MixedVectorWeakDivergenceIntegrator13CalcTestShapeERKNS_13FiniteElementERNS_21ElementTransformationERNS_11DenseMatrixE
FNDA:0,_ZN4mfem36MixedDirectionalDerivativeIntegrator10CalcVShapeERKNS_13FiniteElementERNS_21ElementTransformationERNS_11DenseMatrixE
FNDA:0,_ZN4mfem36MixedDirectionalDerivativeIntegrator7GetVDimERKNS_13FiniteElementE
FNDA:0,_ZN4mfem37MixedScalarWeakCrossProductIntegrator9CalcShapeERKNS_13FiniteElementERNS_21ElementTransformationERNS_6VectorE
FNDA:0,_ZNK4mfem21MixedScalarIntegrator24VerifyFiniteElementTypesERKNS_13FiniteElementES3_
FNDA:0,_ZNK4mfem21MixedScalarIntegrator31FiniteElementTypeFailureMessageEv
FNDA:0,_ZNK4mfem21MixedVectorIntegrator24VerifyFiniteElementTypesERKNS_13FiniteElementES3_
FNDA:0,_ZNK4mfem21MixedVectorIntegrator31FiniteElementTypeFailureMessageEv
FNDA:0,_ZNK4mfem22MixedDivGradIntegrator24VerifyFiniteElementTypesERKNS_13FiniteElementES3_
FNDA:0,_ZNK4mfem22MixedDivGradIntegrator31FiniteElementTypeFailureMessageEv
FNDA:0,_ZNK4mfem22MixedGradDivIntegrator24VerifyFiniteElementTypesERKNS_13FiniteElementES3_
FNDA:0,_ZNK4mfem22MixedGradDivIntegrator31FiniteElementTypeFailureMessageEv
FNDA:0,_ZNK4mfem23MixedCurlCurlIntegrator24VerifyFiniteElementTypesERKNS_13FiniteElementES3_
FNDA:0,_ZNK4mfem23MixedCurlCurlIntegrator31FiniteElementTypeFailureMessageEv
FNDA:0,_ZNK4mfem23MixedGradGradIntegrator24VerifyFiniteElementTypesERKNS_13FiniteElementES3_
FNDA:0,_ZNK4mfem23MixedGradGradIntegrator31FiniteElementTypeFailureMessageEv
FNDA:0,_ZNK4mfem24MixedCrossCurlIntegrator24VerifyFiniteElementTypesERKNS_13FiniteElementES3_
FNDA:0,_ZNK4mfem24MixedCrossCurlIntegrator31FiniteElementTypeFailureMessageEv
FNDA:0,_ZNK4mfem24MixedCrossGradIntegrator24VerifyFiniteElementTypesERKNS_13FiniteElementES3_
FNDA:0,_ZNK4mfem24MixedCrossGradIntegrator31FiniteElementTypeFailureMessageEv
FNDA:0,_ZNK4mfem25MixedDotProductIntegrator24VerifyFiniteElementTypesERKNS_13FiniteElementES3_
FNDA:0,_ZNK4mfem25MixedDotProductIntegrator31FiniteElementTypeFailureMessageEv
FNDA:0,_ZNK4mfem26MixedWeakGradDotIntegrator24VerifyFiniteElementTypesERKNS_13FiniteElementES3_
FNDA:0,_ZNK4mfem26MixedWeakGradDotIntegrator31FiniteElementTypeFailureMessageEv
FNDA:0,_ZNK4mfem27MixedScalarVectorIntegrator24VerifyFiniteElementTypesERKNS_13FiniteElementES3_
FNDA:0,_ZNK4mfem27MixedScalarVectorIntegrator31FiniteElementTypeFailureMessageEv
FNDA:0,_ZNK4mfem27MixedWeakDivCrossIntegrator24VerifyFiniteElementTypesERKNS_13FiniteElementES3_
FNDA:0,_ZNK4mfem27MixedWeakDivCrossIntegrator31FiniteElementTypeFailureMessageEv
FNDA:0,_ZNK4mfem28MixedCrossCurlCurlIntegrator24VerifyFiniteElementTypesERKNS_13FiniteElementES3_
FNDA:0,_ZNK4mfem28MixedCrossCurlCurlIntegrator31FiniteElementTypeFailureMessageEv
FNDA:0,_ZNK4mfem28MixedCrossCurlGradIntegrator24VerifyFiniteElementTypesERKNS_13FiniteElementES3_
FNDA:0,_ZNK4mfem28MixedCrossCurlGradIntegrator31FiniteElementTypeFailureMessageEv
FNDA:0,_ZNK4mfem28MixedCrossGradCurlIntegrator24VerifyFiniteElementTypesERKNS_13FiniteElementES3_
FNDA:0,_ZNK4mfem28MixedCrossGradCurlIntegrator31FiniteElementTypeFailureMessageEv
FNDA:0,_ZNK4mfem28MixedCrossGradGradIntegrator24VerifyFiniteElementTypesERKNS_13FiniteElementES3_
FNDA:0,_ZNK4mfem28MixedCrossGradGradIntegrator31FiniteElementTypeFailureMessageEv
FNDA:0,_ZNK4mfem28MixedWeakCurlCrossIntegrator24VerifyFiniteElementTypesERKNS_13FiniteElementES3_
FNDA:0,_ZNK4mfem28MixedWeakCurlCrossIntegrator31FiniteElementTypeFailureMessageEv
FNDA:0,_ZNK4mfem29MixedScalarWeakCurlIntegrator24VerifyFiniteElementTypesERKNS_13FiniteElementES3_
FNDA:0,_ZNK4mfem29MixedScalarWeakCurlIntegrator31FiniteElementTypeFailureMessageEv
FNDA:0,_ZNK4mfem30MixedScalarCrossCurlIntegrator24VerifyFiniteElementTypesERKNS_13FiniteElementES3_
FNDA:0,_ZNK4mfem30MixedScalarCrossCurlIntegrator31FiniteElementTypeFailureMessageEv
FNDA:0,_ZNK4mfem30MixedScalarCrossGradIntegrator24VerifyFiniteElementTypesERKNS_13FiniteElementES3_
FNDA:0,_ZNK4mfem30MixedScalarCrossGradIntegrator31FiniteElementTypeFailureMessageEv
FNDA:0,_ZNK4mfem31MixedScalarDerivativeIntegrator24VerifyFiniteElementTypesERKNS_13FiniteElementES3_
FNDA:0,_ZNK4mfem31MixedScalarDerivativeIntegrator31FiniteElementTypeFailureMessageEv
FNDA:0,_ZNK4mfem31MixedScalarDivergenceIntegrator24VerifyFiniteElementTypesERKNS_13FiniteElementES3_
FNDA:0,_ZNK4mfem31MixedScalarDivergenceIntegrator31FiniteElementTypeFailureMessageEv
FNDA:0,_ZNK4mfem31MixedVectorDivergenceIntegrator24VerifyFiniteElementTypesERKNS_13FiniteElementES3_
FNDA:0,_ZNK4mfem31MixedVectorDivergenceIntegrator31FiniteElementTypeFailureMessageEv
FNDA:0,_ZNK4mfem33MixedScalarCrossProductIntegrator24VerifyFiniteElementTypesERKNS_13FiniteElementES3_
FNDA:0,_ZNK4mfem33MixedScalarCrossProductIntegrator31FiniteElementTypeFailureMessageEv
FNDA:0,_ZNK4mfem33MixedScalarWeakGradientIntegrator24VerifyFiniteElementTypesERKNS_13FiniteElementES3_
FNDA:0,_ZNK4mfem33MixedScalarWeakGradientIntegrator31FiniteElementTypeFailureMessageEv
FNDA:0,_ZNK4mfem34MixedScalarWeakCurlCrossIntegrator24VerifyFiniteElementTypesERKNS_13FiniteElementES3_
FNDA:0,_ZNK4mfem34MixedScalarWeakCurlCrossIntegrator31FiniteElementTypeFailureMessageEv
FNDA:0,_ZNK4mfem35MixedScalarWeakDerivativeIntegrator24VerifyFiniteElementTypesERKNS_13FiniteElementES3_
FNDA:0,_ZNK4mfem35MixedScalarWeakDerivativeIntegrator31FiniteElementTypeFailureMessageEv
FNDA:0,_ZNK4mfem35MixedScalarWeakDivergenceIntegrator24VerifyFiniteElementTypesERKNS_13FiniteElementES3_
FNDA:0,_ZNK4mfem35MixedScalarWeakDivergenceIntegrator31FiniteElementTypeFailureMessageEv
FNDA:0,_ZNK4mfem35MixedVectorWeakDivergenceIntegrator24VerifyFiniteElementTypesERKNS_13FiniteElementES3_
FNDA:0,_ZNK4mfem35MixedVectorWeakDivergenceIntegrator31FiniteElementTypeFailureMessageEv
FNDA:0,_ZNK4mfem36MixedDirectionalDerivativeIntegrator24VerifyFiniteElementTypesERKNS_13FiniteElementES3_
FNDA:0,_ZNK4mfem36MixedDirectionalDerivativeIntegrator31FiniteElementTypeFailureMessageEv
FNDA:0,_ZNK4mfem37MixedScalarWeakCrossProductIntegrator24VerifyFiniteElementTypesERKNS_13FiniteElementES3_
FNDA:0,_ZNK4mfem37MixedScalarWeakCrossProductIntegrator31FiniteElementTypeFailureMessageEv
FNF:179
FNH:0
DA:38,0
DA:39,0
DA:178,0
DA:181,0
DA:183,0
DA:187,0
DA:223,0
DA:228,0
DA:249,0
DA:252,0
DA:254,0
DA:268,0
DA:269,0
DA:378,0
DA:382,0
DA:383,0
DA:453,0
DA:456,0
DA:464,0
DA:465,0
DA:467,0
DA:471,0
DA:472,0
DA:475,0
DA:477,0
DA:478,0
DA:481,0
DA:484,0
DA:487,0
DA:490,0
DA:492,0
DA:495,0
DA:520,0
DA:523,0
DA:531,0
DA:532,0
DA:533,0
DA:534,0
DA:535,0
DA:536,0
DA:537,0
DA:538,0
DA:539,0
DA:541,0
DA:545,0
DA:546,0
DA:549,0
DA:551,0
DA:552,0
DA:555,0
DA:558,0
DA:561,0
DA:562,0
DA:564,0
DA:567,0
DA:569,0
DA:570,0
DA:572,0
DA:575,0
DA:613,0
DA:616,0
DA:620,0
DA:622,0
DA:624,0
DA:628,0
DA:629,0
DA:630,0
DA:631,0
DA:632,0
DA:633,0
DA:634,0
DA:637,0
DA:639,0
DA:647,0
DA:649,0
DA:653,0
DA:656,0
DA:659,0
DA:660,0
DA:662,0
DA:665,0
DA:667,0
DA:670,0
DA:694,0
DA:695,0
DA:696,0
DA:705,0
DA:706,0
DA:714,0
DA:715,0
DA:716,0
DA:719,0
DA:723,0
DA:724,0
DA:725,0
DA:728,0
DA:730,0
DA:732,0
DA:735,0
DA:739,0
DA:740,0
DA:741,0
DA:749,0
DA:750,0
DA:751,0
DA:754,0
DA:758,0
DA:759,0
DA:760,0
DA:763,0
DA:765,0
DA:768,0
DA:771,0
DA:775,0
DA:776,0
DA:777,0
DA:778,0
DA:787,0
DA:788,0
DA:789,0
DA:792,0
DA:796,0
DA:797,0
DA:800,0
DA:802,0
DA:804,0
DA:807,0
DA:810,0
DA:812,0
DA:815,0
DA:824,0
DA:825,0
DA:828,0
DA:832,0
DA:833,0
DA:836,0
DA:838,0
DA:840,0
DA:845,0
DA:848,0
DA:850,0
DA:853,0
DA:862,0
DA:863,0
DA:864,0
DA:867,0
DA:871,0
DA:872,0
DA:875,0
DA:877,0
DA:879,0
DA:882,0
DA:885,0
DA:887,0
DA:891,0
DA:892,0
DA:893,0
DA:902,0
DA:903,0
DA:904,0
DA:958,0
DA:959,0
DA:960,0
DA:963,0
DA:967,0
DA:968,0
DA:969,0
DA:972,0
DA:974,0
DA:976,0
DA:979,0
DA:983,0
DA:984,0
DA:985,0
DA:994,0
DA:995,0
DA:996,0
DA:997,0
DA:998,0
DA:999,0
DA:1000,0
DA:1008,0
DA:1009,0
DA:1018,0
DA:1019,0
DA:1021,0
DA:1025,0
DA:1026,0
DA:1029,0
DA:1031,0
DA:1033,0
DA:1043,0
DA:1044,0
DA:1046,0
DA:1050,0
DA:1051,0
DA:1052,0
DA:1055,0
DA:1057,0
DA:1059,0
DA:1064,0
DA:1067,0
DA:1069,0
DA:1072,0
DA:1080,0
DA:1081,0
DA:1083,0
DA:1087,0
DA:1088,0
DA:1089,0
DA:1090,0
DA:1093,0
DA:1095,0
DA:1097,0
DA:1100,0
DA:1101,0
DA:1103,0
DA:1106,0
DA:1115,0
DA:1116,0
DA:1117,0
DA:1118,0
DA:1119,0
DA:1120,0
DA:1121,0
DA:1123,0
DA:1127,0
DA:1128,0
DA:1129,0
DA:1130,0
DA:1133,0
DA:1135,0
DA:1137,0
DA:1140,0
DA:1145,0
DA:1146,0
DA:1147,0
DA:1150,0
DA:1151,0
DA:1153,0
DA:1156,0
DA:1158,0
DA:1159,0
DA:1161,0
DA:1164,0
DA:1172,0
DA:1173,0
DA:1175,0
DA:1179,0
DA:1180,0
DA:1181,0
DA:1182,0
DA:1185,0
DA:1187,0
DA:1189,0
DA:1192,0
DA:1193,0
DA:1195,0
DA:1198,0
DA:1200,0
DA:1201,0
DA:1203,0
DA:1206,0
DA:1215,0
DA:1216,0
DA:1217,0
DA:1218,0
DA:1219,0
DA:1220,0
DA:1221,0
DA:1223,0
DA:1227,0
DA:1228,0
DA:1229,0
DA:1230,0
DA:1231,0
DA:1234,0
DA:1236,0
DA:1238,0
DA:1241,0
DA:1242,0
DA:1244,0
DA:1247,0
DA:1249,0
DA:1250,0
DA:1252,0
DA:1255,0
DA:1263,0
DA:1264,0
DA:1266,0
DA:1270,0
DA:1271,0
DA:1272,0
DA:1273,0
DA:1274,0
DA:1275,0
DA:1278,0
DA:1280,0
DA:1282,0
DA:1285,0
DA:1286,0
DA:1288,0
DA:1291,0
DA:1293,0
DA:1294,0
DA:1296,0
DA:1299,0
DA:1307,0
DA:1308,0
DA:1310,0
DA:1314,0
DA:1315,0
DA:1316,0
DA:1317,0
DA:1318,0
DA:1321,0
DA:1323,0
DA:1325,0
DA:1328,0
DA:1329,0
DA:1331,0
DA:1334,0
DA:1336,0
DA:1337,0
DA:1339,0
DA:1342,0
DA:1350,0
DA:1351,0
DA:1353,0
DA:1357,0
DA:1358,0
DA:1359,0
DA:1360,0
DA:1361,0
DA:1364,0
DA:1366,0
DA:1368,0
DA:1371,0
DA:1372,0
DA:1374,0
DA:1377,0
DA:1379,0
DA:1380,0
DA:1382,0
DA:1385,0
DA:1394,0
DA:1395,0
DA:1397,0
DA:1401,0
DA:1402,0
DA:1403,0
DA:1404,0
DA:1407,0
DA:1409,0
DA:1411,0
DA:1414,0
DA:1415,0
DA:1417,0
DA:1420,0
DA:1429,0
DA:1430,0
DA:1432,0
DA:1436,0
DA:1437,0
DA:1438,0
DA:1439,0
DA:1442,0
DA:1444,0
DA:1446,0
DA:1449,0
DA:1453,0
DA:1454,0
DA:1455,0
DA:1464,0
DA:1465,0
DA:1467,0
DA:1471,0
DA:1472,0
DA:1473,0
DA:1474,0
DA:1477,0
DA:1479,0
DA:1481,0
DA:1484,0
DA:1485,0
DA:1487,0
DA:1490,0
DA:1492,0
DA:1495,0
DA:1504,0
DA:1505,0
DA:1507,0
DA:1511,0
DA:1512,0
DA:1513,0
DA:1514,0
DA:1517,0
DA:1519,0
DA:1521,0
DA:1524,0
DA:1525,0
DA:1527,0
DA:1530,0
DA:1539,0
DA:1540,0
DA:1542,0
DA:1546,0
DA:1547,0
DA:1548,0
DA:1549,0
DA:1552,0
DA:1554,0
DA:1556,0
DA:1559,0
DA:1563,0
DA:1564,0
DA:1565,0
DA:1573,0
DA:1574,0
DA:1576,0
DA:1580,0
DA:1581,0
DA:1582,0
DA:1583,0
DA:1586,0
DA:1588,0
DA:1590,0
DA:1593,0
DA:1594,0
DA:1596,0
DA:1599,0
DA:1607,0
DA:1608,0
DA:1610,0
DA:1614,0
DA:1615,0
DA:1616,0
DA:1619,0
DA:1621,0
DA:1623,0
DA:1632,0
DA:1633,0
DA:1635,0
DA:1639,0
DA:1640,0
DA:1641,0
DA:1644,0
DA:1646,0
DA:1648,0
DA:1651,0
DA:1654,0
DA:1662,0
DA:1663,0
DA:1665,0
DA:1669,0
DA:1670,0
DA:1671,0
DA:1674,0
DA:1676,0
DA:1678,0
DA:1681,0
DA:1682,0
DA:1684,0
DA:1687,0
DA:1695,0
DA:1696,0
DA:1698,0
DA:1702,0
DA:1703,0
DA:1704,0
DA:1705,0
DA:1708,0
DA:1710,0
DA:1712,0
DA:1715,0
DA:1716,0
DA:1718,0
DA:1721,0
DA:1723,0
DA:1726,0
DA:1734,0
DA:1735,0
DA:1737,0
DA:1741,0
DA:1742,0
DA:1743,0
DA:1744,0
DA:1745,0
DA:1748,0
DA:1750,0
DA:1752,0
DA:1755,0
DA:1756,0
DA:1758,0
DA:1761,0
DA:1763,0
DA:1766,0
DA:1774,0
DA:1775,0
DA:1777,0
DA:1781,0
DA:1782,0
DA:1783,0
DA:1786,0
DA:1788,0
DA:1790,0
DA:1793,0
DA:1794,0
DA:1796,0
DA:1799,0
DA:1811,0
DA:1812,0
DA:1813,0
DA:1814,0
DA:1815,0
DA:1816,0
DA:1817,0
DA:1869,0
DA:1870,0
DA:1871,0
DA:1872,0
DA:1873,0
DA:1874,0
DA:1875,0
DA:1928,0
DA:1929,0
DA:1930,0
DA:1931,0
DA:1932,0
DA:1933,0
DA:1934,0
DA:1985,0
DA:1986,0
DA:1987,0
DA:1988,0
DA:1989,0
DA:1990,0
DA:1991,0
DA:1994,0
DA:1998,0
DA:1999,0
DA:2002,0
DA:2004,0
DA:2006,0
DA:2009,0
DA:2010,0
DA:2012,0
DA:2016,0
DA:2017,0
DA:2018,0
DA:2045,0
DA:2046,0
DA:2047,0
DA:2099,0
DA:2100,0
DA:2101,0
DA:2104,0
DA:2105,0
DA:2106,0
DA:2109,0
DA:2111,0
DA:2112,0
DA:2115,0
DA:2117,0
DA:2118,0
DA:2191,0
DA:2192,0
DA:2195,0
DA:2196,0
DA:2269,0
DA:2270,0
DA:2359,0
DA:2360,0
DA:2430,0
DA:2431,0
DA:2432,0
DA:2434,0
DA:2462,0
DA:2464,0
DA:2488,0
DA:2490,0
DA:2510,0
DA:2513,0
DA:2546,0
DA:2548,0
DA:2549,0
DA:2550,0
DA:2551,0
DA:2552,0
DA:2553,0
DA:2554,0
DA:2631,0
DA:2633,0
DA:2648,0
DA:2649,0
DA:2676,0
DA:2678,0
DA:2680,0
DA:2682,0
DA:2724,0
DA:2725,0
DA:2726,0
DA:2775,0
DA:2776,0
DA:2777,0
DA:2824,0
DA:2997,0
DA:2998,0
DA:3000,0
DA:3002,0
DA:3306,0
DA:3315,0
DA:3351,0
DA:3383,0
DA:3386,0
DA:3390,0
DA:3402,0
DA:3405,0
DA:3409,0
DA:3431,0
DA:3448,0
DA:3449,0
DA:3465,0
DA:3466,0
DA:3481,0
DA:3482,0
DA:3498,0
DA:3499,0
DA:3515,0
LF:629
LH:0
end_of_record
TN:
SF:/root/mfem/fem/ceed/interface/operator.hpp
FN:45,_ZN4mfem4ceed8OperatorD0Ev
FN:45,_ZN4mfem4ceed8OperatorD2Ev
FNDA:0,_ZN4mfem4ceed8OperatorD0Ev
FNDA:0,_ZN4mfem4ceed8OperatorD2Ev
FNF:2
FNH:0
DA:45,0
DA:46,0
DA:52,0
LF:3
LH:0
end_of_record
TN:
SF:/root/mfem/fem/coefficient.hpp
FN:111,_ZN4mfem18PWConstCoefficientC2Ei
FN:193,_ZN4mfem13PWCoefficientC2ERKNS_5ArrayIiEERKNS1_IPNS_11CoefficientEEE
FN:421,_ZN4mfem16DeltaCoefficientD0Ev
FN:421,_ZN4mfem16DeltaCoefficientD2Ev
FN:459,_ZN4mfem17VectorCoefficient7SetTimeEd
FN:513,_ZN4mfem25VectorConstantCoefficient4EvalERNS_6VectorERNS_21ElementTransformationERKNS_16IntegrationPointE
FN:578,_ZN4mfem19PWVectorCoefficientC2EiRKNS_5ArrayIiEERKNS1_IPNS_17VectorCoefficientEEE
FN:637,_ZN4mfem25VectorFunctionCoefficientD0Ev
FN:637,_ZN4mfem25VectorFunctionCoefficientD2Ev
FN:721,_ZN4mfem29VectorGridFunctionCoefficientD0Ev
FN:721,_ZN4mfem29VectorGridFunctionCoefficientD2Ev
FN:752,_ZN4mfem31GradientGridFunctionCoefficientD0Ev
FN:752,_ZN4mfem31GradientGridFunctionCoefficientD2Ev
FN:777,_ZN4mfem27CurlGridFunctionCoefficientD0Ev
FN:777,_ZN4mfem27CurlGridFunctionCoefficientD2Ev
FN:801,_ZN4mfem33DivergenceGridFunctionCoefficientD0Ev
FN:801,_ZN4mfem33DivergenceGridFunctionCoefficientD2Ev
FN:870,_ZN4mfem22VectorDeltaCoefficientD0Ev
FN:870,_ZN4mfem22VectorDeltaCoefficientD2Ev
FN:923,_ZN4mfem17MatrixCoefficient7SetTimeEd
FN:963,_ZN4mfem17MatrixCoefficient13EvalSymmetricERNS_6VectorERNS_21ElementTransformationERKNS_16IntegrationPointE
FN:982,_ZN4mfem25MatrixConstantCoefficient4EvalERNS_11DenseMatrixERNS_21ElementTransformationERKNS_16IntegrationPointE
FN:1053,_ZN4mfem19PWMatrixCoefficientC2EiRKNS_5ArrayIiEERKNS1_IPNS_17MatrixCoefficientEEEb
FN:1113,_ZN4mfem25MatrixFunctionCoefficientC2EiSt8functionIFvRKNS_6VectorERNS_11DenseMatrixEEEPNS_11CoefficientE
FN:1160,_ZN4mfem25MatrixFunctionCoefficientD0Ev
FN:1160,_ZN4mfem25MatrixFunctionCoefficientD2Ev
FN:1352,_ZN4mfem34SymmetricMatrixConstantCoefficient4EvalERNS_20DenseSymmetricMatrixERNS_21ElementTransformationERKNS_16IntegrationPointE
FN:1374,_ZN4mfem34SymmetricMatrixFunctionCoefficientC2EiSt8functionIFvRKNS_6VectorERNS_20DenseSymmetricMatrixEEEPNS_11CoefficientE
FN:1406,_ZN4mfem34SymmetricMatrixFunctionCoefficientD0Ev
FN:1406,_ZN4mfem34SymmetricMatrixFunctionCoefficientD2Ev
FN:2129,_ZN4mfem35VectorQuadratureFunctionCoefficientD0Ev
FN:2129,_ZN4mfem35VectorQuadratureFunctionCoefficientD2Ev
FN:2150,_ZN4mfem29QuadratureFunctionCoefficientD0Ev
FN:2150,_ZN4mfem29QuadratureFunctionCoefficientD2Ev
FNDA:0,_ZN4mfem13PWCoefficientC2ERKNS_5ArrayIiEERKNS1_IPNS_11CoefficientEEE
FNDA:0,_ZN4mfem16DeltaCoefficientD0Ev
FNDA:0,_ZN4mfem16DeltaCoefficientD2Ev
FNDA:0,_ZN4mfem17MatrixCoefficient13EvalSymmetricERNS_6VectorERNS_21ElementTransformationERKNS_16IntegrationPointE
FNDA:0,_ZN4mfem17MatrixCoefficient7SetTimeEd
FNDA:0,_ZN4mfem17VectorCoefficient7SetTimeEd
FNDA:0,_ZN4mfem18PWConstCoefficientC2Ei
FNDA:0,_ZN4mfem19PWMatrixCoefficientC2EiRKNS_5ArrayIiEERKNS1_IPNS_17MatrixCoefficientEEEb
FNDA:0,_ZN4mfem19PWVectorCoefficientC2EiRKNS_5ArrayIiEERKNS1_IPNS_17VectorCoefficientEEE
FNDA:0,_ZN4mfem22VectorDeltaCoefficientD0Ev
FNDA:0,_ZN4mfem22VectorDeltaCoefficientD2Ev
FNDA:0,_ZN4mfem25MatrixConstantCoefficient4EvalERNS_11DenseMatrixERNS_21ElementTransformationERKNS_16IntegrationPointE
FNDA:0,_ZN4mfem25MatrixFunctionCoefficientC2EiSt8functionIFvRKNS_6VectorERNS_11DenseMatrixEEEPNS_11CoefficientE
FNDA:0,_ZN4mfem25MatrixFunctionCoefficientD0Ev
FNDA:0,_ZN4mfem25MatrixFunctionCoefficientD2Ev
FNDA:0,_ZN4mfem25VectorConstantCoefficient4EvalERNS_6VectorERNS_21ElementTransformationERKNS_16IntegrationPointE
FNDA:0,_ZN4mfem25VectorFunctionCoefficientD0Ev
FNDA:0,_ZN4mfem27CurlGridFunctionCoefficientD0Ev
FNDA:0,_ZN4mfem27CurlGridFunctionCoefficientD2Ev
FNDA:0,_ZN4mfem29QuadratureFunctionCoefficientD0Ev
FNDA:0,_ZN4mfem29QuadratureFunctionCoefficientD2Ev
FNDA:0,_ZN4mfem29VectorGridFunctionCoefficientD0Ev
FNDA:0,_ZN4mfem29VectorGridFunctionCoefficientD2Ev
FNDA:0,_ZN4mfem31GradientGridFunctionCoefficientD0Ev
FNDA:0,_ZN4mfem31GradientGridFunctionCoefficientD2Ev
FNDA:0,_ZN4mfem33DivergenceGridFunctionCoefficientD0Ev
FNDA:0,_ZN4mfem33DivergenceGridFunctionCoefficientD2Ev
FNDA:0,_ZN4mfem34SymmetricMatrixConstantCoefficient4EvalERNS_20DenseSymmetricMatrixERNS_21ElementTransformationERKNS_16IntegrationPointE
FNDA:0,_ZN4mfem34SymmetricMatrixFunctionCoefficientC2EiSt8functionIFvRKNS_6VectorERNS_20DenseSymmetricMatrixEEEPNS_11CoefficientE
FNDA:0,_ZN4mfem34SymmetricMatrixFunctionCoefficientD0Ev
FNDA:0,_ZN4mfem34SymmetricMatrixFunctionCoefficientD2Ev
FNDA:0,_ZN4mfem35VectorQuadratureFunctionCoefficientD0Ev
FNDA:0,_ZN4mfem35VectorQuadratureFunctionCoefficientD2Ev
FNDA:128,_ZN4mfem25VectorFunctionCoefficientD2Ev
FNF:34
FNH:1
DA:47,64
DA:79,0
DA:84,0
DA:90,0
DA:103,0
DA:111,0
DA:112,0
DA:124,0
DA:153,0
DA:182,0
DA:193,0
DA:195,0
DA:201,0
DA:203,0
DA:206,0
DA:207,0
DA:210,0
DA:211,0
DA:228,64
DA:229,64
DA:264,0
DA:274,0
DA:275,0
DA:421,0
DA:456,128
DA:459,0
DA:497,128
DA:502,0
DA:508,0
DA:509,0
DA:513,0
DA:514,0
DA:537,0
DA:566,0
DA:578,0
DA:580,0
DA:586,0
DA:588,0
DA:594,0
DA:595,0
DA:616,128
DA:619,128
DA:637,128
DA:721,0
DA:752,0
DA:777,0
DA:801,0
DA:870,0
DA:915,0
DA:916,0
DA:919,0
DA:920,0
DA:923,0
DA:963,0
DA:965,0
DA:967,0
DA:972,0
DA:978,0
DA:979,0
DA:982,0
DA:983,0
DA:1006,0
DA:1035,0
DA:1036,0
DA:1053,0
DA:1056,0
DA:1079,0
DA:1081,0
DA:1087,0
DA:1088,0
DA:1113,0
DA:1116,0
DA:1117,0
DA:1160,0
DA:1299,0
DA:1300,0
DA:1336,0
DA:1352,0
DA:1353,0
DA:1374,0
DA:1377,0
DA:1378,0
DA:1406,0
DA:1412,0
DA:1421,0
DA:1422,0
DA:1425,0
DA:1426,0
DA:1543,0
DA:1713,0
DA:1817,0
DA:1914,0
DA:1944,0
DA:1982,0
DA:2129,0
DA:2150,0
LF:96
LH:8
end_of_record
TN:
SF:/root/mfem/fem/complex_fem.hpp
FN:38,_ZN4mfem19ComplexGridFunction7DestroyEv
FN:83,_ZN4mfem19ComplexGridFunctionD0Ev
FN:83,_ZN4mfem19ComplexGridFunctionD2Ev
FN:349,_ZN4mfem22ParComplexGridFunction7DestroyEv
FN:424,_ZN4mfem22ParComplexGridFunctionD0Ev
FN:424,_ZN4mfem22ParComplexGridFunctionD2Ev
FNDA:0,_ZN4mfem19ComplexGridFunction7DestroyEv
FNDA:0,_ZN4mfem19ComplexGridFunctionD0Ev
FNDA:0,_ZN4mfem19ComplexGridFunctionD2Ev
FNDA:0,_ZN4mfem22ParComplexGridFunction7DestroyEv
FNDA:0,_ZN4mfem22ParComplexGridFunctionD0Ev
FNDA:0,_ZN4mfem22ParComplexGridFunctionD2Ev
FNF:6
FNH:0
DA:38,0
DA:83,0
DA:349,0
DA:424,0
LF:4
LH:0
end_of_record
TN:
SF:/root/mfem/fem/datacollection.hpp
FN:40,_ZN4mfem14NamedFieldsMapINS_12GridFunctionEE8RegisterERKNSt7__cxx1112basic_stringIcSt11char_traitsIcESaIcEEEPS1_b
FNDA:0,_ZN4mfem14NamedFieldsMapINS_12GridFunctionEE8RegisterERKNSt7__cxx1112basic_stringIcSt11char_traitsIcESaIcEEEPS1_b
FNF:1
FNH:0
DA:40,0
DA:42,0
DA:43,0
DA:45,0
DA:47,0
DA:48,0
DA:80,0
DA:82,0
DA:87,0
DA:89,0
DA:90,0
DA:244,0
DA:245,0
DA:262,0
DA:263,0
DA:267,0
DA:268,0
DA:283,0
DA:284,0
DA:288,0
DA:289,0
DA:304,0
DA:319,0
DA:321,0
DA:327,0
DA:329,0
DA:334,0
DA:344,0
DA:346,0
DA:501,0
DA:506,0
LF:31
LH:0
end_of_record
TN:
SF:/root/mfem/fem/doftrans.hpp
FNF:0
FNH:0
DA:63,128
DA:64,128
DA:68,0
DA:71,0
DA:77,0
DA:78,0
DA:117,0
DA:139,0
DA:149,128
DA:150,128
DA:152,128
DA:155,0
DA:157,0
DA:159,0
DA:210,0
DA:252,0
LF:16
LH:5
end_of_record
TN:
SF:/root/mfem/fem/eltrans.hpp
FN:180,_ZN4mfem21ElementTransformationD0Ev
FN:180,_ZN4mfem21ElementTransformationD2Ev
FN:378,_ZN4mfem27IsoparametricTransformationC2Ev
FN:450,_ZN4mfem27IsoparametricTransformation13TransformBackERKNS_6VectorERNS_16IntegrationPointE
FN:456,_ZN4mfem27IsoparametricTransformationD0Ev
FN:456,_ZN4mfem27IsoparametricTransformationD2Ev
FN:526,_ZN4mfem26FaceElementTransformationsC2Ev
FNDA:0,_ZN4mfem21ElementTransformationD0Ev
FNDA:0,_ZN4mfem27IsoparametricTransformation13TransformBackERKNS_6VectorERNS_16IntegrationPointE
FNDA:0,_ZN4mfem27IsoparametricTransformationD0Ev
FNDA:64,_ZN4mfem26FaceElementTransformationsC2Ev
FNDA:512,_ZN4mfem21ElementTransformationD2Ev
FNDA:512,_ZN4mfem27IsoparametricTransformationC2Ev
FNDA:512,_ZN4mfem27IsoparametricTransformationD2Ev
FNF:7
FNH:4
DA:93,0
DA:94,0
DA:119,0
DA:120,0
DA:131,0
DA:162,0
DA:180,512
DA:275,0
DA:276,0
DA:286,0
DA:289,0
DA:296,0
DA:314,0
DA:334,0
DA:378,512
DA:381,0
DA:383,0
DA:384,0
DA:385,0
DA:386,0
DA:410,0
DA:450,0
DA:452,0
DA:453,0
DA:456,512
DA:461,128
DA:526,64
LF:27
LH:5
end_of_record
TN:
SF:/root/mfem/fem/estimators.hpp
FN:301,_ZNK4mfem25LSZienkiewiczZhuEstimator13GetTotalErrorEv
FN:304,_ZN4mfem25LSZienkiewiczZhuEstimator14GetLocalErrorsEv
FN:311,_ZN4mfem25LSZienkiewiczZhuEstimator5ResetEv
FN:313,_ZN4mfem25LSZienkiewiczZhuEstimatorD0Ev
FN:313,_ZN4mfem25LSZienkiewiczZhuEstimatorD2Ev
FNDA:0,_ZN4mfem25LSZienkiewiczZhuEstimator14GetLocalErrorsEv
FNDA:0,_ZN4mfem25LSZienkiewiczZhuEstimator5ResetEv
FNDA:0,_ZN4mfem25LSZienkiewiczZhuEstimatorD0Ev
FNDA:0,_ZN4mfem25LSZienkiewiczZhuEstimatorD2Ev
FNDA:0,_ZNK4mfem25LSZienkiewiczZhuEstimator13GetTotalErrorEv
FNF:5
FNH:0
DA:29,0
DA:32,0
DA:41,0
DA:56,0
DA:255,0
DA:257,0
DA:258,0
DA:259,0
DA:271,0
DA:272,0
DA:278,0
DA:301,0
DA:304,0
DA:306,0
DA:307,0
DA:311,0
DA:313,0
DA:606,0
DA:608,0
DA:610,0
DA:611,0
DA:652,0
DA:654,0
DA:656,0
DA:664,0
LF:25
LH:0
end_of_record
TN:
SF:/root/mfem/fem/fe/fe_base.hpp
FN:644,_ZN4mfem19ScalarFiniteElement13CheckScalarFEERKNS_13FiniteElementE
FN:667,_ZN4mfem19ScalarFiniteElement10SetMapTypeEi
FN:720,_ZNK4mfem18NodalFiniteElement21GetLocalInterpolationERNS_21ElementTransformationERNS_11DenseMatrixE
FN:727,_ZNK4mfem18NodalFiniteElement17GetTransferMatrixERKNS_13FiniteElementERNS_21ElementTransformationERNS_11DenseMatrixE
FNDA:0,_ZN4mfem19ScalarFiniteElement13CheckScalarFEERKNS_13FiniteElementE
FNDA:0,_ZNK4mfem18NodalFiniteElement17GetTransferMatrixERKNS_13FiniteElementERNS_21ElementTransformationERNS_11DenseMatrixE
FNDA:0,_ZNK4mfem18NodalFiniteElement21GetLocalInterpolationERNS_21ElementTransformationERNS_11DenseMatrixE
FNDA:168,_ZN4mfem19ScalarFiniteElement10SetMapTypeEi
FNF:4
FNH:1
DA:310,0
DA:313,0
DA:316,0
DA:319,0
DA:322,0
DA:326,0
DA:336,0
DA:339,0
DA:343,0
DA:348,0
DA:353,0
DA:358,0
DA:388,0
DA:641,0
DA:644,0
DA:646,0
DA:647,0
DA:648,0
DA:667,168
DA:669,168
DA:670,168
DA:671,168
DA:672,168
DA:700,0
DA:720,0
DA:722,0
DA:727,0
DA:730,0
DA:775,0
DA:1015,0
LF:30
LH:5
end_of_record
TN:
SF:/root/mfem/fem/fe/fe_fixed_order.hpp
FN:503,_ZNK4mfem24RT0TriangleFiniteElement10CalcVShapeERNS_21ElementTransformationERNS_11DenseMatrixE
FN:532,_ZNK4mfem20RT0QuadFiniteElement10CalcVShapeERNS_21ElementTransformationERNS_11DenseMatrixE
FN:561,_ZNK4mfem24RT1TriangleFiniteElement10CalcVShapeERNS_21ElementTransformationERNS_11DenseMatrixE
FN:590,_ZNK4mfem20RT1QuadFiniteElement10CalcVShapeERNS_21ElementTransformationERNS_11DenseMatrixE
FN:618,_ZNK4mfem24RT2TriangleFiniteElement10CalcVShapeERNS_21ElementTransformationERNS_11DenseMatrixE
FN:641,_ZNK4mfem20RT2QuadFiniteElement10CalcVShapeERNS_21ElementTransformationERNS_11DenseMatrixE
FN:920,_ZNK4mfem24Nedelec1HexFiniteElement10CalcVShapeERNS_21ElementTransformationERNS_11DenseMatrixE
FN:948,_ZNK4mfem24Nedelec1TetFiniteElement10CalcVShapeERNS_21ElementTransformationERNS_11DenseMatrixE
FN:976,_ZNK4mfem24Nedelec1WdgFiniteElement10CalcVShapeERNS_21ElementTransformationERNS_11DenseMatrixE
FN:1004,_ZNK4mfem24Nedelec1PyrFiniteElement10CalcVShapeERNS_21ElementTransformationERNS_11DenseMatrixE
FN:1034,_ZNK4mfem19RT0HexFiniteElement10CalcVShapeERNS_21ElementTransformationERNS_11DenseMatrixE
FN:1064,_ZNK4mfem19RT1HexFiniteElement10CalcVShapeERNS_21ElementTransformationERNS_11DenseMatrixE
FN:1094,_ZNK4mfem19RT0TetFiniteElement10CalcVShapeERNS_21ElementTransformationERNS_11DenseMatrixE
FN:1124,_ZNK4mfem19RT0WdgFiniteElement10CalcVShapeERNS_21ElementTransformationERNS_11DenseMatrixE
FN:1161,_ZNK4mfem19RT0PyrFiniteElement10CalcVShapeERNS_21ElementTransformationERNS_11DenseMatrixE
FNDA:0,_ZNK4mfem19RT0HexFiniteElement10CalcVShapeERNS_21ElementTransformationERNS_11DenseMatrixE
FNDA:0,_ZNK4mfem19RT0PyrFiniteElement10CalcVShapeERNS_21ElementTransformationERNS_11DenseMatrixE
FNDA:0,_ZNK4mfem19RT0TetFiniteElement10CalcVShapeERNS_21ElementTransformationERNS_11DenseMatrixE
FNDA:0,_ZNK4mfem19RT0WdgFiniteElement10CalcVShapeERNS_21ElementTransformationERNS_11DenseMatrixE
FNDA:0,_ZNK4mfem19RT1HexFiniteElement10CalcVShapeERNS_21ElementTransformationERNS_11DenseMatrixE
FNDA:0,_ZNK4mfem20RT0QuadFiniteElement10CalcVShapeERNS_21ElementTransformationERNS_11DenseMatrixE
FNDA:0,_ZNK4mfem20RT1QuadFiniteElement10CalcVShapeERNS_21ElementTransformationERNS_11DenseMatrixE
FNDA:0,_ZNK4mfem20RT2QuadFiniteElement10CalcVShapeERNS_21ElementTransformationERNS_11DenseMatrixE
FNDA:0,_ZNK4mfem24Nedelec1HexFiniteElement10CalcVShapeERNS_21ElementTransformationERNS_11DenseMatrixE
FNDA:0,_ZNK4mfem24Nedelec1PyrFiniteElement10CalcVShapeERNS_21ElementTransformationERNS_11DenseMatrixE
FNDA:0,_ZNK4mfem24Nedelec1TetFiniteElement10CalcVShapeERNS_21ElementTransformationERNS_11DenseMatrixE
FNDA:0,_ZNK4mfem24Nedelec1WdgFiniteElement10CalcVShapeERNS_21ElementTransformationERNS_11DenseMatrixE
FNDA:0,_ZNK4mfem24RT0TriangleFiniteElement10CalcVShapeERNS_21ElementTransformationERNS_11DenseMatrixE
FNDA:0,_ZNK4mfem24RT1TriangleFiniteElement10CalcVShapeERNS_21ElementTransformationERNS_11DenseMatrixE
FNDA:0,_ZNK4mfem24RT2TriangleFiniteElement10CalcVShapeERNS_21ElementTransformationERNS_11DenseMatrixE
FNF:15
FNH:0
DA:23,0
DA:36,0
DA:56,0
DA:78,0
DA:205,0
DA:298,0
DA:389,0
DA:431,0
DA:503,0
DA:505,0
DA:532,0
DA:534,0
DA:561,0
DA:563,0
DA:590,0
DA:592,0
DA:618,0
DA:620,0
DA:641,0
DA:643,0
DA:920,0
DA:922,0
DA:948,0
DA:950,0
DA:976,0
DA:978,0
DA:1004,0
DA:1006,0
DA:1034,0
DA:1036,0
DA:1064,0
DA:1066,0
DA:1094,0
DA:1096,0
DA:1124,0
DA:1126,0
DA:1161,0
DA:1163,0
LF:38
LH:0
end_of_record
TN:
SF:/root/mfem/fem/fe/fe_h1.hpp
FNF:0
FNH:0
LF:0
LH:0
end_of_record
TN:
SF:/root/mfem/fem/fe/fe_l2.hpp
FN:59,_ZNK4mfem23L2_QuadrilateralElement11ProjectCurlERKNS_13FiniteElementERNS_21ElementTransformationERNS_11DenseMatrixE
FN:125,_ZNK4mfem18L2_TriangleElement11ProjectCurlERKNS_13FiniteElementERNS_21ElementTransformationERNS_11DenseMatrixE
FNDA:0,_ZNK4mfem18L2_TriangleElement11ProjectCurlERKNS_13FiniteElementERNS_21ElementTransformationERNS_11DenseMatrixE
FNDA:0,_ZNK4mfem23L2_QuadrilateralElement11ProjectCurlERKNS_13FiniteElementERNS_21ElementTransformationERNS_11DenseMatrixE
FNF:2
FNH:0
DA:59,0
DA:62,0
DA:125,0
DA:128,0
LF:4
LH:0
end_of_record
TN:
SF:/root/mfem/fem/fe/fe_nd.hpp
FN:42,_ZNK4mfem20ND_HexahedronElement10CalcVShapeERNS_21ElementTransformationERNS_11DenseMatrixE
FN:64,_ZNK4mfem20ND_HexahedronElement7ProjectERNS_17VectorCoefficientERNS_21ElementTransformationERNS_6VectorE
FN:89,_ZNK4mfem20ND_HexahedronElement11ProjectCurlERKNS_13FiniteElementERNS_21ElementTransformationERNS_11DenseMatrixE
FN:123,_ZNK4mfem23ND_QuadrilateralElement10CalcVShapeERNS_21ElementTransformationERNS_11DenseMatrixE
FN:139,_ZNK4mfem23ND_QuadrilateralElement7ProjectERNS_17VectorCoefficientERNS_21ElementTransformationERNS_6VectorE
FN:187,_ZNK4mfem21ND_TetrahedronElement10CalcVShapeERNS_21ElementTransformationERNS_11DenseMatrixE
FN:203,_ZNK4mfem21ND_TetrahedronElement7ProjectERNS_17VectorCoefficientERNS_21ElementTransformationERNS_6VectorE
FN:221,_ZNK4mfem21ND_TetrahedronElement11ProjectCurlERKNS_13FiniteElementERNS_21ElementTransformationERNS_11DenseMatrixE
FN:246,_ZNK4mfem18ND_TriangleElement10CalcVShapeERNS_21ElementTransformationERNS_11DenseMatrixE
FN:262,_ZNK4mfem18ND_TriangleElement7ProjectERNS_17VectorCoefficientERNS_21ElementTransformationERNS_6VectorE
FN:293,_ZNK4mfem17ND_SegmentElement9CalcShapeERKNS_16IntegrationPointERNS_6VectorE
FN:297,_ZNK4mfem17ND_SegmentElement10CalcVShapeERNS_21ElementTransformationERNS_11DenseMatrixE
FN:313,_ZNK4mfem17ND_SegmentElement7ProjectERNS_17VectorCoefficientERNS_21ElementTransformationERNS_6VectorE
FN:354,_ZNK4mfem15ND_WedgeElement10CalcVShapeERNS_21ElementTransformationERNS_11DenseMatrixE
FN:374,_ZNK4mfem15ND_WedgeElement7ProjectERNS_17VectorCoefficientERNS_21ElementTransformationERNS_6VectorE
FN:392,_ZNK4mfem15ND_WedgeElement11ProjectCurlERKNS_13FiniteElementERNS_21ElementTransformationERNS_11DenseMatrixE
FN:492,_ZNK4mfem21ND_R1D_SegmentElement11ProjectCurlERKNS_13FiniteElementERNS_21ElementTransformationERNS_11DenseMatrixE
FNDA:0,_ZNK4mfem15ND_WedgeElement10CalcVShapeERNS_21ElementTransformationERNS_11DenseMatrixE
FNDA:0,_ZNK4mfem15ND_WedgeElement11ProjectCurlERKNS_13FiniteElementERNS_21ElementTransformationERNS_11DenseMatrixE
FNDA:0,_ZNK4mfem15ND_WedgeElement7ProjectERNS_17VectorCoefficientERNS_21ElementTransformationERNS_6VectorE
FNDA:0,_ZNK4mfem17ND_SegmentElement10CalcVShapeERNS_21ElementTransformationERNS_11DenseMatrixE
FNDA:0,_ZNK4mfem17ND_SegmentElement7ProjectERNS_17VectorCoefficientERNS_21ElementTransformationERNS_6VectorE
FNDA:0,_ZNK4mfem17ND_SegmentElement9CalcShapeERKNS_16IntegrationPointERNS_6VectorE
FNDA:0,_ZNK4mfem18ND_TriangleElement10CalcVShapeERNS_21ElementTransformationERNS_11DenseMatrixE
FNDA:0,_ZNK4mfem18ND_TriangleElement7ProjectERNS_17VectorCoefficientERNS_21ElementTransformationERNS_6VectorE
FNDA:0,_ZNK4mfem20ND_HexahedronElement10CalcVShapeERNS_21ElementTransformationERNS_11DenseMatrixE
FNDA:0,_ZNK4mfem20ND_HexahedronElement11ProjectCurlERKNS_13FiniteElementERNS_21ElementTransformationERNS_11DenseMatrixE
FNDA:0,_ZNK4mfem20ND_HexahedronElement7ProjectERNS_17VectorCoefficientERNS_21ElementTransformationERNS_6VectorE
FNDA:0,_ZNK4mfem21ND_R1D_SegmentElement11ProjectCurlERKNS_13FiniteElementERNS_21ElementTransformationERNS_11DenseMatrixE
FNDA:0,_ZNK4mfem21ND_TetrahedronElement10CalcVShapeERNS_21ElementTransformationERNS_11DenseMatrixE
FNDA:0,_ZNK4mfem21ND_TetrahedronElement11ProjectCurlERKNS_13FiniteElementERNS_21ElementTransformationERNS_11DenseMatrixE
FNDA:0,_ZNK4mfem21ND_TetrahedronElement7ProjectERNS_17VectorCoefficientERNS_21ElementTransformationERNS_6VectorE
FNDA:0,_ZNK4mfem23ND_QuadrilateralElement10CalcVShapeERNS_21ElementTransformationERNS_11DenseMatrixE
FNDA:0,_ZNK4mfem23ND_QuadrilateralElement7ProjectERNS_17VectorCoefficientERNS_21ElementTransformationERNS_6VectorE
FNF:17
FNH:0
DA:42,0
DA:44,0
DA:64,0
DA:67,0
DA:68,0
DA:69,0
DA:89,0
DA:92,0
DA:123,0
DA:125,0
DA:139,0
DA:142,0
DA:143,0
DA:144,0
DA:187,0
DA:189,0
DA:203,0
DA:205,0
DA:221,0
DA:224,0
DA:246,0
DA:248,0
DA:262,0
DA:264,0
DA:283,0
DA:293,0
DA:294,0
DA:297,0
DA:299,0
DA:313,0
DA:315,0
DA:354,0
DA:356,0
DA:374,0
DA:376,0
DA:392,0
DA:395,0
DA:492,0
DA:495,0
LF:39
LH:0
end_of_record
TN:
SF:/root/mfem/fem/fe/fe_pos.hpp
FNF:0
FNH:0
LF:0
LH:0
end_of_record
TN:
SF:/root/mfem/fem/fe/fe_rt.hpp
FN:43,_ZNK4mfem23RT_QuadrilateralElement10CalcVShapeERNS_21ElementTransformationERNS_11DenseMatrixE
FN:59,_ZNK4mfem23RT_QuadrilateralElement7ProjectERNS_17VectorCoefficientERNS_21ElementTransformationERNS_6VectorE
FN:80,_ZNK4mfem23RT_QuadrilateralElement11ProjectCurlERKNS_13FiniteElementERNS_21ElementTransformationERNS_11DenseMatrixE
FN:114,_ZNK4mfem20RT_HexahedronElement10CalcVShapeERNS_21ElementTransformationERNS_11DenseMatrixE
FN:130,_ZNK4mfem20RT_HexahedronElement7ProjectERNS_17VectorCoefficientERNS_21ElementTransformationERNS_6VectorE
FN:145,_ZNK4mfem20RT_HexahedronElement11ProjectCurlERKNS_13FiniteElementERNS_21ElementTransformationERNS_11DenseMatrixE
FN:181,_ZNK4mfem18RT_TriangleElement10CalcVShapeERNS_21ElementTransformationERNS_11DenseMatrixE
FN:197,_ZNK4mfem18RT_TriangleElement7ProjectERNS_17VectorCoefficientERNS_21ElementTransformationERNS_6VectorE
FN:215,_ZNK4mfem18RT_TriangleElement11ProjectCurlERKNS_13FiniteElementERNS_21ElementTransformationERNS_11DenseMatrixE
FN:241,_ZNK4mfem21RT_TetrahedronElement10CalcVShapeERNS_21ElementTransformationERNS_11DenseMatrixE
FN:257,_ZNK4mfem21RT_TetrahedronElement7ProjectERNS_17VectorCoefficientERNS_21ElementTransformationERNS_6VectorE
FN:269,_ZNK4mfem21RT_TetrahedronElement11ProjectCurlERKNS_13FiniteElementERNS_21ElementTransformationERNS_11DenseMatrixE
FN:301,_ZNK4mfem15RT_WedgeElement10CalcVShapeERNS_21ElementTransformationERNS_11DenseMatrixE
FN:317,_ZNK4mfem15RT_WedgeElement7ProjectERNS_17VectorCoefficientERNS_21ElementTransformationERNS_6VectorE
FN:326,_ZNK4mfem15RT_WedgeElement11ProjectCurlERKNS_13FiniteElementERNS_21ElementTransformationERNS_11DenseMatrixE
FNDA:0,_ZNK4mfem15RT_WedgeElement10CalcVShapeERNS_21ElementTransformationERNS_11DenseMatrixE
FNDA:0,_ZNK4mfem15RT_WedgeElement11ProjectCurlERKNS_13FiniteElementERNS_21ElementTransformationERNS_11DenseMatrixE
FNDA:0,_ZNK4mfem15RT_WedgeElement7ProjectERNS_17VectorCoefficientERNS_21ElementTransformationERNS_6VectorE
FNDA:0,_ZNK4mfem18RT_TriangleElement10CalcVShapeERNS_21ElementTransformationERNS_11DenseMatrixE
FNDA:0,_ZNK4mfem18RT_TriangleElement11ProjectCurlERKNS_13FiniteElementERNS_21ElementTransformationERNS_11DenseMatrixE
FNDA:0,_ZNK4mfem18RT_TriangleElement7ProjectERNS_17VectorCoefficientERNS_21ElementTransformationERNS_6VectorE
FNDA:0,_ZNK4mfem20RT_HexahedronElement10CalcVShapeERNS_21ElementTransformationERNS_11DenseMatrixE
FNDA:0,_ZNK4mfem20RT_HexahedronElement11ProjectCurlERKNS_13FiniteElementERNS_21ElementTransformationERNS_11DenseMatrixE
FNDA:0,_ZNK4mfem20RT_HexahedronElement7ProjectERNS_17VectorCoefficientERNS_21ElementTransformationERNS_6VectorE
FNDA:0,_ZNK4mfem21RT_TetrahedronElement10CalcVShapeERNS_21ElementTransformationERNS_11DenseMatrixE
FNDA:0,_ZNK4mfem21RT_TetrahedronElement11ProjectCurlERKNS_13FiniteElementERNS_21ElementTransformationERNS_11DenseMatrixE
FNDA:0,_ZNK4mfem21RT_TetrahedronElement7ProjectERNS_17VectorCoefficientERNS_21ElementTransformationERNS_6VectorE
FNDA:0,_ZNK4mfem23RT_QuadrilateralElement10CalcVShapeERNS_21ElementTransformationERNS_11DenseMatrixE
FNDA:0,_ZNK4mfem23RT_QuadrilateralElement11ProjectCurlERKNS_13FiniteElementERNS_21ElementTransformationERNS_11DenseMatrixE
FNDA:0,_ZNK4mfem23RT_QuadrilateralElement7ProjectERNS_17VectorCoefficientERNS_21ElementTransformationERNS_6VectorE
FNF:15
FNH:0
DA:43,0
DA:45,0
DA:59,0
DA:62,0
DA:63,0
DA:64,0
DA:80,0
DA:83,0
DA:114,0
DA:116,0
DA:130,0
DA:133,0
DA:134,0
DA:135,0
DA:145,0
DA:148,0
DA:181,0
DA:183,0
DA:197,0
DA:199,0
DA:215,0
DA:218,0
DA:241,0
DA:243,0
DA:257,0
DA:259,0
DA:269,0
DA:272,0
DA:301,0
DA:303,0
DA:317,0
DA:319,0
DA:326,0
DA:329,0
LF:34
LH:0
end_of_record
TN:
SF:/root/mfem/fem/fe_coll.hpp
FN:90,_ZNK4mfem23FiniteElementCollection29TraceFiniteElementForGeometryENS_8Geometry4TypeE
FN:268,_ZNK4mfem15H1_FECollection14DofForGeometryENS_8Geometry4TypeE
FN:273,_ZNK4mfem15H1_FECollection4NameEv
FN:274,_ZNK4mfem15H1_FECollection11GetContTypeEv
FN:284,_ZNK4mfem15H1_FECollection5CloneEi
FN:351,_ZNK4mfem15L2_FECollection4NameEv
FN:508,_ZNK4mfem19ND_R1D_FECollection24FiniteElementForGeometryENS_8Geometry4TypeE
FN:535,_ZNK4mfem19RT_R1D_FECollection24FiniteElementForGeometryENS_8Geometry4TypeE
FN:563,_ZNK4mfem19ND_R2D_FECollection24FiniteElementForGeometryENS_8Geometry4TypeE
FN:612,_ZNK4mfem19RT_R2D_FECollection24FiniteElementForGeometryENS_8Geometry4TypeE
FN:708,_ZN4mfem18LinearFECollectionC2Ev
FN:718,_ZNK4mfem18LinearFECollection4NameEv
FN:1294,_ZNK4mfem18Local_FECollection24FiniteElementForGeometryENS_8Geometry4TypeE
FN:1297,_ZNK4mfem18Local_FECollection14DofForGeometryENS_8Geometry4TypeE
FN:1299,_ZNK4mfem18Local_FECollection22DofOrderForOrientationENS_8Geometry4TypeEi
FN:1302,_ZNK4mfem18Local_FECollection4NameEv
FN:1304,_ZN4mfem18Local_FECollectionD0Ev
FN:1304,_ZN4mfem18Local_FECollectionD2Ev
FN:1305,_ZNK4mfem18Local_FECollection11GetContTypeEv
FNDA:0,_ZN4mfem18LinearFECollectionC2Ev
FNDA:0,_ZN4mfem18Local_FECollectionD0Ev
FNDA:0,_ZN4mfem18Local_FECollectionD2Ev
FNDA:0,_ZNK4mfem15H1_FECollection11GetContTypeEv
FNDA:0,_ZNK4mfem15H1_FECollection14DofForGeometryENS_8Geometry4TypeE
FNDA:0,_ZNK4mfem15H1_FECollection4NameEv
FNDA:0,_ZNK4mfem15H1_FECollection5CloneEi
FNDA:0,_ZNK4mfem15L2_FECollection4NameEv
FNDA:0,_ZNK4mfem18LinearFECollection4NameEv
FNDA:0,_ZNK4mfem18Local_FECollection11GetContTypeEv
FNDA:0,_ZNK4mfem18Local_FECollection14DofForGeometryENS_8Geometry4TypeE
FNDA:0,_ZNK4mfem18Local_FECollection22DofOrderForOrientationENS_8Geometry4TypeEi
FNDA:0,_ZNK4mfem18Local_FECollection24FiniteElementForGeometryENS_8Geometry4TypeE
FNDA:0,_ZNK4mfem18Local_FECollection4NameEv
FNDA:0,_ZNK4mfem19ND_R1D_FECollection24FiniteElementForGeometryENS_8Geometry4TypeE
FNDA:0,_ZNK4mfem19ND_R2D_FECollection24FiniteElementForGeometryENS_8Geometry4TypeE
FNDA:0,_ZNK4mfem19RT_R1D_FECollection24FiniteElementForGeometryENS_8Geometry4TypeE
FNDA:0,_ZNK4mfem19RT_R2D_FECollection24FiniteElementForGeometryENS_8Geometry4TypeE
FNDA:0,_ZNK4mfem23FiniteElementCollection29TraceFiniteElementForGeometryENS_8Geometry4TypeE
FNF:19
FNH:0
DA:90,0
DA:93,0
DA:231,0
DA:268,0
DA:269,0
DA:273,0
DA:274,0
DA:284,0
DA:285,0
DA:351,0
DA:508,0
DA:510,0
DA:535,0
DA:537,0
DA:563,0
DA:565,0
DA:612,0
DA:614,0
DA:708,0
DA:718,0
DA:1294,0
DA:1296,0
DA:1297,0
DA:1298,0
DA:1299,0
DA:1301,0
DA:1302,0
DA:1304,0
DA:1305,0
LF:29
LH:0
end_of_record
TN:
SF:/root/mfem/fem/fespace.hpp
FN:546,_ZN4mfem18FiniteElementSpaceC2EPNS_4MeshEPKNS_23FiniteElementCollectionEii
FN:602,_ZNK4mfem18FiniteElementSpace21GetProlongationMatrixEv
FN:618,_ZNK4mfem18FiniteElementSpace20GetRestrictionMatrixEv
FN:714,_ZNK4mfem18FiniteElementSpace12GetTrueVSizeEv
FNDA:0,_ZNK4mfem18FiniteElementSpace12GetTrueVSizeEv
FNDA:0,_ZNK4mfem18FiniteElementSpace20GetRestrictionMatrixEv
FNDA:0,_ZNK4mfem18FiniteElementSpace21GetProlongationMatrixEv
FNDA:128,_ZN4mfem18FiniteElementSpaceC2EPNS_4MeshEPKNS_23FiniteElementCollectionEii
FNF:4
FNH:1
DA:546,128
DA:549,128
DA:564,0
DA:602,0
DA:603,0
DA:618,0
DA:619,0
DA:622,0
DA:623,0
DA:704,0
DA:708,0
DA:711,192
DA:714,0
DA:720,0
DA:747,0
DA:755,0
DA:756,0
DA:1100,0
DA:1104,0
DA:1249,192
DA:1266,0
DA:1268,0
DA:1269,0
DA:1270,0
DA:1271,0
LF:25
LH:4
end_of_record
TN:
SF:/root/mfem/fem/geom.hpp
FNF:0
FNH:0
DA:71,0
DA:72,0
DA:338,0
LF:3
LH:0
end_of_record
TN:
SF:/root/mfem/fem/gridfunc.hpp
FN:83,_ZN4mfem12GridFunctionC2EPNS_18FiniteElementSpaceE
FN:755,_ZN4mfem12GridFunctionD0Ev
FN:755,_ZN4mfem12GridFunctionD2Ev
FN:869,_ZN4mfem18ExtrudeCoefficientD0Ev
FN:869,_ZN4mfem18ExtrudeCoefficientD2Ev
FNDA:0,_ZN4mfem18ExtrudeCoefficientD0Ev
FNDA:0,_ZN4mfem18ExtrudeCoefficientD2Ev
FNDA:128,_ZN4mfem12GridFunctionD0Ev
FNDA:192,_ZN4mfem12GridFunctionC2EPNS_18FiniteElementSpaceE
FNDA:320,_ZN4mfem12GridFunctionD2Ev
FNF:5
FNH:3
DA:75,0
DA:83,192
DA:84,192
DA:468,0
DA:470,0
DA:471,0
DA:512,0
DA:515,0
DA:687,0
DA:755,448
DA:869,0
LF:11
LH:3
end_of_record
TN:
SF:/root/mfem/fem/intrules.hpp
FN:218,_ZN4mfem15IntegrationRuleC2Ei
FNDA:0,_ZN4mfem15IntegrationRuleC2Ei
FNF:1
FNH:0
DA:31,0
DA:33,0
DA:34,0
DA:70,0
DA:71,0
DA:80,0
DA:214,0
DA:215,0
DA:218,0
DA:219,0
DA:221,0
DA:223,0
DA:225,0
DA:247,0
DA:250,0
DA:253,0
DA:261,0
DA:372,0
LF:18
LH:0
end_of_record
TN:
SF:/root/mfem/fem/linearform.hpp
FN:88,_ZN4mfem10LinearFormC2EPNS_18FiniteElementSpaceE
FNDA:0,_ZN4mfem10LinearFormC2EPNS_18FiniteElementSpaceE
FNF:1
FNH:0
DA:88,0
DA:89,0
DA:242,0
LF:3
LH:0
end_of_record
TN:
SF:/root/mfem/fem/lininteg.hpp
FN:34,_ZNK4mfem20LinearFormIntegrator14SupportsDeviceEv
FN:54,_ZN4mfem20LinearFormIntegrator10SetIntRuleEPKNS_15IntegrationRuleE
FN:115,_ZN4mfem18DomainLFIntegratorC2ERNS_11CoefficientEii
FN:154,_ZN4mfem22DomainLFGradIntegratorC2ERNS_17VectorCoefficientE
FN:262,_ZN4mfem24VectorDomainLFIntegratorC2ERNS_17VectorCoefficientE
FN:296,_ZN4mfem28VectorDomainLFGradIntegratorC2ERNS_17VectorCoefficientE
FN:354,_ZN4mfem26VectorFEDomainLFIntegratorC2ERNS_17VectorCoefficientE
FN:384,_ZN4mfem30VectorFEDomainLFCurlIntegratorC2ERNS_17VectorCoefficientE
FN:406,_ZN4mfem29VectorFEDomainLFDivIntegratorC2ERNS_11CoefficientE
FN:645,_ZN4mfem36WhiteGaussianNoiseDomainLFIntegratorC2Ei
FN:654,_ZN4mfem36WhiteGaussianNoiseDomainLFIntegratorC2EP19ompi_communicator_ti
FN:695,_ZN4mfem36WhiteGaussianNoiseDomainLFIntegrator12ResetFactorsEi
FN:746,_ZN4mfem28VectorQuadratureLFIntegrator10SetIntRuleEPKNS_15IntegrationRuleE
FN:778,_ZN4mfem22QuadratureLFIntegrator10SetIntRuleEPKNS_15IntegrationRuleE
FNDA:0,_ZN4mfem18DomainLFIntegratorC2ERNS_11CoefficientEii
FNDA:0,_ZN4mfem20LinearFormIntegrator10SetIntRuleEPKNS_15IntegrationRuleE
FNDA:0,_ZN4mfem22DomainLFGradIntegratorC2ERNS_17VectorCoefficientE
FNDA:0,_ZN4mfem22QuadratureLFIntegrator10SetIntRuleEPKNS_15IntegrationRuleE
FNDA:0,_ZN4mfem24VectorDomainLFIntegratorC2ERNS_17VectorCoefficientE
FNDA:0,_ZN4mfem26VectorFEDomainLFIntegratorC2ERNS_17VectorCoefficientE
FNDA:0,_ZN4mfem28VectorDomainLFGradIntegratorC2ERNS_17VectorCoefficientE
FNDA:0,_ZN4mfem28VectorQuadratureLFIntegrator10SetIntRuleEPKNS_15IntegrationRuleE
FNDA:0,_ZN4mfem29VectorFEDomainLFDivIntegratorC2ERNS_11CoefficientE
FNDA:0,_ZN4mfem30VectorFEDomainLFCurlIntegratorC2ERNS_17VectorCoefficientE
FNDA:0,_ZN4mfem36WhiteGaussianNoiseDomainLFIntegrator12ResetFactorsEi
FNDA:0,_ZN4mfem36WhiteGaussianNoiseDomainLFIntegratorC2EP19ompi_communicator_ti
FNDA:0,_ZN4mfem36WhiteGaussianNoiseDomainLFIntegratorC2Ei
FNDA:0,_ZNK4mfem20LinearFormIntegrator14SupportsDeviceEv
FNF:14
FNH:0
DA:29,0
DA:34,0
DA:54,0
DA:70,0
DA:71,0
DA:72,0
DA:73,0
DA:77,0
DA:79,0
DA:81,0
DA:115,0
DA:118,0
DA:154,0
DA:155,0
DA:187,0
DA:188,0
DA:217,0
DA:218,0
DA:262,0
DA:263,0
DA:296,0
DA:297,0
DA:354,0
DA:355,0
DA:384,0
DA:385,0
DA:406,0
DA:407,0
DA:457,0
DA:458,0
DA:481,0
DA:483,0
DA:645,0
DA:646,0
DA:648,0
DA:649,0
DA:654,0
DA:655,0
DA:657,0
DA:658,0
DA:660,0
DA:661,0
DA:662,0
DA:673,0
DA:675,0
DA:686,0
DA:688,0
DA:689,0
DA:690,0
DA:695,0
DA:697,0
DA:699,0
DA:701,0
DA:703,0
DA:704,0
DA:706,0
DA:708,0
DA:730,0
DA:732,0
DA:734,0
DA:746,0
DA:748,0
DA:749,0
DA:750,0
DA:762,0
DA:764,0
DA:766,0
DA:778,0
DA:780,0
DA:781,0
DA:782,0
LF:71
LH:0
end_of_record
TN:
SF:/root/mfem/fem/lor/lor.hpp
FNF:0
FNH:0
DA:137,0
DA:165,0
LF:2
LH:0
end_of_record
TN:
SF:/root/mfem/fem/lor/lor_ads.hpp
FNF:0
FNH:0
DA:59,0
LF:1
LH:0
end_of_record
TN:
SF:/root/mfem/fem/lor/lor_ams.hpp
FNF:0
FNH:0
DA:78,0
DA:79,0
DA:80,0
DA:81,0
LF:4
LH:0
end_of_record
TN:
SF:/root/mfem/fem/nonlinearform.hpp
FN:73,_ZN4mfem13NonlinearFormC2EPNS_18FiniteElementSpaceE
FN:209,_ZNK4mfem13NonlinearForm15GetProlongationEv
FN:211,_ZNK4mfem13NonlinearForm14GetRestrictionEv
FNDA:0,_ZN4mfem13NonlinearFormC2EPNS_18FiniteElementSpaceE
FNDA:0,_ZNK4mfem13NonlinearForm14GetRestrictionEv
FNDA:0,_ZNK4mfem13NonlinearForm15GetProlongationEv
FNF:3
FNH:0
DA:73,0
DA:74,0
DA:76,0
DA:77,0
DA:78,0
DA:110,0
DA:111,0
DA:209,0
DA:211,0
DA:212,0
DA:300,0
DA:301,0
LF:12
LH:0
end_of_record
TN:
SF:/root/mfem/fem/nonlinearform_ext.hpp
FN:81,_ZNK4mfem24PANonlinearFormExtension8Gradient15GetProlongationEv
FNDA:0,_ZNK4mfem24PANonlinearFormExtension8Gradient15GetProlongationEv
FNF:1
FNH:0
DA:81,0
DA:83,0
LF:2
LH:0
end_of_record
TN:
SF:/root/mfem/fem/nonlininteg.hpp
FN:43,_ZN4mfem23NonlinearFormIntegrator10SetIntRuleEPKNS_15IntegrationRuleE
FN:132,_ZNK4mfem23NonlinearFormIntegrator12SupportsCeedEv
FN:383,_ZN4mfem29VectorConvectionNLFIntegratorC2Ev
FNDA:0,_ZN4mfem23NonlinearFormIntegrator10SetIntRuleEPKNS_15IntegrationRuleE
FNDA:0,_ZN4mfem29VectorConvectionNLFIntegratorC2Ev
FNDA:0,_ZNK4mfem23NonlinearFormIntegrator12SupportsCeedEv
FNF:3
FNH:0
DA:37,0
DA:38,0
DA:43,0
DA:132,0
DA:147,0
DA:148,0
DA:149,0
DA:156,0
DA:188,0
DA:383,0
LF:10
LH:0
end_of_record
TN:
SF:/root/mfem/fem/pbilinearform.hpp
FN:56,_ZN4mfem15ParBilinearFormC2EPNS_21ParFiniteElementSpaceE
FN:184,_ZNK4mfem15ParBilinearForm15GetProlongationEv
FN:190,_ZNK4mfem15ParBilinearForm14GetRestrictionEv
FN:212,_ZN4mfem15ParBilinearFormD0Ev
FN:212,_ZN4mfem15ParBilinearFormD2Ev
FN:241,_ZN4mfem20ParMixedBilinearFormC2EPNS_21ParFiniteElementSpaceES2_
FN:302,_ZN4mfem20ParMixedBilinearFormD0Ev
FN:302,_ZN4mfem20ParMixedBilinearFormD2Ev
FN:349,_ZN4mfem25ParDiscreteLinearOperatorD0Ev
FN:349,_ZN4mfem25ParDiscreteLinearOperatorD2Ev
FNDA:0,_ZN4mfem15ParBilinearFormC2EPNS_21ParFiniteElementSpaceE
FNDA:0,_ZN4mfem15ParBilinearFormD0Ev
FNDA:0,_ZN4mfem15ParBilinearFormD2Ev
FNDA:0,_ZN4mfem20ParMixedBilinearFormC2EPNS_21ParFiniteElementSpaceES2_
FNDA:0,_ZN4mfem20ParMixedBilinearFormD0Ev
FNDA:0,_ZN4mfem20ParMixedBilinearFormD2Ev
FNDA:0,_ZN4mfem25ParDiscreteLinearOperatorD0Ev
FNDA:0,_ZN4mfem25ParDiscreteLinearOperatorD2Ev
FNDA:0,_ZNK4mfem15ParBilinearForm14GetRestrictionEv
FNDA:0,_ZNK4mfem15ParBilinearForm15GetProlongationEv
FNF:10
FNH:0
DA:56,0
DA:57,0
DA:58,0
DA:59,0
DA:77,0
DA:106,0
DA:184,0
DA:185,0
DA:190,0
DA:191,0
DA:212,0
DA:241,0
DA:243,0
DA:244,0
DA:246,0
DA:247,0
DA:248,0
DA:302,0
DA:328,0
DA:330,0
DA:349,0
LF:21
LH:0
end_of_record
TN:
SF:/root/mfem/fem/pfespace.hpp
FN:289,_ZNK4mfem21ParFiniteElementSpace12GetTrueVSizeEv
FN:389,_ZNK4mfem21ParFiniteElementSpace20GetRestrictionMatrixEv
FN:429,_ZN4mfem21ParFiniteElementSpaceD0Ev
FN:429,_ZN4mfem21ParFiniteElementSpaceD2Ev
FNDA:0,_ZN4mfem21ParFiniteElementSpaceD0Ev
FNDA:0,_ZN4mfem21ParFiniteElementSpaceD2Ev
FNDA:0,_ZNK4mfem21ParFiniteElementSpace12GetTrueVSizeEv
FNDA:0,_ZNK4mfem21ParFiniteElementSpace20GetRestrictionMatrixEv
FNF:4
FNH:0
DA:273,0
DA:277,0
DA:281,0
DA:283,0
DA:284,0
DA:285,0
DA:286,0
DA:289,0
DA:321,0
DA:322,0
DA:389,0
DA:390,0
DA:394,0
DA:429,0
DA:434,0
LF:15
LH:0
end_of_record
TN:
SF:/root/mfem/fem/pgridfunc.hpp
FN:56,_ZN4mfem15ParGridFunctionC2EPNS_21ParFiniteElementSpaceE
FN:263,_ZN4mfem15ParGridFunction21ProjectBdrCoefficientEPPNS_11CoefficientERNS_5ArrayIiEE
FN:293,_ZNK4mfem15ParGridFunction14ComputeL2ErrorERNS_11CoefficientEPPKNS_15IntegrationRuleEPKNS_5ArrayIiEE
FN:452,_ZN4mfem15ParGridFunctionD0Ev
FN:452,_ZN4mfem15ParGridFunctionD2Ev
FNDA:0,_ZN4mfem15ParGridFunction21ProjectBdrCoefficientEPPNS_11CoefficientERNS_5ArrayIiEE
FNDA:0,_ZN4mfem15ParGridFunctionC2EPNS_21ParFiniteElementSpaceE
FNDA:0,_ZN4mfem15ParGridFunctionD0Ev
FNDA:0,_ZN4mfem15ParGridFunctionD2Ev
FNDA:0,_ZNK4mfem15ParGridFunction14ComputeL2ErrorERNS_11CoefficientEPPKNS_15IntegrationRuleEPKNS_5ArrayIiEE
FNF:5
FNH:0
DA:50,0
DA:56,0
DA:106,0
DA:107,0
DA:263,0
DA:264,0
DA:293,0
DA:297,0
DA:298,0
DA:452,0
LF:10
LH:0
end_of_record
TN:
SF:/root/mfem/fem/plinearform.hpp
FNF:0
FNH:0
DA:26,0
DA:46,0
DA:138,0
DA:140,0
LF:4
LH:0
end_of_record
TN:
SF:/root/mfem/fem/pnonlinearform.hpp
FN:69,_ZN4mfem16ParNonlinearFormD0Ev
FN:69,_ZN4mfem16ParNonlinearFormD2Ev
FNDA:0,_ZN4mfem16ParNonlinearFormD0Ev
FNDA:0,_ZN4mfem16ParNonlinearFormD2Ev
FNF:2
FNH:0
DA:69,0
LF:1
LH:0
end_of_record
TN:
SF:/root/mfem/fem/qfunction.hpp
FN:38,_ZN4mfem18QuadratureFunctionC2ERNS_19QuadratureSpaceBaseEi
FN:197,_ZN4mfem18QuadratureFunctionD0Ev
FN:197,_ZN4mfem18QuadratureFunctionD2Ev
FNDA:0,_ZN4mfem18QuadratureFunctionC2ERNS_19QuadratureSpaceBaseEi
FNDA:0,_ZN4mfem18QuadratureFunctionD0Ev
FNDA:0,_ZN4mfem18QuadratureFunctionD2Ev
FNF:3
FNH:0
DA:38,0
DA:39,0
DA:40,0
DA:41,0
DA:47,0
DA:48,0
DA:74,0
DA:197,0
DA:198,0
DA:199,0
DA:200,0
LF:11
LH:0
end_of_record
TN:
SF:/root/mfem/fem/qspace.hpp
FN:99,_ZN4mfem15QuadratureSpaceC2EPNS_4MeshEi
FNDA:0,_ZN4mfem15QuadratureSpaceC2EPNS_4MeshEi
FNF:1
FNH:0
DA:42,0
DA:43,0
DA:54,0
DA:87,0
DA:92,0
DA:99,0
DA:100,0
DA:121,0
DA:122,0
LF:9
LH:0
end_of_record
TN:
SF:/root/mfem/fem/quadinterpolator.hpp
FNF:0
FNH:0
DA:72,0
DA:73,0
DA:78,0
DA:92,0
LF:4
LH:0
end_of_record
TN:
SF:/root/mfem/fem/restriction.hpp
FN:214,_ZNK4mfem15FaceRestriction13MultTransposeERKNS_6VectorERS1_
FNDA:0,_ZNK4mfem15FaceRestriction13MultTransposeERKNS_6VectorERS1_
FNF:1
FNH:0
DA:214,0
DA:216,0
DA:217,0
DA:218,0
LF:4
LH:0
end_of_record
TN:
SF:/root/mfem/fem/tmop_tools.hpp
FN:263,_ZNK4mfem16TMOPNewtonSolver4MultERKNS_6VectorERS1_
FNDA:0,_ZNK4mfem16TMOPNewtonSolver4MultERKNS_6VectorERS1_
FNF:1
FNH:0
DA:263,0
DA:265,0
DA:267,0
DA:269,0
DA:271,0
DA:273,0
DA:274,0
LF:7
LH:0
end_of_record
TN:
SF:/root/mfem/fem/transfer.hpp
FN:324,_ZNK4mfem24L2ProjectionGridTransfer14L2Prolongation4MultERKNS_6VectorERS2_
FN:328,_ZNK4mfem24L2ProjectionGridTransfer14L2Prolongation13MultTransposeERKNS_6VectorERS2_
FN:332,_ZN4mfem24L2ProjectionGridTransfer14L2ProlongationD0Ev
FN:332,_ZN4mfem24L2ProjectionGridTransfer14L2ProlongationD2Ev
FNDA:0,_ZN4mfem24L2ProjectionGridTransfer14L2ProlongationD0Ev
FNDA:0,_ZN4mfem24L2ProjectionGridTransfer14L2ProlongationD2Ev
FNDA:0,_ZNK4mfem24L2ProjectionGridTransfer14L2Prolongation13MultTransposeERKNS_6VectorERS2_
FNDA:0,_ZNK4mfem24L2ProjectionGridTransfer14L2Prolongation4MultERKNS_6VectorERS2_
FNF:4
FNH:0
DA:324,0
DA:326,0
DA:327,0
DA:328,0
DA:330,0
DA:331,0
DA:332,0
LF:7
LH:0
end_of_record
TN:
SF:/root/mfem/general/array.hpp
FN:642,_ZN4mfem5ArrayINS_16IntegrationPointEEC2ERKS2_
FN:642,_ZN4mfem5ArrayIdEC2ERKS1_
FN:642,_ZN4mfem5ArrayIiEC2ERKS1_
FN:659,_ZN4mfem5ArrayIiEC2IdLi6EEERAT0__KT_
FN:659,_ZN4mfem5ArrayIiEC2IiLi7EEERAT0__KT_
FN:665,_ZN4mfem5ArrayINS_10RefinementEE8GrowSizeEi
FN:665,_ZN4mfem5ArrayINS_16IntegrationPointEE8GrowSizeEi
FN:665,_ZN4mfem5ArrayIPNS_10EliminatorEE8GrowSizeEi
FN:665,_ZN4mfem5ArrayIPNS_11CoefficientEE8GrowSizeEi
FN:665,_ZN4mfem5ArrayIPNS_11DenseMatrixEE8GrowSizeEi
FN:665,_ZN4mfem5ArrayIPNS_17MatrixCoefficientEE8GrowSizeEi
FN:665,_ZN4mfem5ArrayIPNS_17VectorCoefficientEE8GrowSizeEi
FN:665,_ZN4mfem5ArrayIPNS_22BilinearFormIntegratorEE8GrowSizeEi
FN:665,_ZN4mfem5ArrayIPNS_23NonlinearFormIntegratorEE8GrowSizeEi
FN:665,_ZN4mfem5ArrayIPNS_28BlockNonlinearFormIntegratorEE8GrowSizeEi
FN:665,_ZN4mfem5ArrayIbE8GrowSizeEi
FN:665,_ZN4mfem5ArrayIiE8GrowSizeEi
FN:695,_ZN4mfem5ArrayIbE7SetSizeEiRKb
FN:713,_ZN4mfem5ArrayIiE7SetSizeEiNS_10MemoryTypeE
FN:756,_ZN4mfem5ArrayINS_10RefinementEE6AppendERKS1_
FN:756,_ZN4mfem5ArrayIPNS_10EliminatorEE6AppendERKS2_
FN:756,_ZN4mfem5ArrayIPNS_11CoefficientEE6AppendERKS2_
FN:756,_ZN4mfem5ArrayIPNS_17MatrixCoefficientEE6AppendERKS2_
FN:756,_ZN4mfem5ArrayIPNS_17VectorCoefficientEE6AppendERKS2_
FN:756,_ZN4mfem5ArrayIPNS_22BilinearFormIntegratorEE6AppendERKS2_
FN:756,_ZN4mfem5ArrayIPNS_23NonlinearFormIntegratorEE6AppendERKS2_
FN:756,_ZN4mfem5ArrayIPNS_28BlockNonlinearFormIntegratorEE6AppendERKS2_
FN:756,_ZN4mfem5ArrayIiE6AppendERKi
FN:861,_ZNK4mfem5ArrayIiE4CopyERS1_
FNDA:0,_ZN4mfem5ArrayINS_10RefinementEE6AppendERKS1_
FNDA:0,_ZN4mfem5ArrayINS_10RefinementEE8GrowSizeEi
FNDA:0,_ZN4mfem5ArrayINS_16IntegrationPointEE8GrowSizeEi
FNDA:0,_ZN4mfem5ArrayINS_16IntegrationPointEEC2ERKS2_
FNDA:0,_ZN4mfem5ArrayIPNS_10EliminatorEE6AppendERKS2_
FNDA:0,_ZN4mfem5ArrayIPNS_10EliminatorEE8GrowSizeEi
FNDA:0,_ZN4mfem5ArrayIPNS_11CoefficientEE6AppendERKS2_
FNDA:0,_ZN4mfem5ArrayIPNS_11CoefficientEE8GrowSizeEi
FNDA:0,_ZN4mfem5ArrayIPNS_11DenseMatrixEE8GrowSizeEi
FNDA:0,_ZN4mfem5ArrayIPNS_17MatrixCoefficientEE6AppendERKS2_
FNDA:0,_ZN4mfem5ArrayIPNS_17MatrixCoefficientEE8GrowSizeEi
FNDA:0,_ZN4mfem5ArrayIPNS_17VectorCoefficientEE6AppendERKS2_
FNDA:0,_ZN4mfem5ArrayIPNS_17VectorCoefficientEE8GrowSizeEi
FNDA:0,_ZN4mfem5ArrayIPNS_22BilinearFormIntegratorEE6AppendERKS2_
FNDA:0,_ZN4mfem5ArrayIPNS_22BilinearFormIntegratorEE8GrowSizeEi
FNDA:0,_ZN4mfem5ArrayIPNS_23NonlinearFormIntegratorEE6AppendERKS2_
FNDA:0,_ZN4mfem5ArrayIPNS_23NonlinearFormIntegratorEE8GrowSizeEi
FNDA:0,_ZN4mfem5ArrayIPNS_28BlockNonlinearFormIntegratorEE6AppendERKS2_
FNDA:0,_ZN4mfem5ArrayIPNS_28BlockNonlinearFormIntegratorEE8GrowSizeEi
FNDA:0,_ZN4mfem5ArrayIbE7SetSizeEiRKb
FNDA:0,_ZN4mfem5ArrayIbE8GrowSizeEi
FNDA:0,_ZN4mfem5ArrayIdEC2ERKS1_
FNDA:0,_ZN4mfem5ArrayIiE6AppendERKi
FNDA:0,_ZN4mfem5ArrayIiEC2IdLi6EEERAT0__KT_
FNDA:0,_ZN4mfem5ArrayIiEC2IiLi7EEERAT0__KT_
FNDA:64,_ZN4mfem5ArrayIiEC2ERKS1_
FNDA:656,_ZN4mfem5ArrayIiE7SetSizeEiNS_10MemoryTypeE
FNDA:656,_ZNK4mfem5ArrayIiE4CopyERS1_
FNDA:156622,_ZN4mfem5ArrayIiE8GrowSizeEi
FNF:29
FNH:4
DA:55,128
DA:64,11776
DA:70,64
DA:71,64
DA:80,0
DA:81,0
DA:99,11776
DA:102,0
DA:109,0
DA:115,0
DA:141,59472
DA:156,656
DA:311,0
DA:312,0
DA:350,0
DA:361,0
DA:371,0
DA:434,0
DA:435,0
DA:642,64
DA:643,64
DA:645,64
DA:646,64
DA:647,64
DA:648,64
DA:659,0
DA:661,0
DA:662,0
DA:665,156622
DA:667,156622
DA:668,156622
DA:669,156622
DA:670,156622
DA:671,156622
DA:672,156622
DA:673,156622
DA:684,0
DA:687,0
DA:689,0
DA:691,0
DA:695,0
DA:698,0
DA:700,0
DA:702,0
DA:704,0
DA:706,0
DA:709,0
DA:710,0
DA:713,656
DA:716,656
DA:718,656
DA:720,288
DA:721,288
DA:724,368
DA:725,368
DA:726,368
DA:728,368
DA:729,368
DA:733,0
DA:734,0
DA:736,368
DA:740,58224
DA:744,58224
DA:748,0
DA:752,0
DA:756,0
DA:758,0
DA:759,0
DA:760,0
DA:789,0
DA:792,0
DA:851,0
DA:853,0
DA:854,0
DA:855,0
DA:856,0
DA:857,0
DA:861,656
DA:863,656
DA:864,656
DA:865,656
DA:866,656
DA:895,0
DA:897,0
DA:899,0
DA:921,0
DA:927,0
LF:87
LH:39
end_of_record
TN:
SF:/root/mfem/general/device.hpp
FNF:0
FNH:0
DA:150,0
DA:258,0
DA:259,0
DA:264,0
DA:268,0
DA:281,0
DA:301,0
DA:303,0
DA:305,0
DA:309,0
DA:310,0
DA:319,0
DA:321,0
DA:336,0
DA:338,0
DA:353,0
DA:355,0
LF:17
LH:0
end_of_record
TN:
SF:/root/mfem/general/forall.hpp
FNF:0
FNH:0
LF:0
LH:0
end_of_record
TN:
SF:/root/mfem/general/globals.hpp
FN:54,_ZN4mfem9OutStream7DisableEv
FNDA:1,_ZN4mfem9OutStream7DisableEv
FNF:1
FNH:1
DA:54,1
DA:56,1
DA:57,1
DA:59,1
LF:4
LH:4
end_of_record
TN:
SF:/root/mfem/general/mem_alloc.hpp
FN:93,_ZN4mfem5StackIPNS_11TetrahedronELi1024EE5ClearEv
FN:190,_ZN4mfem8MemAllocINS_11TetrahedronELi1024EE5ClearEv
FNDA:64,_ZN4mfem8MemAllocINS_11TetrahedronELi1024EE5ClearEv
FNDA:128,_ZN4mfem5StackIPNS_11TetrahedronELi1024EE5ClearEv
FNF:2
FNH:2
DA:37,64
DA:52,64
DA:93,128
DA:96,144
DA:98,16
DA:99,16
DA:101,128
DA:103,0
DA:104,0
DA:106,128
DA:107,128
DA:108,128
DA:141,16400
DA:156,64
DA:162,64
DA:190,64
DA:193,80
DA:195,16
DA:196,16
DA:197,16
DA:199,64
DA:200,64
DA:201,64
LF:23
LH:21
end_of_record
TN:
SF:/root/mfem/general/mem_manager.hpp
FN:881,_ZN4mfem6MemoryINS_10RefinementEE3NewEi
FN:881,_ZN4mfem6MemoryINS_16IntegrationPointEE3NewEi
FN:881,_ZN4mfem6MemoryIPNS_10EliminatorEE3NewEi
FN:881,_ZN4mfem6MemoryIPNS_14HypreParMatrixEE3NewEi
FN:881,_ZN4mfem6MemoryIPNS_21ParFiniteElementSpaceEE3NewEi
FN:881,_ZN4mfem6MemoryIdE3NewEi
FN:881,_ZN4mfem6MemoryIiE3NewEi
FN:891,_ZN4mfem6MemoryINS_10RefinementEE3NewEiNS_10MemoryTypeE
FN:891,_ZN4mfem6MemoryINS_16IntegrationPointEE3NewEiNS_10MemoryTypeE
FN:891,_ZN4mfem6MemoryIPNS_10EliminatorEE3NewEiNS_10MemoryTypeE
FN:891,_ZN4mfem6MemoryIPNS_11CoefficientEE3NewEiNS_10MemoryTypeE
FN:891,_ZN4mfem6MemoryIPNS_11DenseMatrixEE3NewEiNS_10MemoryTypeE
FN:891,_ZN4mfem6MemoryIPNS_17MatrixCoefficientEE3NewEiNS_10MemoryTypeE
FN:891,_ZN4mfem6MemoryIPNS_17VectorCoefficientEE3NewEiNS_10MemoryTypeE
FN:891,_ZN4mfem6MemoryIPNS_22BilinearFormIntegratorEE3NewEiNS_10MemoryTypeE
FN:891,_ZN4mfem6MemoryIPNS_23NonlinearFormIntegratorEE3NewEiNS_10MemoryTypeE
FN:891,_ZN4mfem6MemoryIPNS_28BlockNonlinearFormIntegratorEE3NewEiNS_10MemoryTypeE
FN:891,_ZN4mfem6MemoryIbE3NewEiNS_10MemoryTypeE
FN:891,_ZN4mfem6MemoryIdE3NewEiNS_10MemoryTypeE
FN:891,_ZN4mfem6MemoryIiE3NewEiNS_10MemoryTypeE
FN:914,_ZN4mfem6MemoryIdE4WrapEPdib
FN:914,_ZN4mfem6MemoryIiE4WrapEPiib
FN:975,_ZN4mfem6MemoryIdE9MakeAliasERKS1_ii
FN:1030,_ZN4mfem6MemoryINS_10RefinementEE6DeleteEv
FN:1030,_ZN4mfem6MemoryINS_16IntegrationPointEE6DeleteEv
FN:1030,_ZN4mfem6MemoryINS_4Mesh10NCFaceInfoEE6DeleteEv
FN:1030,_ZN4mfem6MemoryINS_4Mesh8FaceInfoEE6DeleteEv
FN:1030,_ZN4mfem6MemoryINS_6TripleIiiiEEE6DeleteEv
FN:1030,_ZN4mfem6MemoryINS_6VertexEE6DeleteEv
FN:1030,_ZN4mfem6MemoryINS_8Geometry4TypeEE6DeleteEv
FN:1030,_ZN4mfem6MemoryINS_9EmbeddingEE6DeleteEv
FN:1030,_ZN4mfem6MemoryIPNS_10EliminatorEE6DeleteEv
FN:1030,_ZN4mfem6MemoryIPNS_11CoefficientEE6DeleteEv
FN:1030,_ZN4mfem6MemoryIPNS_11DenseMatrixEE6DeleteEv
FN:1030,_ZN4mfem6MemoryIPNS_14HypreParMatrixEE6DeleteEv
FN:1030,_ZN4mfem6MemoryIPNS_16GeometricFactorsEE6DeleteEv
FN:1030,_ZN4mfem6MemoryIPNS_17DofTransformationEE6DeleteEv
FN:1030,_ZN4mfem6MemoryIPNS_17MatrixCoefficientEE6DeleteEv
FN:1030,_ZN4mfem6MemoryIPNS_17VectorCoefficientEE6DeleteEv
FN:1030,_ZN4mfem6MemoryIPNS_20FaceGeometricFactorsEE6DeleteEv
FN:1030,_ZN4mfem6MemoryIPNS_21ParFiniteElementSpaceEE6DeleteEv
FN:1030,_ZN4mfem6MemoryIPNS_22BilinearFormIntegratorEE6DeleteEv
FN:1030,_ZN4mfem6MemoryIPNS_22QuadratureInterpolatorEE6DeleteEv
FN:1030,_ZN4mfem6MemoryIPNS_23NonlinearFormIntegratorEE6DeleteEv
FN:1030,_ZN4mfem6MemoryIPNS_26FaceQuadratureInterpolatorEE6DeleteEv
FN:1030,_ZN4mfem6MemoryIPNS_28BlockNonlinearFormIntegratorEE6DeleteEv
FN:1030,_ZN4mfem6MemoryIPNS_5ArrayIiEEE6DeleteEv
FN:1030,_ZN4mfem6MemoryIPNS_6VectorEE6DeleteEv
FN:1030,_ZN4mfem6MemoryIPNS_7ElementEE6DeleteEv
FN:1030,_ZN4mfem6MemoryIbE6DeleteEv
FN:1030,_ZN4mfem6MemoryIcE6DeleteEv
FN:1030,_ZN4mfem6MemoryIdE6DeleteEv
FN:1030,_ZN4mfem6MemoryIiE6DeleteEv
FN:1108,_ZN4mfem6MemoryIdE9ReadWriteENS_11MemoryClassEi
FN:1121,_ZNK4mfem6MemoryIdE4ReadENS_11MemoryClassEi
FN:1121,_ZNK4mfem6MemoryIiE4ReadENS_11MemoryClassEi
FN:1134,_ZN4mfem6MemoryIdE5WriteENS_11MemoryClassEi
FN:1172,_ZNK4mfem6MemoryINS_10RefinementEE13GetMemoryTypeEv
FN:1172,_ZNK4mfem6MemoryINS_16IntegrationPointEE13GetMemoryTypeEv
FN:1172,_ZNK4mfem6MemoryIPNS_10EliminatorEE13GetMemoryTypeEv
FN:1172,_ZNK4mfem6MemoryIPNS_11CoefficientEE13GetMemoryTypeEv
FN:1172,_ZNK4mfem6MemoryIPNS_11DenseMatrixEE13GetMemoryTypeEv
FN:1172,_ZNK4mfem6MemoryIPNS_17MatrixCoefficientEE13GetMemoryTypeEv
FN:1172,_ZNK4mfem6MemoryIPNS_17VectorCoefficientEE13GetMemoryTypeEv
FN:1172,_ZNK4mfem6MemoryIPNS_22BilinearFormIntegratorEE13GetMemoryTypeEv
FN:1172,_ZNK4mfem6MemoryIPNS_23NonlinearFormIntegratorEE13GetMemoryTypeEv
FN:1172,_ZNK4mfem6MemoryIPNS_28BlockNonlinearFormIntegratorEE13GetMemoryTypeEv
FN:1172,_ZNK4mfem6MemoryIbE13GetMemoryTypeEv
FN:1172,_ZNK4mfem6MemoryIdE13GetMemoryTypeEv
FN:1172,_ZNK4mfem6MemoryIiE13GetMemoryTypeEv
FN:1198,_ZN4mfem6MemoryINS_10RefinementEE8CopyFromERKS2_i
FN:1198,_ZN4mfem6MemoryINS_16IntegrationPointEE8CopyFromERKS2_i
FN:1198,_ZN4mfem6MemoryIPNS_10EliminatorEE8CopyFromERKS3_i
FN:1198,_ZN4mfem6MemoryIPNS_11CoefficientEE8CopyFromERKS3_i
FN:1198,_ZN4mfem6MemoryIPNS_11DenseMatrixEE8CopyFromERKS3_i
FN:1198,_ZN4mfem6MemoryIPNS_17MatrixCoefficientEE8CopyFromERKS3_i
FN:1198,_ZN4mfem6MemoryIPNS_17VectorCoefficientEE8CopyFromERKS3_i
FN:1198,_ZN4mfem6MemoryIPNS_22BilinearFormIntegratorEE8CopyFromERKS3_i
FN:1198,_ZN4mfem6MemoryIPNS_23NonlinearFormIntegratorEE8CopyFromERKS3_i
FN:1198,_ZN4mfem6MemoryIPNS_28BlockNonlinearFormIntegratorEE8CopyFromERKS3_i
FN:1198,_ZN4mfem6MemoryIbE8CopyFromERKS1_i
FN:1198,_ZN4mfem6MemoryIdE8CopyFromERKS1_i
FN:1198,_ZN4mfem6MemoryIiE8CopyFromERKS1_i
FN:1238,_ZNK4mfem6MemoryIiE6CopyToERS1_i
FNDA:0,_ZN4mfem6MemoryINS_10RefinementEE3NewEi
FNDA:0,_ZN4mfem6MemoryINS_10RefinementEE3NewEiNS_10MemoryTypeE
FNDA:0,_ZN4mfem6MemoryINS_10RefinementEE6DeleteEv
FNDA:0,_ZN4mfem6MemoryINS_10RefinementEE8CopyFromERKS2_i
FNDA:0,_ZN4mfem6MemoryINS_16IntegrationPointEE3NewEi
FNDA:0,_ZN4mfem6MemoryINS_16IntegrationPointEE3NewEiNS_10MemoryTypeE
FNDA:0,_ZN4mfem6MemoryINS_16IntegrationPointEE6DeleteEv
FNDA:0,_ZN4mfem6MemoryINS_16IntegrationPointEE8CopyFromERKS2_i
FNDA:0,_ZN4mfem6MemoryINS_8Geometry4TypeEE6DeleteEv
FNDA:0,_ZN4mfem6MemoryIPNS_10EliminatorEE3NewEi
FNDA:0,_ZN4mfem6MemoryIPNS_10EliminatorEE3NewEiNS_10MemoryTypeE
FNDA:0,_ZN4mfem6MemoryIPNS_10EliminatorEE6DeleteEv
FNDA:0,_ZN4mfem6MemoryIPNS_10EliminatorEE8CopyFromERKS3_i
FNDA:0,_ZN4mfem6MemoryIPNS_11CoefficientEE3NewEiNS_10MemoryTypeE
FNDA:0,_ZN4mfem6MemoryIPNS_11CoefficientEE6DeleteEv
FNDA:0,_ZN4mfem6MemoryIPNS_11CoefficientEE8CopyFromERKS3_i
FNDA:0,_ZN4mfem6MemoryIPNS_11DenseMatrixEE3NewEiNS_10MemoryTypeE
FNDA:0,_ZN4mfem6MemoryIPNS_11DenseMatrixEE6DeleteEv
FNDA:0,_ZN4mfem6MemoryIPNS_11DenseMatrixEE8CopyFromERKS3_i
FNDA:0,_ZN4mfem6MemoryIPNS_14HypreParMatrixEE3NewEi
FNDA:0,_ZN4mfem6MemoryIPNS_14HypreParMatrixEE6DeleteEv
FNDA:0,_ZN4mfem6MemoryIPNS_17DofTransformationEE6DeleteEv
FNDA:0,_ZN4mfem6MemoryIPNS_17MatrixCoefficientEE3NewEiNS_10MemoryTypeE
FNDA:0,_ZN4mfem6MemoryIPNS_17MatrixCoefficientEE6DeleteEv
FNDA:0,_ZN4mfem6MemoryIPNS_17MatrixCoefficientEE8CopyFromERKS3_i
FNDA:0,_ZN4mfem6MemoryIPNS_17VectorCoefficientEE3NewEiNS_10MemoryTypeE
FNDA:0,_ZN4mfem6MemoryIPNS_17VectorCoefficientEE6DeleteEv
FNDA:0,_ZN4mfem6MemoryIPNS_17VectorCoefficientEE8CopyFromERKS3_i
FNDA:0,_ZN4mfem6MemoryIPNS_21ParFiniteElementSpaceEE3NewEi
FNDA:0,_ZN4mfem6MemoryIPNS_21ParFiniteElementSpaceEE6DeleteEv
FNDA:0,_ZN4mfem6MemoryIPNS_22BilinearFormIntegratorEE3NewEiNS_10MemoryTypeE
FNDA:0,_ZN4mfem6MemoryIPNS_22BilinearFormIntegratorEE6DeleteEv
FNDA:0,_ZN4mfem6MemoryIPNS_22BilinearFormIntegratorEE8CopyFromERKS3_i
FNDA:0,_ZN4mfem6MemoryIPNS_22QuadratureInterpolatorEE6DeleteEv
FNDA:0,_ZN4mfem6MemoryIPNS_23NonlinearFormIntegratorEE3NewEiNS_10MemoryTypeE
FNDA:0,_ZN4mfem6MemoryIPNS_23NonlinearFormIntegratorEE6DeleteEv
FNDA:0,_ZN4mfem6MemoryIPNS_23NonlinearFormIntegratorEE8CopyFromERKS3_i
FNDA:0,_ZN4mfem6MemoryIPNS_26FaceQuadratureInterpolatorEE6DeleteEv
FNDA:0,_ZN4mfem6MemoryIPNS_28BlockNonlinearFormIntegratorEE3NewEiNS_10MemoryTypeE
FNDA:0,_ZN4mfem6MemoryIPNS_28BlockNonlinearFormIntegratorEE6DeleteEv
FNDA:0,_ZN4mfem6MemoryIPNS_28BlockNonlinearFormIntegratorEE8CopyFromERKS3_i
FNDA:0,_ZN4mfem6MemoryIPNS_5ArrayIiEEE6DeleteEv
FNDA:0,_ZN4mfem6MemoryIPNS_6VectorEE6DeleteEv
FNDA:0,_ZN4mfem6MemoryIbE3NewEiNS_10MemoryTypeE
FNDA:0,_ZN4mfem6MemoryIbE6DeleteEv
FNDA:0,_ZN4mfem6MemoryIbE8CopyFromERKS1_i
FNDA:0,_ZN4mfem6MemoryIcE6DeleteEv
FNDA:0,_ZN4mfem6MemoryIdE4WrapEPdib
FNDA:0,_ZN4mfem6MemoryIdE5WriteENS_11MemoryClassEi
FNDA:0,_ZN4mfem6MemoryIdE9MakeAliasERKS1_ii
FNDA:0,_ZN4mfem6MemoryIdE9ReadWriteENS_11MemoryClassEi
FNDA:0,_ZN4mfem6MemoryIiE4WrapEPiib
FNDA:0,_ZNK4mfem6MemoryINS_10RefinementEE13GetMemoryTypeEv
FNDA:0,_ZNK4mfem6MemoryINS_16IntegrationPointEE13GetMemoryTypeEv
FNDA:0,_ZNK4mfem6MemoryIPNS_10EliminatorEE13GetMemoryTypeEv
FNDA:0,_ZNK4mfem6MemoryIPNS_11CoefficientEE13GetMemoryTypeEv
FNDA:0,_ZNK4mfem6MemoryIPNS_11DenseMatrixEE13GetMemoryTypeEv
FNDA:0,_ZNK4mfem6MemoryIPNS_17MatrixCoefficientEE13GetMemoryTypeEv
FNDA:0,_ZNK4mfem6MemoryIPNS_17VectorCoefficientEE13GetMemoryTypeEv
FNDA:0,_ZNK4mfem6MemoryIPNS_22BilinearFormIntegratorEE13GetMemoryTypeEv
FNDA:0,_ZNK4mfem6MemoryIPNS_23NonlinearFormIntegratorEE13GetMemoryTypeEv
FNDA:0,_ZNK4mfem6MemoryIPNS_28BlockNonlinearFormIntegratorEE13GetMemoryTypeEv
FNDA:0,_ZNK4mfem6MemoryIbE13GetMemoryTypeEv
FNDA:0,_ZNK4mfem6MemoryIdE4ReadENS_11MemoryClassEi
FNDA:0,_ZNK4mfem6MemoryIiE4ReadENS_11MemoryClassEi
FNDA:64,_ZN4mfem6MemoryINS_4Mesh10NCFaceInfoEE6DeleteEv
FNDA:64,_ZN4mfem6MemoryINS_6TripleIiiiEEE6DeleteEv
FNDA:64,_ZN4mfem6MemoryINS_6VertexEE6DeleteEv
FNDA:64,_ZN4mfem6MemoryINS_9EmbeddingEE6DeleteEv
FNDA:64,_ZN4mfem6MemoryIPNS_16GeometricFactorsEE6DeleteEv
FNDA:64,_ZN4mfem6MemoryIPNS_20FaceGeometricFactorsEE6DeleteEv
FNDA:64,_ZN4mfem6MemoryIiE3NewEi
FNDA:192,_ZN4mfem6MemoryINS_4Mesh8FaceInfoEE6DeleteEv
FNDA:192,_ZN4mfem6MemoryIPNS_7ElementEE6DeleteEv
FNDA:192,_ZN4mfem6MemoryIdE3NewEi
FNDA:1496,_ZNK4mfem6MemoryIiE6CopyToERS1_i
FNDA:9590,_ZN4mfem6MemoryIdE3NewEiNS_10MemoryTypeE
FNDA:9590,_ZNK4mfem6MemoryIdE13GetMemoryTypeEv
FNDA:16134,_ZN4mfem6MemoryIdE6DeleteEv
FNDA:157054,_ZN4mfem6MemoryIiE3NewEiNS_10MemoryTypeE
FNDA:157998,_ZNK4mfem6MemoryIiE13GetMemoryTypeEv
FNDA:421547,_ZN4mfem6MemoryIiE8CopyFromERKS1_i
FNDA:706694,_ZN4mfem6MemoryIiE6DeleteEv
FNDA:992684,_ZN4mfem6MemoryIdE8CopyFromERKS1_i
FNF:84
FNH:19
DA:85,166644
DA:88,0
DA:90,0
DA:202,12800
DA:238,156622
DA:266,0
DA:267,0
DA:275,0
DA:297,9958
DA:300,167492
DA:301,167300
DA:304,166868
DA:576,0
DA:581,166900
DA:583,166900
DA:782,0
DA:783,0
DA:822,0
DA:838,13056
DA:839,0
DA:863,12800
DA:865,12800
DA:866,12800
DA:867,12800
DA:868,12608
DA:872,723596
DA:874,723596
DA:876,723596
DA:877,723596
DA:881,256
DA:883,256
DA:884,256
DA:885,256
DA:886,256
DA:887,0
DA:888,256
DA:891,166644
DA:893,166644
DA:894,166644
DA:895,166644
DA:896,166644
DA:897,166644
DA:898,166644
DA:899,166644
DA:900,166644
DA:914,0
DA:916,0
DA:917,0
DA:918,0
DA:919,0
DA:928,0
DA:930,0
DA:931,0
DA:933,0
DA:975,0
DA:982,0
DA:983,0
DA:984,0
DA:985,0
DA:987,0
DA:991,0
DA:1000,0
DA:1001,0
DA:1002,0
DA:1008,0
DA:1009,0
DA:1012,0
DA:1013,0
DA:1014,0
DA:1030,723596
DA:1032,723596
DA:1033,723596
DA:1034,723596
DA:1036,723596
DA:1038,0
DA:1041,723596
DA:1043,723596
DA:1045,723596
DA:1046,723596
DA:1059,834184
DA:1063,58224
DA:1067,1369520
DA:1070,1369520
DA:1074,0
DA:1080,0
DA:1084,1066282
DA:1087,0
DA:1108,0
DA:1110,0
DA:1111,0
DA:1113,0
DA:1114,0
DA:1115,0
DA:1117,0
DA:1121,0
DA:1123,0
DA:1124,0
DA:1126,0
DA:1127,0
DA:1128,0
DA:1130,0
DA:1134,0
DA:1136,0
DA:1137,0
DA:1139,0
DA:1140,0
DA:1141,0
DA:1143,0
DA:1147,0
DA:1149,0
DA:1154,0
DA:1156,0
DA:1157,0
DA:1172,167588
DA:1174,167588
DA:1175,0
DA:1198,1414231
DA:1200,1414231
DA:1201,1414231
DA:1203,1414231
DA:1207,1066282
DA:1213,0
DA:1215,1414231
DA:1238,1496
DA:1240,1496
DA:1241,1496
DA:1242,1496
LF:127
LH:60
end_of_record
TN:
SF:/root/mfem/general/table.hpp
FNF:0
FNH:0
DA:56,128
DA:108,0
DA:110,0
LF:3
LH:1
end_of_record
TN:
SF:/root/mfem/general/text.hpp
FN:62,_ZN4mfem6to_intERKNSt7__cxx1112basic_stringIcSt11char_traitsIcESaIcEEE
FNDA:0,_ZN4mfem6to_intERKNSt7__cxx1112basic_stringIcSt11char_traitsIcESaIcEEE
FNF:1
FNH:0
DA:62,0
DA:64,0
DA:65,0
DA:66,0
LF:4
LH:0
end_of_record
TN:
SF:/root/mfem/general/tinyxml2.h
FNF:0
FNH:0
DA:782,0
DA:783,0
DA:1269,0
DA:1270,0
DA:1892,0
DA:1893,0
LF:6
LH:0
end_of_record
TN:
SF:/root/mfem/general/zstr.hpp
FN:102,_ZNK14strict_fstream9Exception4whatEv
FNDA:0,_ZNK14strict_fstream9Exception4whatEv
FNF:1
FNH:0
DA:102,0
LF:1
LH:0
end_of_record
TN:
SF:/root/mfem/linalg/auxiliary.hpp
FN:208,_ZNK4mfem13MatrixFreeAMS4MultERKNS_6VectorERS1_
FNDA:0,_ZNK4mfem13MatrixFreeAMS4MultERKNS_6VectorERS1_
FNF:1
FNH:0
DA:208,0
LF:1
LH:0
end_of_record
TN:
SF:/root/mfem/linalg/blockmatrix.hpp
FNF:0
FNH:0
DA:46,0
DA:48,0
LF:2
LH:0
end_of_record
TN:
SF:/root/mfem/linalg/blockvector.hpp
FNF:0
FNH:0
DA:90,0
LF:1
LH:0
end_of_record
TN:
SF:/root/mfem/linalg/complex_densemat.hpp
FN:93,_ZN4mfem14ComplexFactors6FactorEid
FN:99,_ZNK4mfem14ComplexFactors3DetEi
FN:105,_ZNK4mfem14ComplexFactors5SolveEiiPdS1_
FN:110,_ZNK4mfem14ComplexFactors16GetInverseMatrixEiPdS1_
FN:115,_ZN4mfem14ComplexFactorsD0Ev
FN:115,_ZN4mfem14ComplexFactorsD2Ev
FNDA:0,_ZN4mfem14ComplexFactors6FactorEid
FNDA:0,_ZN4mfem14ComplexFactorsD0Ev
FNDA:0,_ZN4mfem14ComplexFactorsD2Ev
FNDA:0,_ZNK4mfem14ComplexFactors16GetInverseMatrixEiPdS1_
FNDA:0,_ZNK4mfem14ComplexFactors3DetEi
FNDA:0,_ZNK4mfem14ComplexFactors5SolveEiiPdS1_
FNF:6
FNH:0
DA:26,0
DA:30,0
DA:32,0
DA:82,0
DA:83,0
DA:93,0
DA:95,0
DA:96,0
DA:99,0
DA:101,0
DA:102,0
DA:105,0
DA:107,0
DA:108,0
DA:110,0
DA:112,0
DA:113,0
DA:115,0
DA:116,0
DA:117,0
DA:118,0
DA:123,0
DA:137,0
DA:138,0
DA:186,0
DA:194,0
DA:195,0
LF:27
LH:0
end_of_record
TN:
SF:/root/mfem/linalg/constraints.hpp
FN:61,_ZN4mfem17ConstrainedSolverD0Ev
FN:61,_ZN4mfem17ConstrainedSolverD2Ev
FN:235,_ZN4mfem17EliminationSolver11SetOperatorERKNS_8OperatorE
FN:238,_ZN4mfem17EliminationSolver17SetPreconditionerERNS_6SolverE
FN:271,_ZNK4mfem19EliminationCGSolver19BuildPreconditionerEv
FN:279,_ZNK4mfem19EliminationCGSolver11BuildKrylovEv
FN:299,_ZNK4mfem22EliminationGMRESSolver19BuildPreconditionerEv
FN:307,_ZNK4mfem22EliminationGMRESSolver11BuildKrylovEv
FN:335,_ZN4mfem24PenaltyConstrainedSolver11SetOperatorERKNS_8OperatorE
FN:338,_ZN4mfem24PenaltyConstrainedSolver17SetPreconditionerERNS_6SolverE
FN:384,_ZNK4mfem16PenaltyPCGSolver19BuildPreconditionerEv
FN:392,_ZNK4mfem16PenaltyPCGSolver11BuildKrylovEv
FN:423,_ZNK4mfem18PenaltyGMRESSolver19BuildPreconditionerEv
FN:431,_ZNK4mfem18PenaltyGMRESSolver11BuildKrylovEv
FNDA:0,_ZN4mfem17ConstrainedSolverD0Ev
FNDA:0,_ZN4mfem17ConstrainedSolverD2Ev
FNDA:0,_ZN4mfem17EliminationSolver11SetOperatorERKNS_8OperatorE
FNDA:0,_ZN4mfem17EliminationSolver17SetPreconditionerERNS_6SolverE
FNDA:0,_ZN4mfem24PenaltyConstrainedSolver11SetOperatorERKNS_8OperatorE
FNDA:0,_ZN4mfem24PenaltyConstrainedSolver17SetPreconditionerERNS_6SolverE
FNDA:0,_ZNK4mfem16PenaltyPCGSolver11BuildKrylovEv
FNDA:0,_ZNK4mfem16PenaltyPCGSolver19BuildPreconditionerEv
FNDA:0,_ZNK4mfem18PenaltyGMRESSolver11BuildKrylovEv
FNDA:0,_ZNK4mfem18PenaltyGMRESSolver19BuildPreconditionerEv
FNDA:0,_ZNK4mfem19EliminationCGSolver11BuildKrylovEv
FNDA:0,_ZNK4mfem19EliminationCGSolver19BuildPreconditionerEv
FNDA:0,_ZNK4mfem22EliminationGMRESSolver11BuildKrylovEv
FNDA:0,_ZNK4mfem22EliminationGMRESSolver19BuildPreconditionerEv
FNF:14
FNH:0
DA:61,0
DA:76,0
DA:168,0
DA:235,0
DA:236,0
DA:238,0
DA:239,0
DA:260,0
DA:263,0
DA:265,0
DA:267,0
DA:271,0
DA:273,0
DA:274,0
DA:275,0
DA:276,0
DA:279,0
DA:280,0
DA:299,0
DA:301,0
DA:302,0
DA:303,0
DA:304,0
DA:307,0
DA:308,0
DA:335,0
DA:336,0
DA:338,0
DA:339,0
DA:362,0
DA:365,0
DA:366,0
DA:368,0
DA:371,0
DA:372,0
DA:374,0
DA:384,0
DA:386,0
DA:387,0
DA:388,0
DA:389,0
DA:392,0
DA:393,0
DA:423,0
DA:425,0
DA:426,0
DA:427,0
DA:428,0
DA:431,0
DA:432,0
LF:50
LH:0
end_of_record
TN:
SF:/root/mfem/linalg/densemat.hpp
FN:64,_ZN4mfem11DenseMatrixC2ILi2ELi3EEERAT__AT0__Kd
FN:64,_ZN4mfem11DenseMatrixC2ILi4ELi4EEERAT__AT0__Kd
FN:266,_ZNK4mfem11DenseMatrix5FNormEv
FN:991,_ZN4mfem11DenseTensorC2Eiii
FN:1013,_ZN4mfem11DenseTensorC2ERKS0_
FN:1030,_ZN4mfem11DenseTensor7SetSizeEiiiNS_10MemoryTypeE
FN:1039,_ZN4mfem11DenseTensor15UseExternalDataEPdiii
FNDA:0,_ZN4mfem11DenseMatrixC2ILi2ELi3EEERAT__AT0__Kd
FNDA:0,_ZN4mfem11DenseMatrixC2ILi4ELi4EEERAT__AT0__Kd
FNDA:0,_ZN4mfem11DenseTensor15UseExternalDataEPdiii
FNDA:0,_ZN4mfem11DenseTensor7SetSizeEiiiNS_10MemoryTypeE
FNDA:0,_ZN4mfem11DenseTensorC2ERKS0_
FNDA:0,_ZN4mfem11DenseTensorC2Eiii
FNDA:0,_ZNK4mfem11DenseMatrix5FNormEv
FNF:7
FNH:0
DA:58,0
DA:59,0
DA:64,0
DA:67,0
DA:69,0
DA:71,0
DA:74,0
DA:80,0
DA:82,0
DA:83,0
DA:105,0
DA:111,0
DA:112,0
DA:115,0
DA:198,0
DA:199,0
DA:266,0
DA:269,0
DA:312,0
DA:313,0
DA:626,0
DA:650,0
DA:656,0
DA:670,0
DA:761,0
DA:769,0
DA:986,0
DA:987,0
DA:988,0
DA:991,0
DA:992,0
DA:994,0
DA:995,0
DA:996,0
DA:1013,0
DA:1014,0
DA:1016,0
DA:1017,0
DA:1019,0
DA:1020,0
DA:1022,0
DA:1024,0
DA:1025,0
DA:1026,0
DA:1028,0
DA:1030,0
DA:1032,0
DA:1033,0
DA:1034,0
DA:1035,0
DA:1036,0
DA:1037,0
DA:1039,0
DA:1041,0
DA:1042,0
DA:1043,0
DA:1044,0
DA:1045,0
DA:1067,0
DA:1069,0
DA:1070,0
DA:1071,0
DA:1072,0
DA:1095,0
DA:1124,0
DA:1125,0
DA:1142,0
DA:1170,0
DA:1172,0
DA:1173,0
LF:70
LH:0
end_of_record
TN:
SF:/root/mfem/linalg/dtensor.hpp
FNF:0
FNH:0
DA:26,0
DA:31,0
DA:32,0
DA:42,0
DA:58,0
DA:60,0
DA:61,0
DA:71,0
DA:73,0
DA:94,0
DA:98,0
DA:99,0
DA:100,0
DA:114,0
DA:117,0
DA:131,0
DA:133,0
LF:17
LH:0
end_of_record
TN:
SF:/root/mfem/linalg/handle.hpp
FN:132,_ZN4mfem14OperatorHandle7SetTypeENS_8Operator4TypeE
FNDA:0,_ZN4mfem14OperatorHandle7SetTypeENS_8Operator4TypeE
FNF:1
FNH:0
DA:45,0
DA:47,0
DA:48,0
DA:49,0
DA:55,128
DA:56,128
DA:60,0
DA:61,0
DA:77,0
DA:87,0
DA:90,0
DA:93,0
DA:108,0
DA:120,0
DA:124,0
DA:126,0
DA:127,0
DA:128,0
DA:132,0
DA:134,0
DA:135,0
DA:136,0
DA:145,0
DA:147,0
DA:148,0
LF:25
LH:2
end_of_record
TN:
SF:/root/mfem/linalg/hypre.hpp
FN:602,_ZNK4mfem14HypreParMatrix16AssembleDiagonalERNS_6VectorE
FN:652,_ZNK4mfem14HypreParMatrix14GetMemoryClassEv
FN:694,_ZNK4mfem14HypreParMatrix4MultERKNS_6VectorERS1_
FN:701,_ZNK4mfem14HypreParMatrix13MultTransposeERKNS_6VectorERS1_
FN:704,_ZNK4mfem14HypreParMatrix7AddMultERKNS_6VectorERS1_d
FN:706,_ZNK4mfem14HypreParMatrix16AddMultTransposeERKNS_6VectorERS1_d
FN:896,_ZN4mfem14HypreParMatrixD0Ev
FN:896,_ZN4mfem14HypreParMatrixD2Ev
FN:1158,_ZN4mfem11HypreSolver11SetOperatorERKNS_8OperatorE
FN:1161,_ZNK4mfem11HypreSolver14GetMemoryClassEv
FN:1197,_ZNK4mfem13HypreTriSolvecvP19hypre_Solver_structEv
FN:1199,_ZNK4mfem13HypreTriSolve8SetupFcnEv
FN:1201,_ZNK4mfem13HypreTriSolve8SolveFcnEv
FN:1210,_ZN4mfem13HypreTriSolveD0Ev
FN:1210,_ZN4mfem13HypreTriSolveD2Ev
FN:1410,_ZNK4mfem13HypreIdentitycvP19hypre_Solver_structEv
FN:1412,_ZNK4mfem13HypreIdentity8SetupFcnEv
FN:1414,_ZNK4mfem13HypreIdentity8SolveFcnEv
FN:1417,_ZN4mfem13HypreIdentityD0Ev
FN:1417,_ZN4mfem13HypreIdentityD2Ev
FN:1441,_ZN4mfem14HypreDiagScaleD0Ev
FN:1441,_ZN4mfem14HypreDiagScaleD2Ev
FN:1575,_ZNK4mfem8HypreILUcvP19hypre_Solver_structEv
FNDA:0,_ZN4mfem11HypreSolver11SetOperatorERKNS_8OperatorE
FNDA:0,_ZN4mfem13HypreIdentityD0Ev
FNDA:0,_ZN4mfem13HypreIdentityD2Ev
FNDA:0,_ZN4mfem13HypreTriSolveD0Ev
FNDA:0,_ZN4mfem13HypreTriSolveD2Ev
FNDA:0,_ZN4mfem14HypreDiagScaleD0Ev
FNDA:0,_ZN4mfem14HypreDiagScaleD2Ev
FNDA:0,_ZN4mfem14HypreParMatrixD0Ev
FNDA:0,_ZN4mfem14HypreParMatrixD2Ev
FNDA:0,_ZNK4mfem11HypreSolver14GetMemoryClassEv
FNDA:0,_ZNK4mfem13HypreIdentity8SetupFcnEv
FNDA:0,_ZNK4mfem13HypreIdentity8SolveFcnEv
FNDA:0,_ZNK4mfem13HypreIdentitycvP19hypre_Solver_structEv
FNDA:0,_ZNK4mfem13HypreTriSolve8SetupFcnEv
FNDA:0,_ZNK4mfem13HypreTriSolve8SolveFcnEv
FNDA:0,_ZNK4mfem13HypreTriSolvecvP19hypre_Solver_structEv
FNDA:0,_ZNK4mfem14HypreParMatrix13MultTransposeERKNS_6VectorERS1_
FNDA:0,_ZNK4mfem14HypreParMatrix14GetMemoryClassEv
FNDA:0,_ZNK4mfem14HypreParMatrix16AddMultTransposeERKNS_6VectorERS1_d
FNDA:0,_ZNK4mfem14HypreParMatrix16AssembleDiagonalERNS_6VectorE
FNDA:0,_ZNK4mfem14HypreParMatrix4MultERKNS_6VectorERS1_
FNDA:0,_ZNK4mfem14HypreParMatrix7AddMultERKNS_6VectorERS1_d
FNDA:0,_ZNK4mfem8HypreILUcvP19hypre_Solver_structEv
FNF:23
FNH:0
DA:177,0
DA:178,0
DA:179,0
DA:180,0
DA:239,0
DA:254,0
DA:537,0
DA:602,0
DA:635,0
DA:636,0
DA:639,0
DA:640,0
DA:652,0
DA:694,0
DA:695,0
DA:701,0
DA:702,0
DA:704,0
DA:705,0
DA:706,0
DA:708,0
DA:896,0
DA:898,0
DA:1158,0
DA:1159,0
DA:1161,0
DA:1197,0
DA:1199,0
DA:1200,0
DA:1201,0
DA:1202,0
DA:1210,0
DA:1390,0
DA:1410,0
DA:1412,0
DA:1413,0
DA:1414,0
DA:1415,0
DA:1417,0
DA:1441,0
DA:1575,0
DA:1670,0
DA:1671,0
DA:2002,0
DA:2004,0
LF:45
LH:0
end_of_record
TN:
SF:/root/mfem/linalg/matrix.hpp
FNF:0
FNH:0
DA:27,0
DA:33,0
DA:36,0
DA:62,0
DA:68,0
DA:69,0
DA:77,0
LF:7
LH:0
end_of_record
TN:
SF:/root/mfem/linalg/ode.hpp
FN:90,_ZN4mfem9ODESolver3RunERNS_6VectorERdS3_d
FN:96,_ZN4mfem9ODESolver15GetMaxStateSizeEv
FN:97,_ZN4mfem9ODESolver12GetStateSizeEv
FN:98,_ZN4mfem9ODESolver14GetStateVectorEi
FN:103,_ZN4mfem9ODESolver14GetStateVectorEiRNS_6VectorE
FN:107,_ZN4mfem9ODESolver14SetStateVectorEiRNS_6VectorE
FN:254,_ZN4mfem20AdamsBashforthSolver15GetMaxStateSizeEv
FN:255,_ZN4mfem20AdamsBashforthSolver12GetStateSizeEv
FN:260,_ZN4mfem20AdamsBashforthSolverD0Ev
FN:260,_ZN4mfem20AdamsBashforthSolverD2Ev
FN:345,_ZN4mfem18AdamsMoultonSolver15GetMaxStateSizeEv
FN:346,_ZN4mfem18AdamsMoultonSolver12GetStateSizeEv
FN:351,_ZN4mfem18AdamsMoultonSolverD0Ev
FN:351,_ZN4mfem18AdamsMoultonSolverD2Ev
FN:541,_ZN4mfem22GeneralizedAlphaSolverC2Ed
FN:547,_ZN4mfem22GeneralizedAlphaSolver15GetMaxStateSizeEv
FN:548,_ZN4mfem22GeneralizedAlphaSolver12GetStateSizeEv
FN:703,_ZN4mfem20SecondOrderODESolver3RunERNS_6VectorES2_RdS3_d
FN:709,_ZN4mfem20SecondOrderODESolver15GetMaxStateSizeEv
FN:710,_ZN4mfem20SecondOrderODESolver12GetStateSizeEv
FN:711,_ZN4mfem20SecondOrderODESolver14GetStateVectorEi
FN:716,_ZN4mfem20SecondOrderODESolver14GetStateVectorEiRNS_6VectorE
FN:720,_ZN4mfem20SecondOrderODESolver14SetStateVectorEiRNS_6VectorE
FN:781,_ZN4mfem23GeneralizedAlpha2SolverC2Ed
FN:798,_ZN4mfem23GeneralizedAlpha2Solver15GetMaxStateSizeEv
FN:799,_ZN4mfem23GeneralizedAlpha2Solver12GetStateSizeEv
FN:827,_ZN4mfem14HHTAlphaSolverC2Ed
FN:848,_ZN4mfem14WBZAlphaSolverC2Ed
FNDA:0,_ZN4mfem14HHTAlphaSolverC2Ed
FNDA:0,_ZN4mfem14WBZAlphaSolverC2Ed
FNDA:0,_ZN4mfem18AdamsMoultonSolver12GetStateSizeEv
FNDA:0,_ZN4mfem18AdamsMoultonSolver15GetMaxStateSizeEv
FNDA:0,_ZN4mfem18AdamsMoultonSolverD0Ev
FNDA:0,_ZN4mfem18AdamsMoultonSolverD2Ev
FNDA:0,_ZN4mfem20AdamsBashforthSolver12GetStateSizeEv
FNDA:0,_ZN4mfem20AdamsBashforthSolver15GetMaxStateSizeEv
FNDA:0,_ZN4mfem20AdamsBashforthSolverD0Ev
FNDA:0,_ZN4mfem20AdamsBashforthSolverD2Ev
FNDA:0,_ZN4mfem20SecondOrderODESolver12GetStateSizeEv
FNDA:0,_ZN4mfem20SecondOrderODESolver14GetStateVectorEi
FNDA:0,_ZN4mfem20SecondOrderODESolver14GetStateVectorEiRNS_6VectorE
FNDA:0,_ZN4mfem20SecondOrderODESolver14SetStateVectorEiRNS_6VectorE
FNDA:0,_ZN4mfem20SecondOrderODESolver15GetMaxStateSizeEv
FNDA:0,_ZN4mfem20SecondOrderODESolver3RunERNS_6VectorES2_RdS3_d
FNDA:0,_ZN4mfem22GeneralizedAlphaSolver12GetStateSizeEv
FNDA:0,_ZN4mfem22GeneralizedAlphaSolver15GetMaxStateSizeEv
FNDA:0,_ZN4mfem22GeneralizedAlphaSolverC2Ed
FNDA:0,_ZN4mfem23GeneralizedAlpha2Solver12GetStateSizeEv
FNDA:0,_ZN4mfem23GeneralizedAlpha2Solver15GetMaxStateSizeEv
FNDA:0,_ZN4mfem23GeneralizedAlpha2SolverC2Ed
FNDA:0,_ZN4mfem9ODESolver12GetStateSizeEv
FNDA:0,_ZN4mfem9ODESolver14GetStateVectorEi
FNDA:0,_ZN4mfem9ODESolver14GetStateVectorEiRNS_6VectorE
FNDA:0,_ZN4mfem9ODESolver14SetStateVectorEiRNS_6VectorE
FNDA:0,_ZN4mfem9ODESolver15GetMaxStateSizeEv
FNDA:0,_ZN4mfem9ODESolver3RunERNS_6VectorERdS3_d
FNF:28
FNH:0
DA:31,0
DA:90,0
DA:92,0
DA:93,0
DA:96,0
DA:97,0
DA:98,0
DA:100,0
DA:101,0
DA:103,0
DA:105,0
DA:106,0
DA:107,0
DA:109,0
DA:110,0
DA:112,0
DA:117,0
DA:141,0
DA:150,0
DA:163,0
DA:254,0
DA:255,0
DA:260,0
DA:261,0
DA:262,0
DA:263,0
DA:264,0
DA:274,0
DA:284,0
DA:294,0
DA:304,0
DA:314,0
DA:345,0
DA:346,0
DA:351,0
DA:352,0
DA:353,0
DA:354,0
DA:355,0
DA:365,0
DA:376,0
DA:386,0
DA:396,0
DA:406,0
DA:411,0
DA:424,0
DA:459,0
DA:473,0
DA:487,0
DA:501,0
DA:515,0
DA:541,0
DA:547,0
DA:548,0
DA:635,0
DA:703,0
DA:705,0
DA:706,0
DA:709,0
DA:710,0
DA:711,0
DA:713,0
DA:714,0
DA:716,0
DA:718,0
DA:719,0
DA:720,0
DA:722,0
DA:723,0
DA:740,0
DA:752,0
DA:758,0
DA:764,0
DA:781,0
DA:782,0
DA:783,0
DA:784,0
DA:786,0
DA:787,0
DA:788,0
DA:789,0
DA:790,0
DA:798,0
DA:799,0
DA:809,0
DA:810,0
DA:811,0
DA:812,0
DA:813,0
DA:814,0
DA:827,0
DA:828,0
DA:829,0
DA:830,0
DA:832,0
DA:833,0
DA:834,0
DA:835,0
DA:836,0
DA:848,0
DA:849,0
DA:850,0
DA:851,0
DA:853,0
DA:854,0
DA:855,0
DA:856,0
DA:857,0
LF:108
LH:0
end_of_record
TN:
SF:/root/mfem/linalg/operator.hpp
FN:86,_ZNK4mfem8Operator14GetMemoryClassEv
FN:93,_ZNK4mfem8Operator13MultTransposeERKNS_6VectorERS1_
FN:122,_ZNK4mfem8Operator11GetGradientERKNS_6VectorE
FN:131,_ZNK4mfem8Operator16AssembleDiagonalERNS_6VectorE
FN:139,_ZNK4mfem8Operator15GetProlongationEv
FN:143,_ZNK4mfem8Operator14GetRestrictionEv
FN:147,_ZNK4mfem8Operator21GetOutputProlongationEv
FN:156,_ZNK4mfem8Operator29GetOutputRestrictionTransposeEv
FN:160,_ZNK4mfem8Operator20GetOutputRestrictionEv
FN:357,_ZNK4mfem21TimeDependentOperator7GetTimeEv
FN:360,_ZN4mfem21TimeDependentOperator7SetTimeEd
FN:383,_ZN4mfem21TimeDependentOperator11SetEvalModeENS0_8EvalModeE
FN:499,_ZN4mfem21TimeDependentOperatorD0Ev
FN:499,_ZN4mfem21TimeDependentOperatorD2Ev
FN:677,_ZN4mfem32SecondOrderTimeDependentOperatorD0Ev
FN:677,_ZN4mfem32SecondOrderTimeDependentOperatorD2Ev
FN:712,_ZNK4mfem16IdentityOperator4MultERKNS_6VectorERS1_
FN:715,_ZNK4mfem16IdentityOperator13MultTransposeERKNS_6VectorERS1_
FN:738,_ZNK4mfem14ScaledOperator4MultERKNS_6VectorERS1_
FN:742,_ZNK4mfem14ScaledOperator13MultTransposeERKNS_6VectorERS1_
FN:764,_ZNK4mfem17TransposeOperator4MultERKNS_6VectorERS1_
FN:768,_ZNK4mfem17TransposeOperator13MultTransposeERKNS_6VectorERS1_
FN:783,_ZNK4mfem15ProductOperator4MultERKNS_6VectorERS1_
FN:786,_ZNK4mfem15ProductOperator13MultTransposeERKNS_6VectorERS1_
FN:811,_ZNK4mfem11RAPOperator4MultERKNS_6VectorERS1_
FN:832,_ZNK4mfem11RAPOperator13MultTransposeERKNS_6VectorERS1_
FN:853,_ZNK4mfem21TripleProductOperator4MultERKNS_6VectorERS1_
FN:856,_ZNK4mfem21TripleProductOperator13MultTransposeERKNS_6VectorERS1_
FN:928,_ZN4mfem19ConstrainedOperatorD0Ev
FN:928,_ZN4mfem19ConstrainedOperatorD2Ev
FN:981,_ZN4mfem30RectangularConstrainedOperatorD0Ev
FN:981,_ZN4mfem30RectangularConstrainedOperatorD2Ev
FNDA:0,_ZN4mfem19ConstrainedOperatorD0Ev
FNDA:0,_ZN4mfem19ConstrainedOperatorD2Ev
FNDA:0,_ZN4mfem21TimeDependentOperator11SetEvalModeENS0_8EvalModeE
FNDA:0,_ZN4mfem21TimeDependentOperator7SetTimeEd
FNDA:0,_ZN4mfem21TimeDependentOperatorD0Ev
FNDA:0,_ZN4mfem21TimeDependentOperatorD2Ev
FNDA:0,_ZN4mfem30RectangularConstrainedOperatorD0Ev
FNDA:0,_ZN4mfem30RectangularConstrainedOperatorD2Ev
FNDA:0,_ZN4mfem32SecondOrderTimeDependentOperatorD0Ev
FNDA:0,_ZN4mfem32SecondOrderTimeDependentOperatorD2Ev
FNDA:0,_ZNK4mfem11RAPOperator13MultTransposeERKNS_6VectorERS1_
FNDA:0,_ZNK4mfem11RAPOperator4MultERKNS_6VectorERS1_
FNDA:0,_ZNK4mfem14ScaledOperator13MultTransposeERKNS_6VectorERS1_
FNDA:0,_ZNK4mfem14ScaledOperator4MultERKNS_6VectorERS1_
FNDA:0,_ZNK4mfem15ProductOperator13MultTransposeERKNS_6VectorERS1_
FNDA:0,_ZNK4mfem15ProductOperator4MultERKNS_6VectorERS1_
FNDA:0,_ZNK4mfem16IdentityOperator13MultTransposeERKNS_6VectorERS1_
FNDA:0,_ZNK4mfem16IdentityOperator4MultERKNS_6VectorERS1_
FNDA:0,_ZNK4mfem17TransposeOperator13MultTransposeERKNS_6VectorERS1_
FNDA:0,_ZNK4mfem17TransposeOperator4MultERKNS_6VectorERS1_
FNDA:0,_ZNK4mfem21TimeDependentOperator7GetTimeEv
FNDA:0,_ZNK4mfem21TripleProductOperator13MultTransposeERKNS_6VectorERS1_
FNDA:0,_ZNK4mfem21TripleProductOperator4MultERKNS_6VectorERS1_
FNDA:0,_ZNK4mfem8Operator11GetGradientERKNS_6VectorE
FNDA:0,_ZNK4mfem8Operator13MultTransposeERKNS_6VectorERS1_
FNDA:0,_ZNK4mfem8Operator14GetMemoryClassEv
FNDA:0,_ZNK4mfem8Operator14GetRestrictionEv
FNDA:0,_ZNK4mfem8Operator15GetProlongationEv
FNDA:0,_ZNK4mfem8Operator16AssembleDiagonalERNS_6VectorE
FNDA:0,_ZNK4mfem8Operator20GetOutputRestrictionEv
FNDA:0,_ZNK4mfem8Operator21GetOutputProlongationEv
FNDA:0,_ZNK4mfem8Operator29GetOutputRestrictionTransposeEv
FNF:32
FNH:0
DA:24,0
DA:59,0
DA:63,0
DA:66,0
DA:69,0
DA:72,0
DA:86,0
DA:93,0
DA:94,0
DA:122,0
DA:124,0
DA:125,0
DA:131,0
DA:133,0
DA:134,0
DA:135,0
DA:139,0
DA:143,0
DA:147,0
DA:149,0
DA:156,0
DA:160,0
DA:162,0
DA:279,0
DA:347,0
DA:349,0
DA:357,0
DA:360,0
DA:383,0
DA:384,0
DA:499,0
DA:639,0
DA:641,0
DA:677,0
DA:682,0
DA:692,0
DA:693,0
DA:696,0
DA:697,0
DA:705,0
DA:709,0
DA:712,0
DA:715,0
DA:738,0
DA:739,0
DA:742,0
DA:743,0
DA:764,0
DA:765,0
DA:768,0
DA:769,0
DA:783,0
DA:784,0
DA:786,0
DA:787,0
DA:811,0
DA:812,0
DA:832,0
DA:833,0
DA:853,0
DA:854,0
DA:856,0
DA:857,0
DA:928,0
DA:981,0
LF:65
LH:0
end_of_record
TN:
SF:/root/mfem/linalg/solvers.hpp
FN:336,_ZN4mfem22OperatorJacobiSmootherD0Ev
FN:336,_ZN4mfem22OperatorJacobiSmootherD2Ev
FN:342,_ZNK4mfem22OperatorJacobiSmoother13MultTransposeERKNS_6VectorERS1_
FN:433,_ZN4mfem25OperatorChebyshevSmootherD0Ev
FN:433,_ZN4mfem25OperatorChebyshevSmootherD2Ev
FN:437,_ZNK4mfem25OperatorChebyshevSmoother13MultTransposeERKNS_6VectorERS1_
FN:501,_ZN4mfem8CGSolverC2Ev
FN:504,_ZN4mfem8CGSolverC2EP19ompi_communicator_t
FN:732,_ZN4mfem11LBFGSSolver20DeleteStorageVectorsEv
FN:783,_ZN4mfem11LBFGSSolverD0Ev
FN:783,_ZN4mfem11LBFGSSolverD2Ev
FN:1240,_ZNK4mfem16AuxSpaceSmoother4MultERKNS_6VectorERS1_
FN:1241,_ZNK4mfem16AuxSpaceSmoother13MultTransposeERKNS_6VectorERS1_
FNDA:0,_ZN4mfem11LBFGSSolver20DeleteStorageVectorsEv
FNDA:0,_ZN4mfem11LBFGSSolverD0Ev
FNDA:0,_ZN4mfem11LBFGSSolverD2Ev
FNDA:0,_ZN4mfem22OperatorJacobiSmootherD0Ev
FNDA:0,_ZN4mfem22OperatorJacobiSmootherD2Ev
FNDA:0,_ZN4mfem25OperatorChebyshevSmootherD0Ev
FNDA:0,_ZN4mfem25OperatorChebyshevSmootherD2Ev
FNDA:0,_ZN4mfem8CGSolverC2EP19ompi_communicator_t
FNDA:0,_ZN4mfem8CGSolverC2Ev
FNDA:0,_ZNK4mfem16AuxSpaceSmoother13MultTransposeERKNS_6VectorERS1_
FNDA:0,_ZNK4mfem16AuxSpaceSmoother4MultERKNS_6VectorERS1_
FNDA:0,_ZNK4mfem22OperatorJacobiSmoother13MultTransposeERKNS_6VectorERS1_
FNDA:0,_ZNK4mfem25OperatorChebyshevSmoother13MultTransposeERKNS_6VectorERS1_
FNF:13
FNH:0
DA:66,0
DA:97,0
DA:103,0
DA:199,0
DA:200,0
DA:201,0
DA:250,0
DA:252,0
DA:292,0
DA:293,0
DA:336,0
DA:342,0
DA:433,0
DA:437,0
DA:501,0
DA:504,0
DA:507,0
DA:508,0
DA:534,0
DA:641,0
DA:732,0
DA:734,0
DA:736,0
DA:737,0
DA:739,0
DA:783,0
DA:1002,0
DA:1007,0
DA:1012,0
DA:1240,0
DA:1241,0
LF:31
LH:0
end_of_record
TN:
SF:/root/mfem/linalg/sparsemat.hpp
FN:131,_ZN4mfem12SparseMatrixC2Ev
FN:546,_ZN4mfem12SparseMatrix8FinalizeEi
FNDA:0,_ZN4mfem12SparseMatrix8FinalizeEi
FNDA:0,_ZN4mfem12SparseMatrixC2Ev
FNF:2
FNH:0
DA:131,0
DA:132,0
DA:133,0
DA:135,0
DA:136,0
DA:206,0
DA:222,0
DA:227,0
DA:232,0
DA:245,0
DA:246,0
DA:261,0
DA:262,0
DA:277,0
DA:278,0
DA:546,0
LF:16
LH:0
end_of_record
TN:
SF:/root/mfem/linalg/sparsesmoothers.hpp
FNF:0
FNH:0
DA:21,0
DA:29,0
DA:30,0
DA:36,0
DA:47,0
DA:48,0
DA:55,0
LF:7
LH:0
end_of_record
TN:
SF:/root/mfem/linalg/symmat.hpp
FNF:0
FNH:0
DA:24,0
DA:150,0
DA:152,0
DA:153,0
DA:159,0
LF:5
LH:0
end_of_record
TN:
SF:/root/mfem/linalg/vector.hpp
FN:105,_ZN4mfem6VectorC2ILi3EEERAT__Kd
FN:105,_ZN4mfem6VectorC2ILi4EEERAT__Kd
FN:105,_ZN4mfem6VectorC2ILi6EEERAT__Kd
FN:117,_ZNK4mfem6Vector9UseDeviceEb
FN:120,_ZNK4mfem6Vector9UseDeviceEv
FN:448,_ZNK4mfem6Vector4ReadEb
FN:452,_ZNK4mfem6Vector8HostReadEv
FN:456,_ZN4mfem6Vector5WriteEb
FN:460,_ZN4mfem6Vector9HostWriteEv
FN:464,_ZN4mfem6Vector9ReadWriteEb
FN:468,_ZN4mfem6Vector13HostReadWriteEv
FN:512,_ZN4mfem6Vector7SetSizeEi
FN:561,_ZN4mfem6Vector16NewMemoryAndSizeERKNS_6MemoryIdEEib
FN:626,_ZN4mfem6VectorD0Ev
FN:626,_ZN4mfem6VectorD2Ev
FN:643,_ZN4mfem8DistanceEPKdS1_i
FN:689,_ZN4mfem12InnerProductEP19ompi_communicator_tRKNS_6VectorES4_
FNDA:0,_ZN4mfem12InnerProductEP19ompi_communicator_tRKNS_6VectorES4_
FNDA:0,_ZN4mfem6Vector13HostReadWriteEv
FNDA:0,_ZN4mfem6Vector16NewMemoryAndSizeERKNS_6MemoryIdEEib
FNDA:0,_ZN4mfem6Vector5WriteEb
FNDA:0,_ZN4mfem6Vector9HostWriteEv
FNDA:0,_ZN4mfem6Vector9ReadWriteEb
FNDA:0,_ZN4mfem6VectorC2ILi3EEERAT__Kd
FNDA:0,_ZN4mfem6VectorC2ILi4EEERAT__Kd
FNDA:0,_ZN4mfem6VectorC2ILi6EEERAT__Kd
FNDA:0,_ZN4mfem6VectorD0Ev
FNDA:0,_ZN4mfem6VectorD2Ev
FNDA:0,_ZN4mfem8DistanceEPKdS1_i
FNDA:0,_ZNK4mfem6Vector4ReadEb
FNDA:0,_ZNK4mfem6Vector8HostReadEv
FNDA:0,_ZNK4mfem6Vector9UseDeviceEb
FNDA:0,_ZNK4mfem6Vector9UseDeviceEv
FNDA:1670166,_ZN4mfem6Vector7SetSizeEi
FNF:17
FNH:1
DA:46,0
DA:48,0
DA:71,704
DA:86,0
DA:87,0
DA:91,0
DA:92,0
DA:105,0
DA:106,0
DA:117,0
DA:120,0
DA:149,0
DA:156,0
DA:199,0
DA:208,0
DA:209,0
DA:230,0
DA:234,0
DA:237,0
DA:244,0
DA:269,0
DA:273,0
DA:448,0
DA:449,0
DA:452,0
DA:453,0
DA:456,0
DA:457,0
DA:460,0
DA:461,0
DA:464,0
DA:465,0
DA:468,0
DA:469,0
DA:502,192
DA:504,192
DA:505,192
DA:506,192
DA:508,192
DA:512,1670166
DA:514,1670166
DA:518,9590
DA:520,0
DA:521,0
DA:524,9590
DA:525,9590
DA:526,9590
DA:527,9590
DA:528,9590
DA:529,9590
DA:561,0
DA:564,0
DA:565,0
DA:566,0
DA:568,0
DA:572,0
DA:574,0
DA:576,0
DA:578,0
DA:579,0
DA:580,0
DA:581,0
DA:583,0
DA:585,0
DA:586,0
DA:587,0
DA:589,0
DA:591,0
DA:592,0
DA:593,0
DA:594,0
DA:595,0
DA:598,775960
DA:601,775960
DA:603,775960
DA:606,1369520
DA:609,1369520
DA:611,1369520
DA:626,832
DA:628,832
DA:629,0
DA:631,0
DA:633,0
DA:635,0
DA:637,0
DA:640,0
DA:643,0
DA:645,0
DA:648,0
DA:650,0
DA:669,0
DA:671,0
DA:672,0
DA:679,0
DA:681,0
DA:689,0
DA:691,0
DA:692,0
DA:693,0
DA:694,0
LF:100
LH:23
end_of_record
TN:
SF:/root/mfem/mesh/element.hpp
FNF:0
FNH:0
DA:52,0
DA:55,0
DA:58,15320
DA:106,0
LF:4
LH:1
end_of_record
TN:
SF:/root/mfem/mesh/mesh.hpp
FN:570,_ZN4mfem4MeshC2Ev
FN:708,_ZN4mfem4MeshC2Eiiiii
FN:1968,_ZN4mfem4MeshD0Ev
FN:1968,_ZN4mfem4MeshD2Ev
FN:2102,_ZN4mfem22NodeExtrudeCoefficientD0Ev
FN:2102,_ZN4mfem22NodeExtrudeCoefficientD2Ev
FNDA:0,_ZN4mfem22NodeExtrudeCoefficientD0Ev
FNDA:0,_ZN4mfem22NodeExtrudeCoefficientD2Ev
FNDA:0,_ZN4mfem4MeshC2Eiiiii
FNDA:0,_ZN4mfem4MeshD0Ev
FNDA:64,_ZN4mfem4MeshC2Ev
FNDA:64,_ZN4mfem4MeshD2Ev
FNF:6
FNH:2
DA:570,64
DA:708,0
DA:709,0
DA:710,0
DA:711,0
DA:712,0
DA:734,0
DA:922,0
DA:943,0
DA:946,7696
DA:949,3952
DA:952,0
DA:955,0
DA:1057,128
DA:1058,0
DA:1073,46640
DA:1109,7600
DA:1124,3920
DA:1131,0
DA:1133,0
DA:1145,0
DA:1146,0
DA:1153,0
DA:1154,0
DA:1185,0
DA:1186,0
DA:1380,0
DA:1382,0
DA:1383,0
DA:1600,0
DA:1680,0
DA:1812,0
DA:1968,128
DA:2102,0
LF:34
LH:8
end_of_record
TN:
SF:/root/mfem/mesh/mesh_operators.hpp
FNF:0
FNH:0
DA:60,0
DA:120,0
DA:331,0
DA:354,0
DA:355,0
DA:357,0
DA:360,0
DA:369,0
DA:371,0
DA:372,0
DA:376,0
DA:411,0
LF:12
LH:0
end_of_record
TN:
SF:/root/mfem/mesh/ncmesh.hpp
FNF:0
FNH:0
DA:43,0
DA:44,0
LF:2
LH:0
end_of_record
TN:
SF:/root/mfem/mesh/submesh/psubmesh.hpp
FNF:0
FNH:0
LF:0
LH:0
end_of_record
TN:
SF:/root/mfem/mesh/tetrahedron.hpp
FN:116,_ZN4mfem11TetrahedronD0Ev
FN:116,_ZN4mfem11TetrahedronD2Ev
FNDA:0,_ZN4mfem11TetrahedronD0Ev
FNDA:16384,_ZN4mfem11TetrahedronD2Ev
FNF:2
FNH:1
DA:116,16384
LF:1
LH:1
end_of_record
TN:
SF:/root/mfem/mesh/vertex.hpp
FNF:0
FNH:0
DA:33,0
DA:34,0
DA:35,0
DA:38,46640
LF:4
LH:1
end_of_record
TN:
SF:/root/mfem/tests/unit/catch.hpp
FN:1619,_ZN5Catch11StringMakerIN4mfem13FiniteElement7MapTypeEvE7convertIS3_EENSt9enable_ifIXsrNS_6Detail18IsStreamInsertableIT_EE5valueENSt7__cxx1112basic_stringIcSt11char_traitsIcESaIcEEEE4typeERKS9_
FN:1619,_ZN5Catch11StringMakerIN4mfem8Geometry4TypeEvE7convertIS3_EENSt9enable_ifIXsrNS_6Detail18IsStreamInsertableIT_EE5valueENSt7__cxx1112basic_stringIcSt11char_traitsIcESaIcEEEE4typeERKS9_
FN:1619,_ZN5Catch11StringMakerIN4mfem9BasisTypeUt_EvE7convertIS3_EENSt9enable_ifIXsrNS_6Detail18IsStreamInsertableIT_EE5valueENSt7__cxx1112basic_stringIcSt11char_traitsIcESaIcEEEE4typeERKS9_
FN:1619,_ZN5Catch11StringMakerIN8tinyxml28XMLErrorEvE7convertIS2_EENSt9enable_ifIXsrNS_6Detail18IsStreamInsertableIT_EE5valueENSt7__cxx1112basic_stringIcSt11char_traitsIcESaIcEEEE4typeERKS8_
FN:1619,_ZN5Catch11StringMakerINS_14SourceLineInfoEvE7convertIS1_EENSt9enable_ifIXsrNS_6Detail18IsStreamInsertableIT_EE5valueENSt7__cxx1112basic_stringIcSt11char_traitsIcESaIcEEEE4typeERKS7_
FN:1798,_ZN5Catch11StringMakerIPKN4mfem15FaceRestrictionEvE7convertIS3_EENSt7__cxx1112basic_stringIcSt11char_traitsIcESaIcEEEPT_
FN:1798,_ZN5Catch11StringMakerIPKN8tinyxml210XMLElementEvE7convertIS3_EENSt7__cxx1112basic_stringIcSt11char_traitsIcESaIcEEEPT_
FN:1798,_ZN5Catch11StringMakerIPKdvE7convertIS1_EENSt7__cxx1112basic_stringIcSt11char_traitsIcESaIcEEEPT_
FN:1798,_ZN5Catch11StringMakerIPN4mfem12GridFunctionEvE7convertIS2_EENSt7__cxx1112basic_stringIcSt11char_traitsIcESaIcEEEPT_
FN:1798,_ZN5Catch11StringMakerIPN4mfem12SparseMatrixEvE7convertIS2_EENSt7__cxx1112basic_stringIcSt11char_traitsIcESaIcEEEPT_
FN:1798,_ZN5Catch11StringMakerIPN4mfem14HypreParMatrixEvE7convertIS2_EENSt7__cxx1112basic_stringIcSt11char_traitsIcESaIcEEEPT_
FN:1798,_ZN5Catch11StringMakerIPN4mfem18QuadratureFunctionEvE7convertIS2_EENSt7__cxx1112basic_stringIcSt11char_traitsIcESaIcEEEPT_
FN:1798,_ZN5Catch11StringMakerIPN4mfem4MeshEvE7convertIS2_EENSt7__cxx1112basic_stringIcSt11char_traitsIcESaIcEEEPT_
FN:1798,_ZN5Catch11StringMakerIPdvE7convertIdEENSt7__cxx1112basic_stringIcSt11char_traitsIcESaIcEEEPT_
FN:2229,_ZNK5Catch10BinaryExprIRKN4mfem10MemoryTypeES4_E29streamReconstructedExpressionERSo
FN:2229,_ZNK5Catch10BinaryExprIRKN4mfem8Geometry4TypeES5_E29streamReconstructedExpressionERSo
FN:2229,_ZNK5Catch10BinaryExprIRKN8tinyxml28XMLErrorES4_E29streamReconstructedExpressionERSo
FN:2229,_ZNK5Catch10BinaryExprIRKNSt7__cxx1112basic_stringIcSt11char_traitsIcESaIcEEES8_E29streamReconstructedExpressionERSo
FN:2229,_ZNK5Catch10BinaryExprIRKPKN4mfem15FaceRestrictionERKDnE29streamReconstructedExpressionERSo
FN:2229,_ZNK5Catch10BinaryExprIRKPKN8tinyxml210XMLElementERKDnE29streamReconstructedExpressionERSo
FN:2229,_ZNK5Catch10BinaryExprIRKPKdRKPdE29streamReconstructedExpressionERSo
FN:2229,_ZNK5Catch10BinaryExprIRKPN4mfem12GridFunctionERKDnE29streamReconstructedExpressionERSo
FN:2229,_ZNK5Catch10BinaryExprIRKPN4mfem12SparseMatrixERKlE29streamReconstructedExpressionERSo
FN:2229,_ZNK5Catch10BinaryExprIRKPN4mfem14HypreParMatrixERKlE29streamReconstructedExpressionERSo
FN:2229,_ZNK5Catch10BinaryExprIRKPN4mfem4MeshES5_E29streamReconstructedExpressionERSo
FN:2229,_ZNK5Catch10BinaryExprIRKPdRKDnE29streamReconstructedExpressionERSo
FN:2229,_ZNK5Catch10BinaryExprIRKPdS3_E29streamReconstructedExpressionERSo
FN:2229,_ZNK5Catch10BinaryExprIRKdRKNS_6Detail6ApproxEE29streamReconstructedExpressionERSo
FN:2229,_ZNK5Catch10BinaryExprIRKdRKiE29streamReconstructedExpressionERSo
FN:2229,_ZNK5Catch10BinaryExprIRKdS2_E29streamReconstructedExpressionERSo
FN:2229,_ZNK5Catch10BinaryExprIRKiRKdE29streamReconstructedExpressionERSo
FN:2229,_ZNK5Catch10BinaryExprIRKiS2_E29streamReconstructedExpressionERSo
FN:2229,_ZNK5Catch10BinaryExprIRKmS2_E29streamReconstructedExpressionERSo
FN:2229,_ZNK5Catch10BinaryExprIbbE29streamReconstructedExpressionERSo
FN:2303,_ZNK5Catch9UnaryExprIRKPKN8tinyxml210XMLElementEE29streamReconstructedExpressionERSo
FN:2303,_ZNK5Catch9UnaryExprIRKPKcE29streamReconstructedExpressionERSo
FN:2303,_ZNK5Catch9UnaryExprIRKPN4mfem12GridFunctionEE29streamReconstructedExpressionERSo
FN:2303,_ZNK5Catch9UnaryExprIRKPN4mfem18QuadratureFunctionEE29streamReconstructedExpressionERSo
FN:2303,_ZNK5Catch9UnaryExprIRKPN4mfem4MeshEE29streamReconstructedExpressionERSo
FN:2303,_ZNK5Catch9UnaryExprIbE29streamReconstructedExpressionERSo
FN:2344,_ZN5Catch7ExprLhsIRKNSt7__cxx1112basic_stringIcSt11char_traitsIcESaIcEEEEeqIS6_EEKNS_10BinaryExprIS8_RKT_EESE_
FN:2344,_ZN5Catch7ExprLhsIRKdEeqINS_6Detail6ApproxEEEKNS_10BinaryExprIS2_RKT_EESA_
FN:2368,_ZN5Catch7ExprLhsIRKdEgeINS_6Detail6ApproxEEEKNS_10BinaryExprIS2_RKT_EESA_
FN:2567,_ZN5Catch16AssertionHandler10handleExprIRKPKN8tinyxml210XMLElementEEEvRKNS_7ExprLhsIT_EE
FN:2567,_ZN5Catch16AssertionHandler10handleExprIRKPKcEEvRKNS_7ExprLhsIT_EE
FN:2567,_ZN5Catch16AssertionHandler10handleExprIRKPN4mfem12GridFunctionEEEvRKNS_7ExprLhsIT_EE
FN:2567,_ZN5Catch16AssertionHandler10handleExprIRKPN4mfem18QuadratureFunctionEEEvRKNS_7ExprLhsIT_EE
FN:2567,_ZN5Catch16AssertionHandler10handleExprIRKPN4mfem4MeshEEEvRKNS_7ExprLhsIT_EE
FN:2567,_ZN5Catch16AssertionHandler10handleExprIbEEvRKNS_7ExprLhsIT_EE
FN:2663,_ZN5Catch8Capturer13captureValuesIN4mfem13FiniteElement7MapTypeEEEvmRKT_
FN:2663,_ZN5Catch8Capturer13captureValuesIN4mfem9BasisTypeUt_EEEvmRKT_
FN:2663,_ZN5Catch8Capturer13captureValuesIbEEvmRKT_
FN:2663,_ZN5Catch8Capturer13captureValuesIdEEvmRKT_
FN:2663,_ZN5Catch8Capturer13captureValuesIiEEvmRKT_
FN:2668,_ZN5Catch8Capturer13captureValuesINSt7__cxx1112basic_stringIcSt11char_traitsIcESaIcEEEJibiiibEEEvmRKT_DpRKT0_
FN:2668,_ZN5Catch8Capturer13captureValuesINSt7__cxx1112basic_stringIcSt11char_traitsIcESaIcEEEJiiEEEvmRKT_DpRKT0_
FN:2668,_ZN5Catch8Capturer13captureValuesINSt7__cxx1112basic_stringIcSt11char_traitsIcESaIcEEEJiiiEEEvmRKT_DpRKT0_
FN:2668,_ZN5Catch8Capturer13captureValuesIPKcJiN4mfem9BasisTypeUt_EEEEvmRKT_DpRKT0_
FN:2668,_ZN5Catch8Capturer13captureValuesIPKcJiiEEEvmRKT_DpRKT0_
FN:2668,_ZN5Catch8Capturer13captureValuesIPKcJiiN4mfem13FiniteElement7MapTypeEEEEvmRKT_DpRKT0_
FN:2668,_ZN5Catch8Capturer13captureValuesIPKcJiiiiibbEEEvmRKT_DpRKT0_
FN:2668,_ZN5Catch8Capturer13captureValuesIbJbEEEvmRKT_DpRKT0_
FN:2668,_ZN5Catch8Capturer13captureValuesIbJiiibEEEvmRKT_DpRKT0_
FN:2668,_ZN5Catch8Capturer13captureValuesIdJdEEEvmRKT_DpRKT0_
FN:2668,_ZN5Catch8Capturer13captureValuesIdJiEEEvmRKT_DpRKT0_
FN:2668,_ZN5Catch8Capturer13captureValuesIiJN4mfem13FiniteElement7MapTypeEEEEvmRKT_DpRKT0_
FN:2668,_ZN5Catch8Capturer13captureValuesIiJN4mfem9BasisTypeUt_EEEEvmRKT_DpRKT0_
FN:2668,_ZN5Catch8Capturer13captureValuesIiJbEEEvmRKT_DpRKT0_
FN:2668,_ZN5Catch8Capturer13captureValuesIiJbbEEEvmRKT_DpRKT0_
FN:2668,_ZN5Catch8Capturer13captureValuesIiJbiiibEEEvmRKT_DpRKT0_
FN:2668,_ZN5Catch8Capturer13captureValuesIiJdEEEvmRKT_DpRKT0_
FN:2668,_ZN5Catch8Capturer13captureValuesIiJiEEEvmRKT_DpRKT0_
FN:2668,_ZN5Catch8Capturer13captureValuesIiJiN4mfem13FiniteElement7MapTypeEEEEvmRKT_DpRKT0_
FN:2668,_ZN5Catch8Capturer13captureValuesIiJibEEEvmRKT_DpRKT0_
FN:2668,_ZN5Catch8Capturer13captureValuesIiJibbEEEvmRKT_DpRKT0_
FN:2668,_ZN5Catch8Capturer13captureValuesIiJidEEEvmRKT_DpRKT0_
FN:2668,_ZN5Catch8Capturer13captureValuesIiJiiEEEvmRKT_DpRKT0_
FN:2668,_ZN5Catch8Capturer13captureValuesIiJiibEEEvmRKT_DpRKT0_
FN:2668,_ZN5Catch8Capturer13captureValuesIiJiibbEEEvmRKT_DpRKT0_
FN:2668,_ZN5Catch8Capturer13captureValuesIiJiiiEEEvmRKT_DpRKT0_
FN:2668,_ZN5Catch8Capturer13captureValuesIiJiiibbEEEvmRKT_DpRKT0_
FN:2668,_ZN5Catch8Capturer13captureValuesIiJiiiiEEEvmRKT_DpRKT0_
FN:2668,_ZN5Catch8Capturer13captureValuesIiJiiiibbEEEvmRKT_DpRKT0_
FN:3403,_ZN5Catch8Matchers9Exception23ExceptionMessageMatcherC2ERKNSt7__cxx1112basic_stringIcSt11char_traitsIcESaIcEEE
FN:3782,_ZNK5Catch9MatchExprINSt7__cxx1112basic_stringIcSt11char_traitsIcESaIcEEERKNS_8Matchers4Impl11MatcherBaseIS6_EEE29streamReconstructedExpressionERSo
FN:3877,_ZN5Catch15throw_exceptionISt11logic_errorEEvRKT_
FN:3877,_ZN5Catch15throw_exceptionISt12domain_errorEEvRKT_
FN:3877,_ZN5Catch15throw_exceptionISt13runtime_errorEEvRKT_
FN:3935,_ZN5Catch10Generators2pf11make_uniqueINS0_10GeneratorsI12TransferTypeEEJS5_EEESt10unique_ptrIT_St14default_deleteIS7_EEDpOT0_
FN:3935,_ZN5Catch10Generators2pf11make_uniqueINS0_10GeneratorsI7FECTypeEEJS5_EEESt10unique_ptrIT_St14default_deleteIS7_EEDpOT0_
FN:3935,_ZN5Catch10Generators2pf11make_uniqueINS0_10GeneratorsI8VecSpaceEEJS5_EEESt10unique_ptrIT_St14default_deleteIS7_EEDpOT0_
FN:3935,_ZN5Catch10Generators2pf11make_uniqueINS0_10GeneratorsI9FieldTypeEEJS5_EEESt10unique_ptrIT_St14default_deleteIS7_EEDpOT0_
FN:3935,_ZN5Catch10Generators2pf11make_uniqueINS0_10GeneratorsIN15ParSubMeshTests7FECTypeEEEJS6_EEESt10unique_ptrIT_St14default_deleteIS8_EEDpOT0_
FN:3935,_ZN5Catch10Generators2pf11make_uniqueINS0_10GeneratorsIN15assembly_levels7ProblemEEEJS6_EEESt10unique_ptrIT_St14default_deleteIS8_EEDpOT0_
FN:3935,_ZN5Catch10Generators2pf11make_uniqueINS0_10GeneratorsIN17LinearFormExtTestUt_EEEJS6_EEESt10unique_ptrIT_St14default_deleteIS8_EEDpOT0_
FN:3935,_ZN5Catch10Generators2pf11make_uniqueINS0_10GeneratorsIN18sparse_matrix_test5CoeffEEEJS6_EEESt10unique_ptrIT_St14default_deleteIS8_EEDpOT0_
FN:3935,_ZN5Catch10Generators2pf11make_uniqueINS0_10GeneratorsIN18sparse_matrix_test7ProblemEEEJS6_EEESt10unique_ptrIT_St14default_deleteIS8_EEDpOT0_
FN:3935,_ZN5Catch10Generators2pf11make_uniqueINS0_10GeneratorsIN21face_restriction_test9SpaceTypeEEEJS6_EEESt10unique_ptrIT_St14default_deleteIS8_EEDpOT0_
FN:3935,_ZN5Catch10Generators2pf11make_uniqueINS0_10GeneratorsIN4mfem10RefinementUt_EEEJS7_EEESt10unique_ptrIT_St14default_deleteIS9_EEDpOT0_
FN:3935,_ZN5Catch10Generators2pf11make_uniqueINS0_10GeneratorsIN4mfem13AssemblyLevelEEEJS6_EEESt10unique_ptrIT_St14default_deleteIS8_EEDpOT0_
FN:3935,_ZN5Catch10Generators2pf11make_uniqueINS0_10GeneratorsIN4mfem13FiniteElement7MapTypeEEEJS7_EEESt10unique_ptrIT_St14default_deleteIS9_EEDpOT0_
FN:3935,_ZN5Catch10Generators2pf11make_uniqueINS0_10GeneratorsIN4mfem13QVectorLayoutEEEJS6_EEESt10unique_ptrIT_St14default_deleteIS8_EEDpOT0_
FN:3935,_ZN5Catch10Generators2pf11make_uniqueINS0_10GeneratorsIN4mfem7Element4TypeEEEJS7_EEESt10unique_ptrIT_St14default_deleteIS9_EEDpOT0_
FN:3935,_ZN5Catch10Generators2pf11make_uniqueINS0_10GeneratorsIN4mfem7SubMesh4FromEEEJS7_EEESt10unique_ptrIT_St14default_deleteIS9_EEDpOT0_
FN:3935,_ZN5Catch10Generators2pf11make_uniqueINS0_10GeneratorsIN4mfem8Ordering4TypeEEEJS7_EEESt10unique_ptrIT_St14default_deleteIS9_EEDpOT0_
FN:3935,_ZN5Catch10Generators2pf11make_uniqueINS0_10GeneratorsIN4mfem9BasisTypeUt_EEEJS7_EEESt10unique_ptrIT_St14default_deleteIS9_EEDpOT0_
FN:3935,_ZN5Catch10Generators2pf11make_uniqueINS0_10GeneratorsIRA21_KcEEJS7_EEESt10unique_ptrIT_St14default_deleteIS9_EEDpOT0_
FN:3935,_ZN5Catch10Generators2pf11make_uniqueINS0_10GeneratorsIRA24_KcEEJS7_EEESt10unique_ptrIT_St14default_deleteIS9_EEDpOT0_
FN:3935,_ZN5Catch10Generators2pf11make_uniqueINS0_10GeneratorsIRA27_KcEEJS7_EEESt10unique_ptrIT_St14default_deleteIS9_EEDpOT0_
FN:3935,_ZN5Catch10Generators2pf11make_uniqueINS0_10GeneratorsIRA28_KcEEJS7_EEESt10unique_ptrIT_St14default_deleteIS9_EEDpOT0_
FN:3935,_ZN5Catch10Generators2pf11make_uniqueINS0_10GeneratorsIRA32_KcEEJS7_EEESt10unique_ptrIT_St14default_deleteIS9_EEDpOT0_
FN:3935,_ZN5Catch10Generators2pf11make_uniqueINS0_10GeneratorsIZN11lor_batchedL20C_A_T_C_H_T_E_S_T_15EvE9SpaceTypeEEJS6_EEESt10unique_ptrIT_St14default_deleteIS8_EEDpOT0_
FN:3935,_ZN5Catch10Generators2pf11make_uniqueINS0_10GeneratorsIbEEJS4_EEESt10unique_ptrIT_St14default_deleteIS6_EEDpOT0_
FN:3935,_ZN5Catch10Generators2pf11make_uniqueINS0_10GeneratorsIiEEJS4_EEESt10unique_ptrIT_St14default_deleteIS6_EEDpOT0_
FN:3935,_ZN5Catch10Generators2pf11make_uniqueINS0_14RangeGeneratorIiEEJRKiS6_EEESt10unique_ptrIT_St14default_deleteIS8_EEDpOT0_
FN:3958,_ZNK5Catch10Generators20SingleValueGeneratorI12TransferTypeE3getEv
FN:3958,_ZNK5Catch10Generators20SingleValueGeneratorI7FECTypeE3getEv
FN:3958,_ZNK5Catch10Generators20SingleValueGeneratorI8VecSpaceE3getEv
FN:3958,_ZNK5Catch10Generators20SingleValueGeneratorI9FieldTypeE3getEv
FN:3958,_ZNK5Catch10Generators20SingleValueGeneratorIN15ParSubMeshTests7FECTypeEE3getEv
FN:3958,_ZNK5Catch10Generators20SingleValueGeneratorIN15assembly_levels7ProblemEE3getEv
FN:3958,_ZNK5Catch10Generators20SingleValueGeneratorIN17LinearFormExtTestUt_EE3getEv
FN:3958,_ZNK5Catch10Generators20SingleValueGeneratorIN18sparse_matrix_test5CoeffEE3getEv
FN:3958,_ZNK5Catch10Generators20SingleValueGeneratorIN18sparse_matrix_test7ProblemEE3getEv
FN:3958,_ZNK5Catch10Generators20SingleValueGeneratorIN21face_restriction_test9SpaceTypeEE3getEv
FN:3958,_ZNK5Catch10Generators20SingleValueGeneratorIN4mfem10RefinementUt_EE3getEv
FN:3958,_ZNK5Catch10Generators20SingleValueGeneratorIN4mfem13AssemblyLevelEE3getEv
FN:3958,_ZNK5Catch10Generators20SingleValueGeneratorIN4mfem13FiniteElement7MapTypeEE3getEv
FN:3958,_ZNK5Catch10Generators20SingleValueGeneratorIN4mfem13QVectorLayoutEE3getEv
FN:3958,_ZNK5Catch10Generators20SingleValueGeneratorIN4mfem7Element4TypeEE3getEv
FN:3958,_ZNK5Catch10Generators20SingleValueGeneratorIN4mfem7SubMesh4FromEE3getEv
FN:3958,_ZNK5Catch10Generators20SingleValueGeneratorIN4mfem8Ordering4TypeEE3getEv
FN:3958,_ZNK5Catch10Generators20SingleValueGeneratorIN4mfem9BasisTypeUt_EE3getEv
FN:3958,_ZNK5Catch10Generators20SingleValueGeneratorIRA21_KcE3getEv
FN:3958,_ZNK5Catch10Generators20SingleValueGeneratorIRA24_KcE3getEv
FN:3958,_ZNK5Catch10Generators20SingleValueGeneratorIRA27_KcE3getEv
FN:3958,_ZNK5Catch10Generators20SingleValueGeneratorIRA28_KcE3getEv
FN:3958,_ZNK5Catch10Generators20SingleValueGeneratorIRA32_KcE3getEv
FN:3958,_ZNK5Catch10Generators20SingleValueGeneratorIZN11lor_batchedL20C_A_T_C_H_T_E_S_T_15EvE9SpaceTypeE3getEv
FN:3958,_ZNK5Catch10Generators20SingleValueGeneratorIbE3getEv
FN:3958,_ZNK5Catch10Generators20SingleValueGeneratorIiE3getEv
FN:3961,_ZN5Catch10Generators20SingleValueGeneratorI12TransferTypeE4nextEv
FN:3961,_ZN5Catch10Generators20SingleValueGeneratorI7FECTypeE4nextEv
FN:3961,_ZN5Catch10Generators20SingleValueGeneratorI8VecSpaceE4nextEv
FN:3961,_ZN5Catch10Generators20SingleValueGeneratorI9FieldTypeE4nextEv
FN:3961,_ZN5Catch10Generators20SingleValueGeneratorIN15ParSubMeshTests7FECTypeEE4nextEv
FN:3961,_ZN5Catch10Generators20SingleValueGeneratorIN15assembly_levels7ProblemEE4nextEv
FN:3961,_ZN5Catch10Generators20SingleValueGeneratorIN17LinearFormExtTestUt_EE4nextEv
FN:3961,_ZN5Catch10Generators20SingleValueGeneratorIN18sparse_matrix_test5CoeffEE4nextEv
FN:3961,_ZN5Catch10Generators20SingleValueGeneratorIN18sparse_matrix_test7ProblemEE4nextEv
FN:3961,_ZN5Catch10Generators20SingleValueGeneratorIN21face_restriction_test9SpaceTypeEE4nextEv
FN:3961,_ZN5Catch10Generators20SingleValueGeneratorIN4mfem10RefinementUt_EE4nextEv
FN:3961,_ZN5Catch10Generators20SingleValueGeneratorIN4mfem13AssemblyLevelEE4nextEv
FN:3961,_ZN5Catch10Generators20SingleValueGeneratorIN4mfem13FiniteElement7MapTypeEE4nextEv
FN:3961,_ZN5Catch10Generators20SingleValueGeneratorIN4mfem13QVectorLayoutEE4nextEv
FN:3961,_ZN5Catch10Generators20SingleValueGeneratorIN4mfem7Element4TypeEE4nextEv
FN:3961,_ZN5Catch10Generators20SingleValueGeneratorIN4mfem7SubMesh4FromEE4nextEv
FN:3961,_ZN5Catch10Generators20SingleValueGeneratorIN4mfem8Ordering4TypeEE4nextEv
FN:3961,_ZN5Catch10Generators20SingleValueGeneratorIN4mfem9BasisTypeUt_EE4nextEv
FN:3961,_ZN5Catch10Generators20SingleValueGeneratorIRA21_KcE4nextEv
FN:3961,_ZN5Catch10Generators20SingleValueGeneratorIRA24_KcE4nextEv
FN:3961,_ZN5Catch10Generators20SingleValueGeneratorIRA27_KcE4nextEv
FN:3961,_ZN5Catch10Generators20SingleValueGeneratorIRA28_KcE4nextEv
FN:3961,_ZN5Catch10Generators20SingleValueGeneratorIRA32_KcE4nextEv
FN:3961,_ZN5Catch10Generators20SingleValueGeneratorIZN11lor_batchedL20C_A_T_C_H_T_E_S_T_15EvE9SpaceTypeE4nextEv
FN:3961,_ZN5Catch10Generators20SingleValueGeneratorIbE4nextEv
FN:3961,_ZN5Catch10Generators20SingleValueGeneratorIiE4nextEv
FN:4001,_ZN5Catch10Generators5valueI12TransferTypeEENS0_16GeneratorWrapperIT_EEOS4_
FN:4001,_ZN5Catch10Generators5valueI7FECTypeEENS0_16GeneratorWrapperIT_EEOS4_
FN:4001,_ZN5Catch10Generators5valueI8VecSpaceEENS0_16GeneratorWrapperIT_EEOS4_
FN:4001,_ZN5Catch10Generators5valueI9FieldTypeEENS0_16GeneratorWrapperIT_EEOS4_
FN:4001,_ZN5Catch10Generators5valueIN15ParSubMeshTests7FECTypeEEENS0_16GeneratorWrapperIT_EEOS5_
FN:4001,_ZN5Catch10Generators5valueIN15assembly_levels7ProblemEEENS0_16GeneratorWrapperIT_EEOS5_
FN:4001,_ZN5Catch10Generators5valueIN17LinearFormExtTestUt_EEENS0_16GeneratorWrapperIT_EEOS5_
FN:4001,_ZN5Catch10Generators5valueIN18sparse_matrix_test5CoeffEEENS0_16GeneratorWrapperIT_EEOS5_
FN:4001,_ZN5Catch10Generators5valueIN18sparse_matrix_test7ProblemEEENS0_16GeneratorWrapperIT_EEOS5_
FN:4001,_ZN5Catch10Generators5valueIN21face_restriction_test9SpaceTypeEEENS0_16GeneratorWrapperIT_EEOS5_
FN:4001,_ZN5Catch10Generators5valueIN4mfem10RefinementUt_EEENS0_16GeneratorWrapperIT_EEOS6_
FN:4001,_ZN5Catch10Generators5valueIN4mfem13AssemblyLevelEEENS0_16GeneratorWrapperIT_EEOS5_
FN:4001,_ZN5Catch10Generators5valueIN4mfem13FiniteElement7MapTypeEEENS0_16GeneratorWrapperIT_EEOS6_
FN:4001,_ZN5Catch10Generators5valueIN4mfem13QVectorLayoutEEENS0_16GeneratorWrapperIT_EEOS5_
FN:4001,_ZN5Catch10Generators5valueIN4mfem7Element4TypeEEENS0_16GeneratorWrapperIT_EEOS6_
FN:4001,_ZN5Catch10Generators5valueIN4mfem7SubMesh4FromEEENS0_16GeneratorWrapperIT_EEOS6_
FN:4001,_ZN5Catch10Generators5valueIN4mfem8Ordering4TypeEEENS0_16GeneratorWrapperIT_EEOS6_
FN:4001,_ZN5Catch10Generators5valueIN4mfem9BasisTypeUt_EEENS0_16GeneratorWrapperIT_EEOS6_
FN:4001,_ZN5Catch10Generators5valueIRA21_KcEENS0_16GeneratorWrapperIT_EEOS6_
FN:4001,_ZN5Catch10Generators5valueIRA24_KcEENS0_16GeneratorWrapperIT_EEOS6_
FN:4001,_ZN5Catch10Generators5valueIRA27_KcEENS0_16GeneratorWrapperIT_EEOS6_
FN:4001,_ZN5Catch10Generators5valueIRA28_KcEENS0_16GeneratorWrapperIT_EEOS6_
FN:4001,_ZN5Catch10Generators5valueIRA32_KcEENS0_16GeneratorWrapperIT_EEOS6_
FN:4001,_ZN5Catch10Generators5valueIZN11lor_batchedL20C_A_T_C_H_T_E_S_T_15EvE9SpaceTypeEENS0_16GeneratorWrapperIT_EEOS5_
FN:4001,_ZN5Catch10Generators5valueIbEENS0_16GeneratorWrapperIT_EEOS3_
FN:4001,_ZN5Catch10Generators5valueIiEENS0_16GeneratorWrapperIT_EEOS3_
FN:4017,_ZN5Catch10Generators10GeneratorsI12TransferTypeE8populateEOS2_
FN:4017,_ZN5Catch10Generators10GeneratorsI7FECTypeE8populateEOS2_
FN:4017,_ZN5Catch10Generators10GeneratorsI8VecSpaceE8populateEOS2_
FN:4017,_ZN5Catch10Generators10GeneratorsI9FieldTypeE8populateEOS2_
FN:4017,_ZN5Catch10Generators10GeneratorsIN15ParSubMeshTests7FECTypeEE8populateEOS3_
FN:4017,_ZN5Catch10Generators10GeneratorsIN15assembly_levels7ProblemEE8populateEOS3_
FN:4017,_ZN5Catch10Generators10GeneratorsIN17LinearFormExtTestUt_EE8populateEOS3_
FN:4017,_ZN5Catch10Generators10GeneratorsIN18sparse_matrix_test5CoeffEE8populateEOS3_
FN:4017,_ZN5Catch10Generators10GeneratorsIN18sparse_matrix_test7ProblemEE8populateEOS3_
FN:4017,_ZN5Catch10Generators10GeneratorsIN21face_restriction_test9SpaceTypeEE8populateEOS3_
FN:4017,_ZN5Catch10Generators10GeneratorsIN4mfem10RefinementUt_EE8populateEOS4_
FN:4017,_ZN5Catch10Generators10GeneratorsIN4mfem13AssemblyLevelEE8populateEOS3_
FN:4017,_ZN5Catch10Generators10GeneratorsIN4mfem13FiniteElement7MapTypeEE8populateEOS4_
FN:4017,_ZN5Catch10Generators10GeneratorsIN4mfem13QVectorLayoutEE8populateEOS3_
FN:4017,_ZN5Catch10Generators10GeneratorsIN4mfem7Element4TypeEE8populateEOS4_
FN:4017,_ZN5Catch10Generators10GeneratorsIN4mfem7SubMesh4FromEE8populateEOS4_
FN:4017,_ZN5Catch10Generators10GeneratorsIN4mfem8Ordering4TypeEE8populateEOS4_
FN:4017,_ZN5Catch10Generators10GeneratorsIN4mfem9BasisTypeUt_EE8populateEOS4_
FN:4017,_ZN5Catch10Generators10GeneratorsIRA21_KcE8populateES4_
FN:4017,_ZN5Catch10Generators10GeneratorsIRA24_KcE8populateES4_
FN:4017,_ZN5Catch10Generators10GeneratorsIRA28_KcE8populateES4_
FN:4017,_ZN5Catch10Generators10GeneratorsIRA32_KcE8populateES4_
FN:4017,_ZN5Catch10Generators10GeneratorsIZN11lor_batchedL20C_A_T_C_H_T_E_S_T_15EvE9SpaceTypeE8populateEOS3_
FN:4017,_ZN5Catch10Generators10GeneratorsIbE8populateEOb
FN:4017,_ZN5Catch10Generators10GeneratorsIiE8populateEOi
FN:4025,_ZN5Catch10Generators10GeneratorsI8VecSpaceE8populateIS2_JS2_S2_EEEvOT_DpOT0_
FN:4025,_ZN5Catch10Generators10GeneratorsIN15assembly_levels7ProblemEE8populateINS0_16GeneratorWrapperIS3_EEJS3_S3_EEEvOT_DpOT0_
FN:4025,_ZN5Catch10Generators10GeneratorsIN17LinearFormExtTestUt_EE8populateINS0_16GeneratorWrapperIS3_EEJS3_S3_EEEvOT_DpOT0_
FN:4025,_ZN5Catch10Generators10GeneratorsIN17LinearFormExtTestUt_EE8populateINS0_16GeneratorWrapperIS3_EEJS3_S3_S3_S3_EEEvOT_DpOT0_
FN:4025,_ZN5Catch10Generators10GeneratorsIN17LinearFormExtTestUt_EE8populateIS3_JS3_S3_EEEvOT_DpOT0_
FN:4025,_ZN5Catch10Generators10GeneratorsIN18sparse_matrix_test5CoeffEE8populateINS0_16GeneratorWrapperIS3_EEJS3_S3_EEEvOT_DpOT0_
FN:4025,_ZN5Catch10Generators10GeneratorsIN18sparse_matrix_test7ProblemEE8populateINS0_16GeneratorWrapperIS3_EEJS3_S3_EEEvOT_DpOT0_
FN:4025,_ZN5Catch10Generators10GeneratorsIN4mfem10RefinementUt_EE8populateINS0_16GeneratorWrapperIS4_EEJS4_S4_S4_S4_S4_S4_EEEvOT_DpOT0_
FN:4025,_ZN5Catch10Generators10GeneratorsIN4mfem10RefinementUt_EE8populateIS4_JS4_S4_EEEvOT_DpOT0_
FN:4025,_ZN5Catch10Generators10GeneratorsIN4mfem10RefinementUt_EE8populateIS4_JS4_S4_S4_S4_EEEvOT_DpOT0_
FN:4025,_ZN5Catch10Generators10GeneratorsIN4mfem13AssemblyLevelEE8populateINS0_16GeneratorWrapperIS3_EEJS3_S3_EEEvOT_DpOT0_
FN:4025,_ZN5Catch10Generators10GeneratorsIN4mfem7Element4TypeEE8populateINS0_16GeneratorWrapperIS4_EEJS4_S4_EEEvOT_DpOT0_
FN:4025,_ZN5Catch10Generators10GeneratorsIN4mfem9BasisTypeUt_EE8populateINS0_16GeneratorWrapperIS4_EEJS4_S4_EEEvOT_DpOT0_
FN:4025,_ZN5Catch10Generators10GeneratorsIRA21_KcE8populateINS0_16GeneratorWrapperIS4_EEJRA24_S2_SA_EEEvOT_DpOT0_
FN:4025,_ZN5Catch10Generators10GeneratorsIRA21_KcE8populateINS0_16GeneratorWrapperIS4_EEJRA28_S2_RA27_S2_RA29_S2_SC_EEEvOT_DpOT0_
FN:4025,_ZN5Catch10Generators10GeneratorsIRA21_KcE8populateIRA24_S2_JS8_RA27_S2_EEEvOT_DpOT0_
FN:4025,_ZN5Catch10Generators10GeneratorsIRA21_KcE8populateIRA27_S2_JRA29_S2_S8_EEEvOT_DpOT0_
FN:4025,_ZN5Catch10Generators10GeneratorsIRA28_KcE8populateIRA27_S2_JRA24_S2_S8_EEEvOT_DpOT0_
FN:4025,_ZN5Catch10Generators10GeneratorsIRA32_KcE8populateIRA25_S2_JRA26_S2_RA28_S2_EEEvOT_DpOT0_
FN:4025,_ZN5Catch10Generators10GeneratorsIiE8populateINS0_16GeneratorWrapperIiEEJiiEEEvOT_DpOT0_
FN:4025,_ZN5Catch10Generators10GeneratorsIiE8populateINS0_16GeneratorWrapperIiEEJiiiiEEEvOT_DpOT0_
FN:4025,_ZN5Catch10Generators10GeneratorsIiE8populateIiJiiEEEvOT_DpOT0_
FN:4025,_ZN5Catch10Generators10GeneratorsIiE8populateIiJiiiiEEEvOT_DpOT0_
FN:4032,_ZN5Catch10Generators10GeneratorsI12TransferTypeEC2IJNS0_16GeneratorWrapperIS2_EES2_EEEDpOT_
FN:4032,_ZN5Catch10Generators10GeneratorsI7FECTypeEC2IJNS0_16GeneratorWrapperIS2_EES2_EEEDpOT_
FN:4032,_ZN5Catch10Generators10GeneratorsI8VecSpaceEC2IJNS0_16GeneratorWrapperIS2_EES2_EEEDpOT_
FN:4032,_ZN5Catch10Generators10GeneratorsI8VecSpaceEC2IJNS0_16GeneratorWrapperIS2_EES2_S2_S2_EEEDpOT_
FN:4032,_ZN5Catch10Generators10GeneratorsI9FieldTypeEC2IJNS0_16GeneratorWrapperIS2_EES2_EEEDpOT_
FN:4032,_ZN5Catch10Generators10GeneratorsIN15ParSubMeshTests7FECTypeEEC2IJNS0_16GeneratorWrapperIS3_EES3_EEEDpOT_
FN:4032,_ZN5Catch10Generators10GeneratorsIN15assembly_levels7ProblemEEC2IJNS0_16GeneratorWrapperIS3_EES3_EEEDpOT_
FN:4032,_ZN5Catch10Generators10GeneratorsIN15assembly_levels7ProblemEEC2IJNS0_16GeneratorWrapperIS3_EES3_S3_EEEDpOT_
FN:4032,_ZN5Catch10Generators10GeneratorsIN17LinearFormExtTestUt_EEC2IJNS0_16GeneratorWrapperIS3_EES3_S3_EEEDpOT_
FN:4032,_ZN5Catch10Generators10GeneratorsIN17LinearFormExtTestUt_EEC2IJNS0_16GeneratorWrapperIS3_EES3_S3_S3_S3_EEEDpOT_
FN:4032,_ZN5Catch10Generators10GeneratorsIN18sparse_matrix_test5CoeffEEC2IJNS0_16GeneratorWrapperIS3_EES3_S3_EEEDpOT_
FN:4032,_ZN5Catch10Generators10GeneratorsIN18sparse_matrix_test7ProblemEEC2IJNS0_16GeneratorWrapperIS3_EES3_S3_EEEDpOT_
FN:4032,_ZN5Catch10Generators10GeneratorsIN21face_restriction_test9SpaceTypeEEC2IJNS0_16GeneratorWrapperIS3_EES3_EEEDpOT_
FN:4032,_ZN5Catch10Generators10GeneratorsIN4mfem10RefinementUt_EEC2IJNS0_16GeneratorWrapperIS4_EEEEEDpOT_
FN:4032,_ZN5Catch10Generators10GeneratorsIN4mfem10RefinementUt_EEC2IJNS0_16GeneratorWrapperIS4_EES4_S4_S4_S4_S4_S4_EEEDpOT_
FN:4032,_ZN5Catch10Generators10GeneratorsIN4mfem13AssemblyLevelEEC2IJNS0_16GeneratorWrapperIS3_EES3_EEEDpOT_
FN:4032,_ZN5Catch10Generators10GeneratorsIN4mfem13AssemblyLevelEEC2IJNS0_16GeneratorWrapperIS3_EES3_S3_EEEDpOT_
FN:4032,_ZN5Catch10Generators10GeneratorsIN4mfem13FiniteElement7MapTypeEEC2IJNS0_16GeneratorWrapperIS4_EES4_EEEDpOT_
FN:4032,_ZN5Catch10Generators10GeneratorsIN4mfem13QVectorLayoutEEC2IJNS0_16GeneratorWrapperIS3_EES3_EEEDpOT_
FN:4032,_ZN5Catch10Generators10GeneratorsIN4mfem7Element4TypeEEC2IJNS0_16GeneratorWrapperIS4_EES4_EEEDpOT_
FN:4032,_ZN5Catch10Generators10GeneratorsIN4mfem7Element4TypeEEC2IJNS0_16GeneratorWrapperIS4_EES4_S4_EEEDpOT_
FN:4032,_ZN5Catch10Generators10GeneratorsIN4mfem7SubMesh4FromEEC2IJNS0_16GeneratorWrapperIS4_EES4_EEEDpOT_
FN:4032,_ZN5Catch10Generators10GeneratorsIN4mfem8Ordering4TypeEEC2IJNS0_16GeneratorWrapperIS4_EES4_EEEDpOT_
FN:4032,_ZN5Catch10Generators10GeneratorsIN4mfem9BasisTypeUt_EEC2IJNS0_16GeneratorWrapperIS4_EES4_EEEDpOT_
FN:4032,_ZN5Catch10Generators10GeneratorsIN4mfem9BasisTypeUt_EEC2IJNS0_16GeneratorWrapperIS4_EES4_S4_EEEDpOT_
FN:4032,_ZN5Catch10Generators10GeneratorsIRA21_KcEC2IJNS0_16GeneratorWrapperIS4_EERA24_S2_EEEDpOT_
FN:4032,_ZN5Catch10Generators10GeneratorsIRA21_KcEC2IJNS0_16GeneratorWrapperIS4_EERA24_S2_SA_EEEDpOT_
FN:4032,_ZN5Catch10Generators10GeneratorsIRA21_KcEC2IJNS0_16GeneratorWrapperIS4_EERA24_S2_SA_RA27_S2_EEEDpOT_
FN:4032,_ZN5Catch10Generators10GeneratorsIRA21_KcEC2IJNS0_16GeneratorWrapperIS4_EERA28_S2_RA27_S2_RA29_S2_SC_EEEDpOT_
FN:4032,_ZN5Catch10Generators10GeneratorsIRA24_KcEC2IJNS0_16GeneratorWrapperIS4_EERA27_S2_EEEDpOT_
FN:4032,_ZN5Catch10Generators10GeneratorsIRA27_KcEC2IJNS0_16GeneratorWrapperIS4_EEEEEDpOT_
FN:4032,_ZN5Catch10Generators10GeneratorsIRA28_KcEC2IJNS0_16GeneratorWrapperIS4_EERA27_S2_RA24_S2_SA_EEEDpOT_
FN:4032,_ZN5Catch10Generators10GeneratorsIRA32_KcEC2IJNS0_16GeneratorWrapperIS4_EERA25_S2_RA26_S2_RA28_S2_EEEDpOT_
FN:4032,_ZN5Catch10Generators10GeneratorsIZN11lor_batchedL20C_A_T_C_H_T_E_S_T_15EvE9SpaceTypeEC2IJNS0_16GeneratorWrapperIS3_EES3_EEEDpOT_
FN:4032,_ZN5Catch10Generators10GeneratorsIbEC2IJNS0_16GeneratorWrapperIbEEEEEDpOT_
FN:4032,_ZN5Catch10Generators10GeneratorsIbEC2IJNS0_16GeneratorWrapperIbEEbEEEDpOT_
FN:4032,_ZN5Catch10Generators10GeneratorsIiEC2IJNS0_16GeneratorWrapperIiEEEEEDpOT_
FN:4032,_ZN5Catch10Generators10GeneratorsIiEC2IJNS0_16GeneratorWrapperIiEEiEEEDpOT_
FN:4032,_ZN5Catch10Generators10GeneratorsIiEC2IJNS0_16GeneratorWrapperIiEEiiEEEDpOT_
FN:4032,_ZN5Catch10Generators10GeneratorsIiEC2IJNS0_16GeneratorWrapperIiEEiiiEEEDpOT_
FN:4032,_ZN5Catch10Generators10GeneratorsIiEC2IJNS0_16GeneratorWrapperIiEEiiiiEEEDpOT_
FN:4032,_ZN5Catch10Generators10GeneratorsIiEC2IJNS0_16GeneratorWrapperIiEEiiiiiEEEDpOT_
FN:4037,_ZNK5Catch10Generators10GeneratorsI12TransferTypeE3getEv
FN:4037,_ZNK5Catch10Generators10GeneratorsI7FECTypeE3getEv
FN:4037,_ZNK5Catch10Generators10GeneratorsI8VecSpaceE3getEv
FN:4037,_ZNK5Catch10Generators10GeneratorsI9FieldTypeE3getEv
FN:4037,_ZNK5Catch10Generators10GeneratorsIN15ParSubMeshTests7FECTypeEE3getEv
FN:4037,_ZNK5Catch10Generators10GeneratorsIN15assembly_levels7ProblemEE3getEv
FN:4037,_ZNK5Catch10Generators10GeneratorsIN17LinearFormExtTestUt_EE3getEv
FN:4037,_ZNK5Catch10Generators10GeneratorsIN18sparse_matrix_test5CoeffEE3getEv
FN:4037,_ZNK5Catch10Generators10GeneratorsIN18sparse_matrix_test7ProblemEE3getEv
FN:4037,_ZNK5Catch10Generators10GeneratorsIN21face_restriction_test9SpaceTypeEE3getEv
FN:4037,_ZNK5Catch10Generators10GeneratorsIN4mfem10RefinementUt_EE3getEv
FN:4037,_ZNK5Catch10Generators10GeneratorsIN4mfem13AssemblyLevelEE3getEv
FN:4037,_ZNK5Catch10Generators10GeneratorsIN4mfem13FiniteElement7MapTypeEE3getEv
FN:4037,_ZNK5Catch10Generators10GeneratorsIN4mfem13QVectorLayoutEE3getEv
FN:4037,_ZNK5Catch10Generators10GeneratorsIN4mfem7Element4TypeEE3getEv
FN:4037,_ZNK5Catch10Generators10GeneratorsIN4mfem7SubMesh4FromEE3getEv
FN:4037,_ZNK5Catch10Generators10GeneratorsIN4mfem8Ordering4TypeEE3getEv
FN:4037,_ZNK5Catch10Generators10GeneratorsIN4mfem9BasisTypeUt_EE3getEv
FN:4037,_ZNK5Catch10Generators10GeneratorsIRA21_KcE3getEv
FN:4037,_ZNK5Catch10Generators10GeneratorsIRA24_KcE3getEv
FN:4037,_ZNK5Catch10Generators10GeneratorsIRA27_KcE3getEv
FN:4037,_ZNK5Catch10Generators10GeneratorsIRA28_KcE3getEv
FN:4037,_ZNK5Catch10Generators10GeneratorsIRA32_KcE3getEv
FN:4037,_ZNK5Catch10Generators10GeneratorsIZN11lor_batchedL20C_A_T_C_H_T_E_S_T_15EvE9SpaceTypeE3getEv
FN:4037,_ZNK5Catch10Generators10GeneratorsIbE3getEv
FN:4037,_ZNK5Catch10Generators10GeneratorsIiE3getEv
FN:4041,_ZN5Catch10Generators10GeneratorsI12TransferTypeE4nextEv
FN:4041,_ZN5Catch10Generators10GeneratorsI7FECTypeE4nextEv
FN:4041,_ZN5Catch10Generators10GeneratorsI8VecSpaceE4nextEv
FN:4041,_ZN5Catch10Generators10GeneratorsI9FieldTypeE4nextEv
FN:4041,_ZN5Catch10Generators10GeneratorsIN15ParSubMeshTests7FECTypeEE4nextEv
FN:4041,_ZN5Catch10Generators10GeneratorsIN15assembly_levels7ProblemEE4nextEv
FN:4041,_ZN5Catch10Generators10GeneratorsIN17LinearFormExtTestUt_EE4nextEv
FN:4041,_ZN5Catch10Generators10GeneratorsIN18sparse_matrix_test5CoeffEE4nextEv
FN:4041,_ZN5Catch10Generators10GeneratorsIN18sparse_matrix_test7ProblemEE4nextEv
FN:4041,_ZN5Catch10Generators10GeneratorsIN21face_restriction_test9SpaceTypeEE4nextEv
FN:4041,_ZN5Catch10Generators10GeneratorsIN4mfem10RefinementUt_EE4nextEv
FN:4041,_ZN5Catch10Generators10GeneratorsIN4mfem13AssemblyLevelEE4nextEv
FN:4041,_ZN5Catch10Generators10GeneratorsIN4mfem13FiniteElement7MapTypeEE4nextEv
FN:4041,_ZN5Catch10Generators10GeneratorsIN4mfem13QVectorLayoutEE4nextEv
FN:4041,_ZN5Catch10Generators10GeneratorsIN4mfem7Element4TypeEE4nextEv
FN:4041,_ZN5Catch10Generators10GeneratorsIN4mfem7SubMesh4FromEE4nextEv
FN:4041,_ZN5Catch10Generators10GeneratorsIN4mfem8Ordering4TypeEE4nextEv
FN:4041,_ZN5Catch10Generators10GeneratorsIN4mfem9BasisTypeUt_EE4nextEv
FN:4041,_ZN5Catch10Generators10GeneratorsIRA21_KcE4nextEv
FN:4041,_ZN5Catch10Generators10GeneratorsIRA24_KcE4nextEv
FN:4041,_ZN5Catch10Generators10GeneratorsIRA27_KcE4nextEv
FN:4041,_ZN5Catch10Generators10GeneratorsIRA28_KcE4nextEv
FN:4041,_ZN5Catch10Generators10GeneratorsIRA32_KcE4nextEv
FN:4041,_ZN5Catch10Generators10GeneratorsIZN11lor_batchedL20C_A_T_C_H_T_E_S_T_15EvE9SpaceTypeE4nextEv
FN:4041,_ZN5Catch10Generators10GeneratorsIbE4nextEv
FN:4041,_ZN5Catch10Generators10GeneratorsIiE4nextEv
FN:4071,_ZN5Catch10Generators14makeGeneratorsI12TransferTypeJS2_EEENS0_10GeneratorsIT_EEOS4_DpOT0_
FN:4071,_ZN5Catch10Generators14makeGeneratorsI7FECTypeJS2_EEENS0_10GeneratorsIT_EEOS4_DpOT0_
FN:4071,_ZN5Catch10Generators14makeGeneratorsI8VecSpaceJS2_EEENS0_10GeneratorsIT_EEOS4_DpOT0_
FN:4071,_ZN5Catch10Generators14makeGeneratorsI8VecSpaceJS2_S2_S2_EEENS0_10GeneratorsIT_EEOS4_DpOT0_
FN:4071,_ZN5Catch10Generators14makeGeneratorsI9FieldTypeJS2_EEENS0_10GeneratorsIT_EEOS4_DpOT0_
FN:4071,_ZN5Catch10Generators14makeGeneratorsIN15ParSubMeshTests7FECTypeEJS3_EEENS0_10GeneratorsIT_EEOS5_DpOT0_
FN:4071,_ZN5Catch10Generators14makeGeneratorsIN15assembly_levels7ProblemEJS3_EEENS0_10GeneratorsIT_EEOS5_DpOT0_
FN:4071,_ZN5Catch10Generators14makeGeneratorsIN15assembly_levels7ProblemEJS3_S3_EEENS0_10GeneratorsIT_EEOS5_DpOT0_
FN:4071,_ZN5Catch10Generators14makeGeneratorsIN17LinearFormExtTestUt_EJS3_S3_EEENS0_10GeneratorsIT_EEOS5_DpOT0_
FN:4071,_ZN5Catch10Generators14makeGeneratorsIN17LinearFormExtTestUt_EJS3_S3_S3_S3_EEENS0_10GeneratorsIT_EEOS5_DpOT0_
FN:4071,_ZN5Catch10Generators14makeGeneratorsIN18sparse_matrix_test5CoeffEJS3_S3_EEENS0_10GeneratorsIT_EEOS5_DpOT0_
FN:4071,_ZN5Catch10Generators14makeGeneratorsIN18sparse_matrix_test7ProblemEJS3_S3_EEENS0_10GeneratorsIT_EEOS5_DpOT0_
FN:4071,_ZN5Catch10Generators14makeGeneratorsIN21face_restriction_test9SpaceTypeEJS3_EEENS0_10GeneratorsIT_EEOS5_DpOT0_
FN:4071,_ZN5Catch10Generators14makeGeneratorsIN4mfem10RefinementUt_EJEEENS0_10GeneratorsIT_EEOS6_DpOT0_
FN:4071,_ZN5Catch10Generators14makeGeneratorsIN4mfem10RefinementUt_EJS4_S4_S4_S4_S4_S4_EEENS0_10GeneratorsIT_EEOS6_DpOT0_
FN:4071,_ZN5Catch10Generators14makeGeneratorsIN4mfem13AssemblyLevelEJS3_EEENS0_10GeneratorsIT_EEOS5_DpOT0_
FN:4071,_ZN5Catch10Generators14makeGeneratorsIN4mfem13AssemblyLevelEJS3_S3_EEENS0_10GeneratorsIT_EEOS5_DpOT0_
FN:4071,_ZN5Catch10Generators14makeGeneratorsIN4mfem13FiniteElement7MapTypeEJS4_EEENS0_10GeneratorsIT_EEOS6_DpOT0_
FN:4071,_ZN5Catch10Generators14makeGeneratorsIN4mfem13QVectorLayoutEJS3_EEENS0_10GeneratorsIT_EEOS5_DpOT0_
FN:4071,_ZN5Catch10Generators14makeGeneratorsIN4mfem7Element4TypeEJS4_EEENS0_10GeneratorsIT_EEOS6_DpOT0_
FN:4071,_ZN5Catch10Generators14makeGeneratorsIN4mfem7Element4TypeEJS4_S4_EEENS0_10GeneratorsIT_EEOS6_DpOT0_
FN:4071,_ZN5Catch10Generators14makeGeneratorsIN4mfem7SubMesh4FromEJS4_EEENS0_10GeneratorsIT_EEOS6_DpOT0_
FN:4071,_ZN5Catch10Generators14makeGeneratorsIN4mfem8Ordering4TypeEJS4_EEENS0_10GeneratorsIT_EEOS6_DpOT0_
FN:4071,_ZN5Catch10Generators14makeGeneratorsIN4mfem9BasisTypeUt_EJS4_EEENS0_10GeneratorsIT_EEOS6_DpOT0_
FN:4071,_ZN5Catch10Generators14makeGeneratorsIN4mfem9BasisTypeUt_EJS4_S4_EEENS0_10GeneratorsIT_EEOS6_DpOT0_
FN:4071,_ZN5Catch10Generators14makeGeneratorsIRA21_KcJRA24_S2_EEENS0_10GeneratorsIT_EEOS8_DpOT0_
FN:4071,_ZN5Catch10Generators14makeGeneratorsIRA21_KcJRA24_S2_S6_EEENS0_10GeneratorsIT_EEOS8_DpOT0_
FN:4071,_ZN5Catch10Generators14makeGeneratorsIRA21_KcJRA24_S2_S6_RA27_S2_EEENS0_10GeneratorsIT_EEOSA_DpOT0_
FN:4071,_ZN5Catch10Generators14makeGeneratorsIRA21_KcJRA28_S2_RA27_S2_RA29_S2_S8_EEENS0_10GeneratorsIT_EEOSC_DpOT0_
FN:4071,_ZN5Catch10Generators14makeGeneratorsIRA24_KcJRA27_S2_EEENS0_10GeneratorsIT_EEOS8_DpOT0_
FN:4071,_ZN5Catch10Generators14makeGeneratorsIRA27_KcJEEENS0_10GeneratorsIT_EEOS6_DpOT0_
FN:4071,_ZN5Catch10Generators14makeGeneratorsIRA28_KcJRA27_S2_RA24_S2_S6_EEENS0_10GeneratorsIT_EEOSA_DpOT0_
FN:4071,_ZN5Catch10Generators14makeGeneratorsIRA32_KcJRA25_S2_RA26_S2_RA28_S2_EEENS0_10GeneratorsIT_EEOSC_DpOT0_
FN:4071,_ZN5Catch10Generators14makeGeneratorsIZN11lor_batchedL20C_A_T_C_H_T_E_S_T_15EvE9SpaceTypeJS3_EEENS0_10GeneratorsIT_EEOS5_DpOT0_
FN:4071,_ZN5Catch10Generators14makeGeneratorsIbJEEENS0_10GeneratorsIT_EEOS3_DpOT0_
FN:4071,_ZN5Catch10Generators14makeGeneratorsIbJbEEENS0_10GeneratorsIT_EEOS3_DpOT0_
FN:4071,_ZN5Catch10Generators14makeGeneratorsIiJEEENS0_10GeneratorsIT_EEOS3_DpOT0_
FN:4071,_ZN5Catch10Generators14makeGeneratorsIiJiEEENS0_10GeneratorsIT_EEOS3_DpOT0_
FN:4071,_ZN5Catch10Generators14makeGeneratorsIiJiiEEENS0_10GeneratorsIT_EEOS3_DpOT0_
FN:4071,_ZN5Catch10Generators14makeGeneratorsIiJiiiEEENS0_10GeneratorsIT_EEOS3_DpOT0_
FN:4071,_ZN5Catch10Generators14makeGeneratorsIiJiiiiEEENS0_10GeneratorsIT_EEOS3_DpOT0_
FN:4071,_ZN5Catch10Generators14makeGeneratorsIiJiiiiiEEENS0_10GeneratorsIT_EEOS3_DpOT0_
FN:4085,_ZN5Catch10Generators8generateIZL19C_A_T_C_H_T_E_S_T_0vEUlvE0_EEDTcldtcl7declvalIDTclfp1_EEEE3getEENS_9StringRefERKNS_14SourceLineInfoERKT_
FN:4085,_ZN5Catch10Generators8generateIZL19C_A_T_C_H_T_E_S_T_0vEUlvE1_EEDTcldtcl7declvalIDTclfp1_EEEE3getEENS_9StringRefERKNS_14SourceLineInfoERKT_
FN:4085,_ZN5Catch10Generators8generateIZL19C_A_T_C_H_T_E_S_T_0vEUlvE2_EEDTcldtcl7declvalIDTclfp1_EEEE3getEENS_9StringRefERKNS_14SourceLineInfoERKT_
FN:4085,_ZN5Catch10Generators8generateIZL19C_A_T_C_H_T_E_S_T_0vEUlvE3_EEDTcldtcl7declvalIDTclfp1_EEEE3getEENS_9StringRefERKNS_14SourceLineInfoERKT_
FN:4085,_ZN5Catch10Generators8generateIZL19C_A_T_C_H_T_E_S_T_0vEUlvE4_EEDTcldtcl7declvalIDTclfp1_EEEE3getEENS_9StringRefERKNS_14SourceLineInfoERKT_
FN:4085,_ZN5Catch10Generators8generateIZL19C_A_T_C_H_T_E_S_T_0vEUlvE_EEDTcldtcl7declvalIDTclfp1_EEEE3getEENS_9StringRefERKNS_14SourceLineInfoERKT_
FN:4085,_ZN5Catch10Generators8generateIZL19C_A_T_C_H_T_E_S_T_1vEUlvE0_EEDTcldtcl7declvalIDTclfp1_EEEE3getEENS_9StringRefERKNS_14SourceLineInfoERKT_
FN:4085,_ZN5Catch10Generators8generateIZL19C_A_T_C_H_T_E_S_T_1vEUlvE11_EEDTcldtcl7declvalIDTclfp1_EEEE3getEENS_9StringRefERKNS_14SourceLineInfoERKT_
FN:4085,_ZN5Catch10Generators8generateIZL19C_A_T_C_H_T_E_S_T_1vEUlvE1_EEDTcldtcl7declvalIDTclfp1_EEEE3getEENS_9StringRefERKNS_14SourceLineInfoERKT_
FN:4085,_ZN5Catch10Generators8generateIZL19C_A_T_C_H_T_E_S_T_1vEUlvE2_EEDTcldtcl7declvalIDTclfp1_EEEE3getEENS_9StringRefERKNS_14SourceLineInfoERKT_
FN:4085,_ZN5Catch10Generators8generateIZL19C_A_T_C_H_T_E_S_T_1vEUlvE3_EEDTcldtcl7declvalIDTclfp1_EEEE3getEENS_9StringRefERKNS_14SourceLineInfoERKT_
FN:4085,_ZN5Catch10Generators8generateIZL19C_A_T_C_H_T_E_S_T_1vEUlvE4_EEDTcldtcl7declvalIDTclfp1_EEEE3getEENS_9StringRefERKNS_14SourceLineInfoERKT_
FN:4085,_ZN5Catch10Generators8generateIZL19C_A_T_C_H_T_E_S_T_1vEUlvE5_EEDTcldtcl7declvalIDTclfp1_EEEE3getEENS_9StringRefERKNS_14SourceLineInfoERKT_
FN:4085,_ZN5Catch10Generators8generateIZL19C_A_T_C_H_T_E_S_T_1vEUlvE6_EEDTcldtcl7declvalIDTclfp1_EEEE3getEENS_9StringRefERKNS_14SourceLineInfoERKT_
FN:4085,_ZN5Catch10Generators8generateIZL19C_A_T_C_H_T_E_S_T_1vEUlvE7_EEDTcldtcl7declvalIDTclfp1_EEEE3getEENS_9StringRefERKNS_14SourceLineInfoERKT_
FN:4085,_ZN5Catch10Generators8generateIZL19C_A_T_C_H_T_E_S_T_1vEUlvE8_EEDTcldtcl7declvalIDTclfp1_EEEE3getEENS_9StringRefERKNS_14SourceLineInfoERKT_
FN:4085,_ZN5Catch10Generators8generateIZL19C_A_T_C_H_T_E_S_T_1vEUlvE9_EEDTcldtcl7declvalIDTclfp1_EEEE3getEENS_9StringRefERKNS_14SourceLineInfoERKT_
FN:4085,_ZN5Catch10Generators8generateIZL19C_A_T_C_H_T_E_S_T_1vEUlvE_EEDTcldtcl7declvalIDTclfp1_EEEE3getEENS_9StringRefERKNS_14SourceLineInfoERKT_
FN:4085,_ZN5Catch10Generators8generateIZL19C_A_T_C_H_T_E_S_T_7vEUlvE0_EEDTcldtcl7declvalIDTclfp1_EEEE3getEENS_9StringRefERKNS_14SourceLineInfoERKT_
FN:4085,_ZN5Catch10Generators8generateIZL19C_A_T_C_H_T_E_S_T_7vEUlvE_EEDTcldtcl7declvalIDTclfp1_EEEE3getEENS_9StringRefERKNS_14SourceLineInfoERKT_
FN:4085,_ZN5Catch10Generators8generateIZL19C_A_T_C_H_T_E_S_T_8vEUlvE0_EEDTcldtcl7declvalIDTclfp1_EEEE3getEENS_9StringRefERKNS_14SourceLineInfoERKT_
FN:4085,_ZN5Catch10Generators8generateIZL19C_A_T_C_H_T_E_S_T_8vEUlvE1_EEDTcldtcl7declvalIDTclfp1_EEEE3getEENS_9StringRefERKNS_14SourceLineInfoERKT_
FN:4085,_ZN5Catch10Generators8generateIZL19C_A_T_C_H_T_E_S_T_8vEUlvE2_EEDTcldtcl7declvalIDTclfp1_EEEE3getEENS_9StringRefERKNS_14SourceLineInfoERKT_
FN:4085,_ZN5Catch10Generators8generateIZL19C_A_T_C_H_T_E_S_T_8vEUlvE_EEDTcldtcl7declvalIDTclfp1_EEEE3getEENS_9StringRefERKNS_14SourceLineInfoERKT_
FN:4085,_ZN5Catch10Generators8generateIZL19C_A_T_C_H_T_E_S_T_9vEUlvE_EEDTcldtcl7declvalIDTclfp1_EEEE3getEENS_9StringRefERKNS_14SourceLineInfoERKT_
FN:4085,_ZN5Catch10Generators8generateIZL20C_A_T_C_H_T_E_S_T_10vEUlvE_EEDTcldtcl7declvalIDTclfp1_EEEE3getEENS_9StringRefERKNS_14SourceLineInfoERKT_
FN:4085,_ZN5Catch10Generators8generateIZL20C_A_T_C_H_T_E_S_T_12vEUlvE0_EEDTcldtcl7declvalIDTclfp1_EEEE3getEENS_9StringRefERKNS_14SourceLineInfoERKT_
FN:4085,_ZN5Catch10Generators8generateIZL20C_A_T_C_H_T_E_S_T_12vEUlvE_EEDTcldtcl7declvalIDTclfp1_EEEE3getEENS_9StringRefERKNS_14SourceLineInfoERKT_
FN:4085,_ZN5Catch10Generators8generateIZL20C_A_T_C_H_T_E_S_T_15vEUlvE_EEDTcldtcl7declvalIDTclfp1_EEEE3getEENS_9StringRefERKNS_14SourceLineInfoERKT_
FN:4085,_ZN5Catch10Generators8generateIZL20C_A_T_C_H_T_E_S_T_17vEUlvE0_EEDTcldtcl7declvalIDTclfp1_EEEE3getEENS_9StringRefERKNS_14SourceLineInfoERKT_
FN:4085,_ZN5Catch10Generators8generateIZL20C_A_T_C_H_T_E_S_T_17vEUlvE1_EEDTcldtcl7declvalIDTclfp1_EEEE3getEENS_9StringRefERKNS_14SourceLineInfoERKT_
FN:4085,_ZN5Catch10Generators8generateIZL20C_A_T_C_H_T_E_S_T_17vEUlvE_EEDTcldtcl7declvalIDTclfp1_EEEE3getEENS_9StringRefERKNS_14SourceLineInfoERKT_
FN:4085,_ZN5Catch10Generators8generateIZL20C_A_T_C_H_T_E_S_T_19vEUlvE_EEDTcldtcl7declvalIDTclfp1_EEEE3getEENS_9StringRefERKNS_14SourceLineInfoERKT_
FN:4085,_ZN5Catch10Generators8generateIZL20C_A_T_C_H_T_E_S_T_20vEUlvE0_EEDTcldtcl7declvalIDTclfp1_EEEE3getEENS_9StringRefERKNS_14SourceLineInfoERKT_
FN:4085,_ZN5Catch10Generators8generateIZL20C_A_T_C_H_T_E_S_T_20vEUlvE1_EEDTcldtcl7declvalIDTclfp1_EEEE3getEENS_9StringRefERKNS_14SourceLineInfoERKT_
FN:4085,_ZN5Catch10Generators8generateIZL20C_A_T_C_H_T_E_S_T_20vEUlvE_EEDTcldtcl7declvalIDTclfp1_EEEE3getEENS_9StringRefERKNS_14SourceLineInfoERKT_
FN:4085,_ZN5Catch10Generators8generateIZL20C_A_T_C_H_T_E_S_T_25vEUlvE0_EEDTcldtcl7declvalIDTclfp1_EEEE3getEENS_9StringRefERKNS_14SourceLineInfoERKT_
FN:4085,_ZN5Catch10Generators8generateIZL20C_A_T_C_H_T_E_S_T_25vEUlvE1_EEDTcldtcl7declvalIDTclfp1_EEEE3getEENS_9StringRefERKNS_14SourceLineInfoERKT_
FN:4085,_ZN5Catch10Generators8generateIZL20C_A_T_C_H_T_E_S_T_25vEUlvE2_EEDTcldtcl7declvalIDTclfp1_EEEE3getEENS_9StringRefERKNS_14SourceLineInfoERKT_
FN:4085,_ZN5Catch10Generators8generateIZL20C_A_T_C_H_T_E_S_T_25vEUlvE_EEDTcldtcl7declvalIDTclfp1_EEEE3getEENS_9StringRefERKNS_14SourceLineInfoERKT_
FN:4085,_ZN5Catch10Generators8generateIZL20C_A_T_C_H_T_E_S_T_26vEUlvE_EEDTcldtcl7declvalIDTclfp1_EEEE3getEENS_9StringRefERKNS_14SourceLineInfoERKT_
FN:4085,_ZN5Catch10Generators8generateIZL20C_A_T_C_H_T_E_S_T_33vEUlvE_EEDTcldtcl7declvalIDTclfp1_EEEE3getEENS_9StringRefERKNS_14SourceLineInfoERKT_
FN:4085,_ZN5Catch10Generators8generateIZN10pa_kernelsL18test_pa_integratorIN4mfem14MassIntegratorEEEvvEUlvE0_EEDTcldtcl7declvalIDTclfp1_EEEE3getEENS_9StringRefERKNS_14SourceLineInfoERKT_
FN:4085,_ZN5Catch10Generators8generateIZN10pa_kernelsL18test_pa_integratorIN4mfem14MassIntegratorEEEvvEUlvE1_EEDTcldtcl7declvalIDTclfp1_EEEE3getEENS_9StringRefERKNS_14SourceLineInfoERKT_
FN:4085,_ZN5Catch10Generators8generateIZN10pa_kernelsL18test_pa_integratorIN4mfem14MassIntegratorEEEvvEUlvE2_EEDTcldtcl7declvalIDTclfp1_EEEE3getEENS_9StringRefERKNS_14SourceLineInfoERKT_
FN:4085,_ZN5Catch10Generators8generateIZN10pa_kernelsL18test_pa_integratorIN4mfem14MassIntegratorEEEvvEUlvE_EEDTcldtcl7declvalIDTclfp1_EEEE3getEENS_9StringRefERKNS_14SourceLineInfoERKT_
FN:4085,_ZN5Catch10Generators8generateIZN10pa_kernelsL18test_pa_integratorIN4mfem19DiffusionIntegratorEEEvvEUlvE0_EEDTcldtcl7declvalIDTclfp1_EEEE3getEENS_9StringRefERKNS_14SourceLineInfoERKT_
FN:4085,_ZN5Catch10Generators8generateIZN10pa_kernelsL18test_pa_integratorIN4mfem19DiffusionIntegratorEEEvvEUlvE1_EEDTcldtcl7declvalIDTclfp1_EEEE3getEENS_9StringRefERKNS_14SourceLineInfoERKT_
FN:4085,_ZN5Catch10Generators8generateIZN10pa_kernelsL18test_pa_integratorIN4mfem19DiffusionIntegratorEEEvvEUlvE2_EEDTcldtcl7declvalIDTclfp1_EEEE3getEENS_9StringRefERKNS_14SourceLineInfoERKT_
FN:4085,_ZN5Catch10Generators8generateIZN10pa_kernelsL18test_pa_integratorIN4mfem19DiffusionIntegratorEEEvvEUlvE_EEDTcldtcl7declvalIDTclfp1_EEEE3getEENS_9StringRefERKNS_14SourceLineInfoERKT_
FN:4085,_ZN5Catch10Generators8generateIZN10pa_kernelsL20C_A_T_C_H_T_E_S_T_21EvEUlvE0_EEDTcldtcl7declvalIDTclfp1_EEEE3getEENS_9StringRefERKNS_14SourceLineInfoERKT_
FN:4085,_ZN5Catch10Generators8generateIZN10pa_kernelsL20C_A_T_C_H_T_E_S_T_21EvEUlvE1_EEDTcldtcl7declvalIDTclfp1_EEEE3getEENS_9StringRefERKNS_14SourceLineInfoERKT_
FN:4085,_ZN5Catch10Generators8generateIZN10pa_kernelsL20C_A_T_C_H_T_E_S_T_21EvEUlvE_EEDTcldtcl7declvalIDTclfp1_EEEE3getEENS_9StringRefERKNS_14SourceLineInfoERKT_
FN:4085,_ZN5Catch10Generators8generateIZN10pa_kernelsL20C_A_T_C_H_T_E_S_T_28EvEUlvE0_EEDTcldtcl7declvalIDTclfp1_EEEE3getEENS_9StringRefERKNS_14SourceLineInfoERKT_
FN:4085,_ZN5Catch10Generators8generateIZN10pa_kernelsL20C_A_T_C_H_T_E_S_T_28EvEUlvE1_EEDTcldtcl7declvalIDTclfp1_EEEE3getEENS_9StringRefERKNS_14SourceLineInfoERKT_
FN:4085,_ZN5Catch10Generators8generateIZN10pa_kernelsL20C_A_T_C_H_T_E_S_T_28EvEUlvE_EEDTcldtcl7declvalIDTclfp1_EEEE3getEENS_9StringRefERKNS_14SourceLineInfoERKT_
FN:4085,_ZN5Catch10Generators8generateIZN11lor_batched14TestBatchedLORIN4mfem15H1_FECollectionENS4_14MassIntegratorENS4_19DiffusionIntegratorEEEvvEUlvE_EEDTcldtcl7declvalIDTclfp1_EEEE3getEENS_9StringRefERKNS_14SourceLineInfoERKT_
FN:4085,_ZN5Catch10Generators8generateIZN11lor_batched14TestBatchedLORIN4mfem15ND_FECollectionENS4_22VectorFEMassIntegratorENS4_18CurlCurlIntegratorEEEvvEUlvE_EEDTcldtcl7declvalIDTclfp1_EEEE3getEENS_9StringRefERKNS_14SourceLineInfoERKT_
FN:4085,_ZN5Catch10Generators8generateIZN11lor_batched14TestBatchedLORIN4mfem15RT_FECollectionENS4_22VectorFEMassIntegratorENS4_16DivDivIntegratorEEEvvEUlvE_EEDTcldtcl7declvalIDTclfp1_EEEE3getEENS_9StringRefERKNS_14SourceLineInfoERKT_
FN:4085,_ZN5Catch10Generators8generateIZN11lor_batched17ParTestBatchedLORIN4mfem15H1_FECollectionENS4_14MassIntegratorENS4_19DiffusionIntegratorEEEvvEUlvE0_EEDTcldtcl7declvalIDTclfp1_EEEE3getEENS_9StringRefERKNS_14SourceLineInfoERKT_
FN:4085,_ZN5Catch10Generators8generateIZN11lor_batched17ParTestBatchedLORIN4mfem15H1_FECollectionENS4_14MassIntegratorENS4_19DiffusionIntegratorEEEvvEUlvE_EEDTcldtcl7declvalIDTclfp1_EEEE3getEENS_9StringRefERKNS_14SourceLineInfoERKT_
FN:4085,_ZN5Catch10Generators8generateIZN11lor_batched17ParTestBatchedLORIN4mfem15ND_FECollectionENS4_22VectorFEMassIntegratorENS4_18CurlCurlIntegratorEEEvvEUlvE0_EEDTcldtcl7declvalIDTclfp1_EEEE3getEENS_9StringRefERKNS_14SourceLineInfoERKT_
FN:4085,_ZN5Catch10Generators8generateIZN11lor_batched17ParTestBatchedLORIN4mfem15ND_FECollectionENS4_22VectorFEMassIntegratorENS4_18CurlCurlIntegratorEEEvvEUlvE_EEDTcldtcl7declvalIDTclfp1_EEEE3getEENS_9StringRefERKNS_14SourceLineInfoERKT_
FN:4085,_ZN5Catch10Generators8generateIZN11lor_batched17ParTestBatchedLORIN4mfem15RT_FECollectionENS4_22VectorFEMassIntegratorENS4_16DivDivIntegratorEEEvvEUlvE0_EEDTcldtcl7declvalIDTclfp1_EEEE3getEENS_9StringRefERKNS_14SourceLineInfoERKT_
FN:4085,_ZN5Catch10Generators8generateIZN11lor_batched17ParTestBatchedLORIN4mfem15RT_FECollectionENS4_22VectorFEMassIntegratorENS4_16DivDivIntegratorEEEvvEUlvE_EEDTcldtcl7declvalIDTclfp1_EEEE3getEENS_9StringRefERKNS_14SourceLineInfoERKT_
FN:4085,_ZN5Catch10Generators8generateIZN11lor_batchedL20C_A_T_C_H_T_E_S_T_15EvEUlvE0_EEDTcldtcl7declvalIDTclfp1_EEEE3getEENS_9StringRefERKNS_14SourceLineInfoERKT_
FN:4085,_ZN5Catch10Generators8generateIZN11lor_batchedL20C_A_T_C_H_T_E_S_T_15EvEUlvE_EEDTcldtcl7declvalIDTclfp1_EEEE3getEENS_9StringRefERKNS_14SourceLineInfoERKT_
FN:4085,_ZN5Catch10Generators8generateIZN11lor_batchedL20C_A_T_C_H_T_E_S_T_19EvEUlvE_EEDTcldtcl7declvalIDTclfp1_EEEE3getEENS_9StringRefERKNS_14SourceLineInfoERKT_
FN:4085,_ZN5Catch10Generators8generateIZN11white_noiseL19C_A_T_C_H_T_E_S_T_0EvEUlvE_EEDTcldtcl7declvalIDTclfp1_EEEE3getEENS_9StringRefERKNS_14SourceLineInfoERKT_
FN:4085,_ZN5Catch10Generators8generateIZN11white_noiseL19C_A_T_C_H_T_E_S_T_5EvEUlvE_EEDTcldtcl7declvalIDTclfp1_EEEE3getEENS_9StringRefERKNS_14SourceLineInfoERKT_
FN:4085,_ZN5Catch10Generators8generateIZN15ParSubMeshTestsL20C_A_T_C_H_T_E_S_T_17EvEUlvE_EEDTcldtcl7declvalIDTclfp1_EEEE3getEENS_9StringRefERKNS_14SourceLineInfoERKT_
FN:4085,_ZN5Catch10Generators8generateIZN15assembly_levelsL19C_A_T_C_H_T_E_S_T_1EvEUlvE0_EEDTcldtcl7declvalIDTclfp1_EEEE3getEENS_9StringRefERKNS_14SourceLineInfoERKT_
FN:4085,_ZN5Catch10Generators8generateIZN15assembly_levelsL19C_A_T_C_H_T_E_S_T_1EvEUlvE1_EEDTcldtcl7declvalIDTclfp1_EEEE3getEENS_9StringRefERKNS_14SourceLineInfoERKT_
FN:4085,_ZN5Catch10Generators8generateIZN15assembly_levelsL19C_A_T_C_H_T_E_S_T_1EvEUlvE2_EEDTcldtcl7declvalIDTclfp1_EEEE3getEENS_9StringRefERKNS_14SourceLineInfoERKT_
FN:4085,_ZN5Catch10Generators8generateIZN15assembly_levelsL19C_A_T_C_H_T_E_S_T_1EvEUlvE3_EEDTcldtcl7declvalIDTclfp1_EEEE3getEENS_9StringRefERKNS_14SourceLineInfoERKT_
FN:4085,_ZN5Catch10Generators8generateIZN15assembly_levelsL19C_A_T_C_H_T_E_S_T_1EvEUlvE4_EEDTcldtcl7declvalIDTclfp1_EEEE3getEENS_9StringRefERKNS_14SourceLineInfoERKT_
FN:4085,_ZN5Catch10Generators8generateIZN15assembly_levelsL19C_A_T_C_H_T_E_S_T_1EvEUlvE5_EEDTcldtcl7declvalIDTclfp1_EEEE3getEENS_9StringRefERKNS_14SourceLineInfoERKT_
FN:4085,_ZN5Catch10Generators8generateIZN15assembly_levelsL19C_A_T_C_H_T_E_S_T_1EvEUlvE6_EEDTcldtcl7declvalIDTclfp1_EEEE3getEENS_9StringRefERKNS_14SourceLineInfoERKT_
FN:4085,_ZN5Catch10Generators8generateIZN15assembly_levelsL19C_A_T_C_H_T_E_S_T_1EvEUlvE7_EEDTcldtcl7declvalIDTclfp1_EEEE3getEENS_9StringRefERKNS_14SourceLineInfoERKT_
FN:4085,_ZN5Catch10Generators8generateIZN15assembly_levelsL19C_A_T_C_H_T_E_S_T_1EvEUlvE8_EEDTcldtcl7declvalIDTclfp1_EEEE3getEENS_9StringRefERKNS_14SourceLineInfoERKT_
FN:4085,_ZN5Catch10Generators8generateIZN15assembly_levelsL19C_A_T_C_H_T_E_S_T_1EvEUlvE_EEDTcldtcl7declvalIDTclfp1_EEEE3getEENS_9StringRefERKNS_14SourceLineInfoERKT_
FN:4085,_ZN5Catch10Generators8generateIZN15assembly_levelsL20C_A_T_C_H_T_E_S_T_19EvEUlvE0_EEDTcldtcl7declvalIDTclfp1_EEEE3getEENS_9StringRefERKNS_14SourceLineInfoERKT_
FN:4085,_ZN5Catch10Generators8generateIZN15assembly_levelsL20C_A_T_C_H_T_E_S_T_19EvEUlvE1_EEDTcldtcl7declvalIDTclfp1_EEEE3getEENS_9StringRefERKNS_14SourceLineInfoERKT_
FN:4085,_ZN5Catch10Generators8generateIZN15assembly_levelsL20C_A_T_C_H_T_E_S_T_19EvEUlvE2_EEDTcldtcl7declvalIDTclfp1_EEEE3getEENS_9StringRefERKNS_14SourceLineInfoERKT_
FN:4085,_ZN5Catch10Generators8generateIZN15assembly_levelsL20C_A_T_C_H_T_E_S_T_19EvEUlvE3_EEDTcldtcl7declvalIDTclfp1_EEEE3getEENS_9StringRefERKNS_14SourceLineInfoERKT_
FN:4085,_ZN5Catch10Generators8generateIZN15assembly_levelsL20C_A_T_C_H_T_E_S_T_19EvEUlvE4_EEDTcldtcl7declvalIDTclfp1_EEEE3getEENS_9StringRefERKNS_14SourceLineInfoERKT_
FN:4085,_ZN5Catch10Generators8generateIZN15assembly_levelsL20C_A_T_C_H_T_E_S_T_19EvEUlvE5_EEDTcldtcl7declvalIDTclfp1_EEEE3getEENS_9StringRefERKNS_14SourceLineInfoERKT_
FN:4085,_ZN5Catch10Generators8generateIZN15assembly_levelsL20C_A_T_C_H_T_E_S_T_19EvEUlvE6_EEDTcldtcl7declvalIDTclfp1_EEEE3getEENS_9StringRefERKNS_14SourceLineInfoERKT_
FN:4085,_ZN5Catch10Generators8generateIZN15assembly_levelsL20C_A_T_C_H_T_E_S_T_19EvEUlvE7_EEDTcldtcl7declvalIDTclfp1_EEEE3getEENS_9StringRefERKNS_14SourceLineInfoERKT_
FN:4085,_ZN5Catch10Generators8generateIZN15assembly_levelsL20C_A_T_C_H_T_E_S_T_19EvEUlvE8_EEDTcldtcl7declvalIDTclfp1_EEEE3getEENS_9StringRefERKNS_14SourceLineInfoERKT_
FN:4085,_ZN5Catch10Generators8generateIZN15assembly_levelsL20C_A_T_C_H_T_E_S_T_19EvEUlvE_EEDTcldtcl7declvalIDTclfp1_EEEE3getEENS_9StringRefERKNS_14SourceLineInfoERKT_
FN:4085,_ZN5Catch10Generators8generateIZN15assembly_levelsL20C_A_T_C_H_T_E_S_T_37EvEUlvE0_EEDTcldtcl7declvalIDTclfp1_EEEE3getEENS_9StringRefERKNS_14SourceLineInfoERKT_
FN:4085,_ZN5Catch10Generators8generateIZN15assembly_levelsL20C_A_T_C_H_T_E_S_T_37EvEUlvE_EEDTcldtcl7declvalIDTclfp1_EEEE3getEENS_9StringRefERKNS_14SourceLineInfoERKT_
FN:4085,_ZN5Catch10Generators8generateIZN15assembly_levelsL20C_A_T_C_H_T_E_S_T_41EvEUlvE0_EEDTcldtcl7declvalIDTclfp1_EEEE3getEENS_9StringRefERKNS_14SourceLineInfoERKT_
FN:4085,_ZN5Catch10Generators8generateIZN15assembly_levelsL20C_A_T_C_H_T_E_S_T_41EvEUlvE_EEDTcldtcl7declvalIDTclfp1_EEEE3getEENS_9StringRefERKNS_14SourceLineInfoERKT_
FN:4085,_ZN5Catch10Generators8generateIZN18sparse_matrix_testL19C_A_T_C_H_T_E_S_T_1EvEUlvE0_EEDTcldtcl7declvalIDTclfp1_EEEE3getEENS_9StringRefERKNS_14SourceLineInfoERKT_
FN:4085,_ZN5Catch10Generators8generateIZN18sparse_matrix_testL19C_A_T_C_H_T_E_S_T_1EvEUlvE1_EEDTcldtcl7declvalIDTclfp1_EEEE3getEENS_9StringRefERKNS_14SourceLineInfoERKT_
FN:4085,_ZN5Catch10Generators8generateIZN18sparse_matrix_testL19C_A_T_C_H_T_E_S_T_1EvEUlvE2_EEDTcldtcl7declvalIDTclfp1_EEEE3getEENS_9StringRefERKNS_14SourceLineInfoERKT_
FN:4085,_ZN5Catch10Generators8generateIZN18sparse_matrix_testL19C_A_T_C_H_T_E_S_T_1EvEUlvE3_EEDTcldtcl7declvalIDTclfp1_EEEE3getEENS_9StringRefERKNS_14SourceLineInfoERKT_
FN:4085,_ZN5Catch10Generators8generateIZN18sparse_matrix_testL19C_A_T_C_H_T_E_S_T_1EvEUlvE4_EEDTcldtcl7declvalIDTclfp1_EEEE3getEENS_9StringRefERKNS_14SourceLineInfoERKT_
FN:4085,_ZN5Catch10Generators8generateIZN18sparse_matrix_testL19C_A_T_C_H_T_E_S_T_1EvEUlvE_EEDTcldtcl7declvalIDTclfp1_EEEE3getEENS_9StringRefERKNS_14SourceLineInfoERKT_
FN:4085,_ZN5Catch10Generators8generateIZN4mfemL19C_A_T_C_H_T_E_S_T_6EvEUlvE0_EEDTcldtcl7declvalIDTclfp1_EEEE3getEENS_9StringRefERKNS_14SourceLineInfoERKT_
FN:4085,_ZN5Catch10Generators8generateIZN4mfemL19C_A_T_C_H_T_E_S_T_6EvEUlvE_EEDTcldtcl7declvalIDTclfp1_EEEE3getEENS_9StringRefERKNS_14SourceLineInfoERKT_
FN:4085,_ZN5Catch10Generators8generateIZN4mfemL20C_A_T_C_H_T_E_S_T_10EvEUlvE0_EEDTcldtcl7declvalIDTclfp1_EEEE3getEENS_9StringRefERKNS_14SourceLineInfoERKT_
FN:4085,_ZN5Catch10Generators8generateIZN4mfemL20C_A_T_C_H_T_E_S_T_10EvEUlvE_EEDTcldtcl7declvalIDTclfp1_EEEE3getEENS_9StringRefERKNS_14SourceLineInfoERKT_
FN:4431,_ZN5Catch6OptionINS_11TestRunInfoEEaSERKS1_
FN:4431,_ZN5Catch6OptionINS_12TestCaseInfoEEaSERKS1_
FN:4431,_ZN5Catch6OptionINS_15AssertionResultEEaSERKS1_
FN:4431,_ZN5Catch6OptionINS_9GroupInfoEEaSERKS1_
FN:4674,_ZN5Catch10Generators14RangeGeneratorIiEC2ERKiS4_S4_
FN:4689,_ZNK5Catch10Generators14RangeGeneratorIiE3getEv
FN:4693,_ZN5Catch10Generators14RangeGeneratorIiE4nextEv
FN:4706,_ZN5Catch10Generators5rangeIiEENS0_16GeneratorWrapperIT_EERKS3_S6_
FN:5091,_ZN5Catch15WildcardPatternD0Ev
FN:5091,_ZN5Catch15WildcardPatternD2Ev
FN:5243,_ZN5Catch14TestSpecParser16addCharToPatternEc
FN:5322,_ZN5Catch6ConfigD0Ev
FN:5322,_ZN5Catch6ConfigD2Ev
FN:5532,_ZN5Catch14AssertionStatsC2ERKS0_
FN:5550,_ZN5Catch12SectionStatsaSERKS0_
FN:5567,_ZN5Catch13TestCaseStatsC2ERKS0_
FN:5586,_ZN5Catch14TestGroupStatsC2ERKS0_
FN:5602,_ZN5Catch12TestRunStatsC2ERKS0_
FN:5662,_ZN5Catch18IStreamingReporter22reportInvalidArgumentsERKNSt7__cxx1112basic_stringIcSt11char_traitsIcESaIcEEE
FN:5738,_ZN5Catch21StreamingReporterBaseINS_11XmlReporterEEC2ERKNS_14ReporterConfigE
FN:5738,_ZN5Catch21StreamingReporterBaseINS_15CompactReporterEEC2ERKNS_14ReporterConfigE
FN:5738,_ZN5Catch21StreamingReporterBaseINS_15ConsoleReporterEEC2ERKNS_14ReporterConfigE
FN:5738,_ZN5Catch21StreamingReporterBaseINS_21TestEventListenerBaseEEC2ERKNS_14ReporterConfigE
FN:5747,_ZNK5Catch21StreamingReporterBaseINS_11XmlReporterEE14getPreferencesEv
FN:5747,_ZNK5Catch21StreamingReporterBaseINS_15CompactReporterEE14getPreferencesEv
FN:5747,_ZNK5Catch21StreamingReporterBaseINS_15ConsoleReporterEE14getPreferencesEv
FN:5747,_ZNK5Catch21StreamingReporterBaseINS_21TestEventListenerBaseEE14getPreferencesEv
FN:5755,_ZN5Catch21StreamingReporterBaseINS_11XmlReporterEED0Ev
FN:5755,_ZN5Catch21StreamingReporterBaseINS_11XmlReporterEED2Ev
FN:5755,_ZN5Catch21StreamingReporterBaseINS_15CompactReporterEED0Ev
FN:5755,_ZN5Catch21StreamingReporterBaseINS_15CompactReporterEED2Ev
FN:5755,_ZN5Catch21StreamingReporterBaseINS_15ConsoleReporterEED0Ev
FN:5755,_ZN5Catch21StreamingReporterBaseINS_15ConsoleReporterEED2Ev
FN:5755,_ZN5Catch21StreamingReporterBaseINS_21TestEventListenerBaseEED0Ev
FN:5755,_ZN5Catch21StreamingReporterBaseINS_21TestEventListenerBaseEED2Ev
FN:5757,_ZN5Catch21StreamingReporterBaseINS_11XmlReporterEE19noMatchingTestCasesERKNSt7__cxx1112basic_stringIcSt11char_traitsIcESaIcEEE
FN:5757,_ZN5Catch21StreamingReporterBaseINS_15CompactReporterEE19noMatchingTestCasesERKNSt7__cxx1112basic_stringIcSt11char_traitsIcESaIcEEE
FN:5757,_ZN5Catch21StreamingReporterBaseINS_15ConsoleReporterEE19noMatchingTestCasesERKNSt7__cxx1112basic_stringIcSt11char_traitsIcESaIcEEE
FN:5757,_ZN5Catch21StreamingReporterBaseINS_21TestEventListenerBaseEE19noMatchingTestCasesERKNSt7__cxx1112basic_stringIcSt11char_traitsIcESaIcEEE
FN:5759,_ZN5Catch21StreamingReporterBaseINS_11XmlReporterEE22reportInvalidArgumentsERKNSt7__cxx1112basic_stringIcSt11char_traitsIcESaIcEEE
FN:5759,_ZN5Catch21StreamingReporterBaseINS_15CompactReporterEE22reportInvalidArgumentsERKNSt7__cxx1112basic_stringIcSt11char_traitsIcESaIcEEE
FN:5759,_ZN5Catch21StreamingReporterBaseINS_15ConsoleReporterEE22reportInvalidArgumentsERKNSt7__cxx1112basic_stringIcSt11char_traitsIcESaIcEEE
FN:5759,_ZN5Catch21StreamingReporterBaseINS_21TestEventListenerBaseEE22reportInvalidArgumentsERKNSt7__cxx1112basic_stringIcSt11char_traitsIcESaIcEEE
FN:5761,_ZN5Catch21StreamingReporterBaseINS_11XmlReporterEE15testRunStartingERKNS_11TestRunInfoE
FN:5761,_ZN5Catch21StreamingReporterBaseINS_15CompactReporterEE15testRunStartingERKNS_11TestRunInfoE
FN:5761,_ZN5Catch21StreamingReporterBaseINS_15ConsoleReporterEE15testRunStartingERKNS_11TestRunInfoE
FN:5761,_ZN5Catch21StreamingReporterBaseINS_21TestEventListenerBaseEE15testRunStartingERKNS_11TestRunInfoE
FN:5765,_ZN5Catch21StreamingReporterBaseINS_11XmlReporterEE17testGroupStartingERKNS_9GroupInfoE
FN:5765,_ZN5Catch21StreamingReporterBaseINS_15CompactReporterEE17testGroupStartingERKNS_9GroupInfoE
FN:5765,_ZN5Catch21StreamingReporterBaseINS_15ConsoleReporterEE17testGroupStartingERKNS_9GroupInfoE
FN:5765,_ZN5Catch21StreamingReporterBaseINS_21TestEventListenerBaseEE17testGroupStartingERKNS_9GroupInfoE
FN:5769,_ZN5Catch21StreamingReporterBaseINS_11XmlReporterEE16testCaseStartingERKNS_12TestCaseInfoE
FN:5769,_ZN5Catch21StreamingReporterBaseINS_15CompactReporterEE16testCaseStartingERKNS_12TestCaseInfoE
FN:5769,_ZN5Catch21StreamingReporterBaseINS_15ConsoleReporterEE16testCaseStartingERKNS_12TestCaseInfoE
FN:5769,_ZN5Catch21StreamingReporterBaseINS_21TestEventListenerBaseEE16testCaseStartingERKNS_12TestCaseInfoE
FN:5772,_ZN5Catch21StreamingReporterBaseINS_11XmlReporterEE15sectionStartingERKNS_11SectionInfoE
FN:5772,_ZN5Catch21StreamingReporterBaseINS_15CompactReporterEE15sectionStartingERKNS_11SectionInfoE
FN:5772,_ZN5Catch21StreamingReporterBaseINS_15ConsoleReporterEE15sectionStartingERKNS_11SectionInfoE
FN:5772,_ZN5Catch21StreamingReporterBaseINS_21TestEventListenerBaseEE15sectionStartingERKNS_11SectionInfoE
FN:5776,_ZN5Catch21StreamingReporterBaseINS_11XmlReporterEE12sectionEndedERKNS_12SectionStatsE
FN:5776,_ZN5Catch21StreamingReporterBaseINS_15CompactReporterEE12sectionEndedERKNS_12SectionStatsE
FN:5776,_ZN5Catch21StreamingReporterBaseINS_15ConsoleReporterEE12sectionEndedERKNS_12SectionStatsE
FN:5776,_ZN5Catch21StreamingReporterBaseINS_21TestEventListenerBaseEE12sectionEndedERKNS_12SectionStatsE
FN:5779,_ZN5Catch21StreamingReporterBaseINS_11XmlReporterEE13testCaseEndedERKNS_13TestCaseStatsE
FN:5779,_ZN5Catch21StreamingReporterBaseINS_15CompactReporterEE13testCaseEndedERKNS_13TestCaseStatsE
FN:5779,_ZN5Catch21StreamingReporterBaseINS_15ConsoleReporterEE13testCaseEndedERKNS_13TestCaseStatsE
FN:5779,_ZN5Catch21StreamingReporterBaseINS_21TestEventListenerBaseEE13testCaseEndedERKNS_13TestCaseStatsE
FN:5782,_ZN5Catch21StreamingReporterBaseINS_11XmlReporterEE14testGroupEndedERKNS_14TestGroupStatsE
FN:5782,_ZN5Catch21StreamingReporterBaseINS_15CompactReporterEE14testGroupEndedERKNS_14TestGroupStatsE
FN:5782,_ZN5Catch21StreamingReporterBaseINS_15ConsoleReporterEE14testGroupEndedERKNS_14TestGroupStatsE
FN:5782,_ZN5Catch21StreamingReporterBaseINS_21TestEventListenerBaseEE14testGroupEndedERKNS_14TestGroupStatsE
FN:5785,_ZN5Catch21StreamingReporterBaseINS_11XmlReporterEE12testRunEndedERKNS_12TestRunStatsE
FN:5785,_ZN5Catch21StreamingReporterBaseINS_15CompactReporterEE12testRunEndedERKNS_12TestRunStatsE
FN:5785,_ZN5Catch21StreamingReporterBaseINS_15ConsoleReporterEE12testRunEndedERKNS_12TestRunStatsE
FN:5785,_ZN5Catch21StreamingReporterBaseINS_21TestEventListenerBaseEE12testRunEndedERKNS_12TestRunStatsE
FN:5791,_ZN5Catch21StreamingReporterBaseINS_11XmlReporterEE8skipTestERKNS_12TestCaseInfoE
FN:5791,_ZN5Catch21StreamingReporterBaseINS_15CompactReporterEE8skipTestERKNS_12TestCaseInfoE
FN:5791,_ZN5Catch21StreamingReporterBaseINS_15ConsoleReporterEE8skipTestERKNS_12TestCaseInfoE
FN:5791,_ZN5Catch21StreamingReporterBaseINS_21TestEventListenerBaseEE8skipTestERKNS_12TestCaseInfoE
FN:5812,_ZN5Catch22CumulativeReporterBaseINS_13JunitReporterEE4NodeINS_12TestRunStatsENS3_INS_14TestGroupStatsENS3_INS_13TestCaseStatsENS2_11SectionNodeEEEEEED0Ev
FN:5812,_ZN5Catch22CumulativeReporterBaseINS_13JunitReporterEE4NodeINS_12TestRunStatsENS3_INS_14TestGroupStatsENS3_INS_13TestCaseStatsENS2_11SectionNodeEEEEEED2Ev
FN:5812,_ZN5Catch22CumulativeReporterBaseINS_13JunitReporterEE4NodeINS_13TestCaseStatsENS2_11SectionNodeEED0Ev
FN:5812,_ZN5Catch22CumulativeReporterBaseINS_13JunitReporterEE4NodeINS_13TestCaseStatsENS2_11SectionNodeEED2Ev
FN:5812,_ZN5Catch22CumulativeReporterBaseINS_13JunitReporterEE4NodeINS_14TestGroupStatsENS3_INS_13TestCaseStatsENS2_11SectionNodeEEEED0Ev
FN:5812,_ZN5Catch22CumulativeReporterBaseINS_13JunitReporterEE4NodeINS_14TestGroupStatsENS3_INS_13TestCaseStatsENS2_11SectionNodeEEEED2Ev
FN:5819,_ZN5Catch22CumulativeReporterBaseINS_13JunitReporterEE11SectionNodeC2ERKNS_12SectionStatsE
FN:5820,_ZN5Catch22CumulativeReporterBaseINS_13JunitReporterEE11SectionNodeD0Ev
FN:5820,_ZN5Catch22CumulativeReporterBaseINS_13JunitReporterEE11SectionNodeD2Ev
FN:5841,_ZNK5Catch22CumulativeReporterBaseINS_13JunitReporterEE13BySectionInfoclERKSt10shared_ptrINS2_11SectionNodeEE
FN:5855,_ZN5Catch22CumulativeReporterBaseINS_13JunitReporterEEC2ERKNS_14ReporterConfigE
FN:5863,_ZN5Catch22CumulativeReporterBaseINS_13JunitReporterEED0Ev
FN:5863,_ZN5Catch22CumulativeReporterBaseINS_13JunitReporterEED2Ev
FN:5865,_ZNK5Catch22CumulativeReporterBaseINS_13JunitReporterEE14getPreferencesEv
FN:5873,_ZN5Catch22CumulativeReporterBaseINS_13JunitReporterEE15testRunStartingERKNS_11TestRunInfoE
FN:5874,_ZN5Catch22CumulativeReporterBaseINS_13JunitReporterEE17testGroupStartingERKNS_9GroupInfoE
FN:5876,_ZN5Catch22CumulativeReporterBaseINS_13JunitReporterEE16testCaseStartingERKNS_12TestCaseInfoE
FN:5878,_ZN5Catch22CumulativeReporterBaseINS_13JunitReporterEE15sectionStartingERKNS_11SectionInfoE
FN:5903,_ZN5Catch22CumulativeReporterBaseINS_13JunitReporterEE17assertionStartingERKNS_13AssertionInfoE
FN:5905,_ZN5Catch22CumulativeReporterBaseINS_13JunitReporterEE14assertionEndedERKNS_14AssertionStatsE
FN:5917,_ZN5Catch22CumulativeReporterBaseINS_13JunitReporterEE12sectionEndedERKNS_12SectionStatsE
FN:5923,_ZN5Catch22CumulativeReporterBaseINS_13JunitReporterEE13testCaseEndedERKNS_13TestCaseStatsE
FN:5934,_ZN5Catch22CumulativeReporterBaseINS_13JunitReporterEE14testGroupEndedERKNS_14TestGroupStatsE
FN:5939,_ZN5Catch22CumulativeReporterBaseINS_13JunitReporterEE12testRunEndedERKNS_12TestRunStatsE
FN:5947,_ZN5Catch22CumulativeReporterBaseINS_13JunitReporterEE8skipTestERKNS_12TestCaseInfoE
FN:6055,_ZNK5Catch17ReporterRegistrarINS_11XmlReporterEE15ReporterFactory6createERKNS_14ReporterConfigE
FN:6055,_ZNK5Catch17ReporterRegistrarINS_13JunitReporterEE15ReporterFactory6createERKNS_14ReporterConfigE
FN:6055,_ZNK5Catch17ReporterRegistrarINS_15CompactReporterEE15ReporterFactory6createERKNS_14ReporterConfigE
FN:6055,_ZNK5Catch17ReporterRegistrarINS_15ConsoleReporterEE15ReporterFactory6createERKNS_14ReporterConfigE
FN:6059,_ZNK5Catch17ReporterRegistrarINS_11XmlReporterEE15ReporterFactory14getDescriptionB5cxx11Ev
FN:6059,_ZNK5Catch17ReporterRegistrarINS_13JunitReporterEE15ReporterFactory14getDescriptionB5cxx11Ev
FN:6059,_ZNK5Catch17ReporterRegistrarINS_15CompactReporterEE15ReporterFactory14getDescriptionB5cxx11Ev
FN:6059,_ZNK5Catch17ReporterRegistrarINS_15ConsoleReporterEE15ReporterFactory14getDescriptionB5cxx11Ev
FN:6066,_ZN5Catch17ReporterRegistrarINS_11XmlReporterEEC2ERKNSt7__cxx1112basic_stringIcSt11char_traitsIcESaIcEEE
FN:6066,_ZN5Catch17ReporterRegistrarINS_13JunitReporterEEC2ERKNSt7__cxx1112basic_stringIcSt11char_traitsIcESaIcEEE
FN:6066,_ZN5Catch17ReporterRegistrarINS_15CompactReporterEEC2ERKNSt7__cxx1112basic_stringIcSt11char_traitsIcESaIcEEE
FN:6066,_ZN5Catch17ReporterRegistrarINS_15ConsoleReporterEEC2ERKNSt7__cxx1112basic_stringIcSt11char_traitsIcESaIcEEE
FN:6291,_ZN5Catch9XmlWriter14writeAttributeIA12_cEERS0_RKNSt7__cxx1112basic_stringIcSt11char_traitsIcESaIcEEERKT_
FN:6291,_ZN5Catch9XmlWriter14writeAttributeIA1_cEERS0_RKNSt7__cxx1112basic_stringIcSt11char_traitsIcESaIcEEERKT_
FN:6291,_ZN5Catch9XmlWriter14writeAttributeIA31_cEERS0_RKNSt7__cxx1112basic_stringIcSt11char_traitsIcESaIcEEERKT_
FN:6291,_ZN5Catch9XmlWriter14writeAttributeIA4_cEERS0_RKNSt7__cxx1112basic_stringIcSt11char_traitsIcESaIcEEERKT_
FN:6291,_ZN5Catch9XmlWriter14writeAttributeIA5_cEERS0_RKNSt7__cxx1112basic_stringIcSt11char_traitsIcESaIcEEERKT_
FN:6291,_ZN5Catch9XmlWriter14writeAttributeIA8_cEERS0_RKNSt7__cxx1112basic_stringIcSt11char_traitsIcESaIcEEERKT_
FN:6291,_ZN5Catch9XmlWriter14writeAttributeINS_9StringRefEEERS0_RKNSt7__cxx1112basic_stringIcSt11char_traitsIcESaIcEEERKT_
FN:6291,_ZN5Catch9XmlWriter14writeAttributeIPKcEERS0_RKNSt7__cxx1112basic_stringIcSt11char_traitsIcESaIcEEERKT_
FN:6291,_ZN5Catch9XmlWriter14writeAttributeIdEERS0_RKNSt7__cxx1112basic_stringIcSt11char_traitsIcESaIcEEERKT_
FN:6291,_ZN5Catch9XmlWriter14writeAttributeIjEERS0_RKNSt7__cxx1112basic_stringIcSt11char_traitsIcESaIcEEERKT_
FN:6291,_ZN5Catch9XmlWriter14writeAttributeImEERS0_RKNSt7__cxx1112basic_stringIcSt11char_traitsIcESaIcEEERKT_
FN:7483,_ZN5Catch16TestCaseTrackingeqERKNS0_15NameAndLocationES3_
FN:7580,_ZNK5Catch16TestCaseTracking11TrackerBase10hasStartedEv
FN:7878,_ZN5Catch6Detail6ApproxC2Ed
FN:7885,_ZN5Catch6Detail6Approx6customEv
FN:7889,_ZNK5Catch6Detail6ApproxngEv
FN:7895,_ZNK5Catch6Detail6Approx8toStringB5cxx11Ev
FN:7901,_ZNK5Catch6Detail6Approx22equalityComparisonImplEd
FN:7908,_ZN5Catch6Detail6Approx9setMarginEd
FN:7915,_ZN5Catch6Detail6Approx10setEpsilonEd
FN:7925,_ZN5Catch8literalsli2_aEe
FN:7928,_ZN5Catch8literalsli2_aEy
FN:7933,_ZN5Catch11StringMakerINS_6Detail6ApproxEvE7convertB5cxx11ERKS2_
FN:8024,_ZN5Catch21FatalConditionHandler6engageEv
FN:8030,_ZN5Catch21FatalConditionHandler9disengageEv
FN:8196,_ZN5Catch14LazyExpressionC2Eb
FN:8200,_ZN5Catch14LazyExpressionC2ERKS0_
FN:8202,_ZNK5Catch14LazyExpressioncvbEv
FN:8206,_ZN5CatchlsERSoRKNS_14LazyExpressionE
FN:8222,_ZN5Catch16AssertionHandlerC2ERKNS_9StringRefERKNS_14SourceLineInfoES1_NS_17ResultDisposition5FlagsE
FN:8231,_ZN5Catch16AssertionHandler10handleExprERKNS_20ITransientExpressionE
FN:8234,_ZN5Catch16AssertionHandler13handleMessageENS_9ResultWas6OfTypeERKNS_9StringRefE
FN:8238,_ZNK5Catch16AssertionHandler11allowThrowsEv
FN:8242,_ZN5Catch16AssertionHandler8completeEv
FN:8260,_ZN5Catch16AssertionHandler12setCompletedEv
FN:8264,_ZN5Catch16AssertionHandler33handleUnexpectedInflightExceptionEv
FN:8268,_ZN5Catch16AssertionHandler31handleExceptionThrownAsExpectedEv
FN:8271,_ZN5Catch16AssertionHandler34handleExceptionNotThrownAsExpectedEv
FN:8275,_ZN5Catch16AssertionHandler34handleUnexpectedExceptionNotThrownEv
FN:8279,_ZN5Catch16AssertionHandler25handleThrowingCallSkippedEv
FN:8285,_ZN5Catch24handleExceptionMatchExprERNS_16AssertionHandlerERKNSt7__cxx1112basic_stringIcSt11char_traitsIcESaIcEEERKNS_9StringRefE
FN:8294,_ZN5Catch19AssertionResultDataC2ENS_9ResultWas6OfTypeERKNS_14LazyExpressionE
FN:8298,_ZNK5Catch19AssertionResultData21reconstructExpressionB5cxx11Ev
FN:8310,_ZN5Catch15AssertionResultC2ERKNS_13AssertionInfoERKNS_19AssertionResultDataE
FN:8316,_ZNK5Catch15AssertionResult9succeededEv
FN:8321,_ZNK5Catch15AssertionResult4isOkEv
FN:8325,_ZNK5Catch15AssertionResult13getResultTypeEv
FN:8329,_ZNK5Catch15AssertionResult13hasExpressionEv
FN:8333,_ZNK5Catch15AssertionResult10hasMessageEv
FN:8337,_ZNK5Catch15AssertionResult13getExpressionB5cxx11Ev
FN:8350,_ZNK5Catch15AssertionResult20getExpressionInMacroB5cxx11Ev
FN:8364,_ZNK5Catch15AssertionResult21hasExpandedExpressionEv
FN:8368,_ZNK5Catch15AssertionResult21getExpandedExpressionB5cxx11Ev
FN:8375,_ZNK5Catch15AssertionResult10getMessageB5cxx11Ev
FN:8378,_ZNK5Catch15AssertionResult13getSourceInfoEv
FN:8382,_ZNK5Catch15AssertionResult16getTestMacroNameEv
FN:8397,_ZN5Catch24handleExceptionMatchExprERNS_16AssertionHandlerERKNS_8Matchers4Impl11MatcherBaseINSt7__cxx1112basic_stringIcSt11char_traitsIcESaIcEEEEERKNS_9StringRefE
FN:8478,_ZN5Catch5clara8TextFlow12isWhitespaceEc
FN:8482,_ZN5Catch5clara8TextFlow17isBreakableBeforeEc
FN:8486,_ZN5Catch5clara8TextFlow16isBreakableAfterEc
FN:8517,_ZNK5Catch5clara8TextFlow6Column8iterator10isBoundaryEm
FN:8527,_ZN5Catch5clara8TextFlow6Column8iterator10calcLengthEv
FN:8562,_ZNK5Catch5clara8TextFlow6Column8iterator18addIndentAndSuffixERKNSt7__cxx1112basic_stringIcSt11char_traitsIcESaIcEEE
FN:8573,_ZN5Catch5clara8TextFlow6Column8iteratorC2ERKS2_
FN:8581,_ZNK5Catch5clara8TextFlow6Column8iteratordeB5cxx11Ev
FN:8587,_ZN5Catch5clara8TextFlow6Column8iteratorppEv
FN:8621,_ZN5Catch5clara8TextFlow6ColumnC2ERKNSt7__cxx1112basic_stringIcSt11char_traitsIcESaIcEEE
FN:8641,_ZN5Catch5clara8TextFlowlsERSoRKNS1_6ColumnE
FN:8665,_ZN5Catch5clara8TextFlow6SpacerC2Em
FN:8683,_ZN5Catch5clara8TextFlow7Columns8iteratorC2ERKS2_NS3_6EndTagE
FN:8699,_ZN5Catch5clara8TextFlow7Columns8iteratorC2ERKS2_
FN:8714,_ZNK5Catch5clara8TextFlow7Columns8iteratordeB5cxx11Ev
FN:8732,_ZN5Catch5clara8TextFlow7Columns8iteratorppEv
FN:8754,_ZN5Catch5clara8TextFlow7ColumnsplERKNS1_6ColumnE
FN:8760,_ZN5Catch5clara8TextFlowlsERSoRKNS1_7ColumnsE
FN:8780,_ZN5Catch5clara8TextFlow6ColumnplERKS2_
FN:8832,_ZN5Catch5clara6detail4ArgsC2EiPKPKc
FN:8871,_ZN5Catch5clara6detail11TokenStream10loadBufferEv
FN:8905,_ZN5Catch5clara6detail11TokenStreamC2EN9__gnu_cxx17__normal_iteratorIPKNSt7__cxx1112basic_stringIcSt11char_traitsIcESaIcEEESt6vectorISA_SaISA_EEEESG_
FN:8915,_ZNK5Catch5clara6detail11TokenStreamdeEv
FN:8925,_ZN5Catch5clara6detail11TokenStreamppEv
FN:8972,_ZN5Catch5clara6detail15ResultValueBaseINS1_10ParseStateEEaSERKS4_
FN:9001,_ZN5Catch5clara6detail11BasicResultINS1_10ParseStateEEC2INS1_15ParseResultTypeEEERKNS2_IT_EE
FN:9001,_ZN5Catch5clara6detail11BasicResultINS1_10ParseStateEEC2IvEERKNS2_IT_EE
FN:9019,_ZNK5Catch5clara6detail11BasicResultINS1_10ParseStateEE9enforceOkEv
FN:9019,_ZNK5Catch5clara6detail11BasicResultINS1_15ParseResultTypeEE9enforceOkEv
FN:9019,_ZNK5Catch5clara6detail11BasicResultIvE9enforceOkEv
FN:9031,_ZN5Catch5clara6detail11BasicResultINS1_10ParseStateEEC2ENS1_10ResultBase4TypeERKNSt7__cxx1112basic_stringIcSt11char_traitsIcESaIcEEE
FN:9031,_ZN5Catch5clara6detail11BasicResultINS1_15ParseResultTypeEEC2ENS1_10ResultBase4TypeERKNSt7__cxx1112basic_stringIcSt11char_traitsIcESaIcEEE
FN:9031,_ZN5Catch5clara6detail11BasicResultIvEC2ENS1_10ResultBase4TypeERKNSt7__cxx1112basic_stringIcSt11char_traitsIcESaIcEEE
FN:9072,_ZN5Catch5clara6detail11convertIntoIdEENS1_11BasicResultINS1_15ParseResultTypeEEERKNSt7__cxx1112basic_stringIcSt11char_traitsIcESaIcEEERT_
FN:9072,_ZN5Catch5clara6detail11convertIntoIiEENS1_11BasicResultINS1_15ParseResultTypeEEERKNSt7__cxx1112basic_stringIcSt11char_traitsIcESaIcEEERT_
FN:9072,_ZN5Catch5clara6detail11convertIntoIjEENS1_11BasicResultINS1_15ParseResultTypeEEERKNSt7__cxx1112basic_stringIcSt11char_traitsIcESaIcEEERT_
FN:9072,_ZN5Catch5clara6detail11convertIntoIlEENS1_11BasicResultINS1_15ParseResultTypeEEERKNSt7__cxx1112basic_stringIcSt11char_traitsIcESaIcEEERT_
FN:9085,_ZN5Catch5clara6detail11convertIntoERKNSt7__cxx1112basic_stringIcSt11char_traitsIcESaIcEEERb
FN:9117,_ZNK5Catch5clara6detail8BoundRef11isContainerEv
FN:9118,_ZNK5Catch5clara6detail8BoundRef6isFlagEv
FN:9125,_ZNK5Catch5clara6detail16BoundFlagRefBase6isFlagEv
FN:9134,_ZN5Catch5clara6detail13BoundValueRefINSt7__cxx1112basic_stringIcSt11char_traitsIcESaIcEEEE8setValueERKS8_
FN:9134,_ZN5Catch5clara6detail13BoundValueRefIdE8setValueERKNSt7__cxx1112basic_stringIcSt11char_traitsIcESaIcEEE
FN:9134,_ZN5Catch5clara6detail13BoundValueRefIjE8setValueERKNSt7__cxx1112basic_stringIcSt11char_traitsIcESaIcEEE
FN:9134,_ZN5Catch5clara6detail13BoundValueRefIlE8setValueERKNSt7__cxx1112basic_stringIcSt11char_traitsIcESaIcEEE
FN:9145,_ZNK5Catch5clara6detail13BoundValueRefISt6vectorINSt7__cxx1112basic_stringIcSt11char_traitsIcESaIcEEESaIS9_EEE11isContainerEv
FN:9147,_ZN5Catch5clara6detail13BoundValueRefISt6vectorINSt7__cxx1112basic_stringIcSt11char_traitsIcESaIcEEESaIS9_EEE8setValueERKS9_
FN:9161,_ZN5Catch5clara6detail12BoundFlagRef7setFlagEb
FN:9187,_ZN5Catch5clara6detail12invokeLambdaINSt7__cxx1112basic_stringIcSt11char_traitsIcESaIcEEEZNS_21makeCommandLineParserERNS_10ConfigDataEEUlRKS8_E0_EENS1_11BasicResultINS1_15ParseResultTypeEEERKT0_SC_
FN:9187,_ZN5Catch5clara6detail12invokeLambdaINSt7__cxx1112basic_stringIcSt11char_traitsIcESaIcEEEZNS_21makeCommandLineParserERNS_10ConfigDataEEUlRKS8_E1_EENS1_11BasicResultINS1_15ParseResultTypeEEERKT0_SC_
FN:9187,_ZN5Catch5clara6detail12invokeLambdaINSt7__cxx1112basic_stringIcSt11char_traitsIcESaIcEEEZNS_21makeCommandLineParserERNS_10ConfigDataEEUlRKS8_E2_EENS1_11BasicResultINS1_15ParseResultTypeEEERKT0_SC_
FN:9187,_ZN5Catch5clara6detail12invokeLambdaINSt7__cxx1112basic_stringIcSt11char_traitsIcESaIcEEEZNS_21makeCommandLineParserERNS_10ConfigDataEEUlRKS8_E3_EENS1_11BasicResultINS1_15ParseResultTypeEEERKT0_SC_
FN:9187,_ZN5Catch5clara6detail12invokeLambdaINSt7__cxx1112basic_stringIcSt11char_traitsIcESaIcEEEZNS_21makeCommandLineParserERNS_10ConfigDataEEUlRKS8_E4_EENS1_11BasicResultINS1_15ParseResultTypeEEERKT0_SC_
FN:9187,_ZN5Catch5clara6detail12invokeLambdaINSt7__cxx1112basic_stringIcSt11char_traitsIcESaIcEEEZNS_21makeCommandLineParserERNS_10ConfigDataEEUlRKS8_E5_EENS1_11BasicResultINS1_15ParseResultTypeEEERKT0_SC_
FN:9187,_ZN5Catch5clara6detail12invokeLambdaINSt7__cxx1112basic_stringIcSt11char_traitsIcESaIcEEEZNS_21makeCommandLineParserERNS_10ConfigDataEEUlRKS8_E6_EENS1_11BasicResultINS1_15ParseResultTypeEEERKT0_SC_
FN:9187,_ZN5Catch5clara6detail12invokeLambdaINSt7__cxx1112basic_stringIcSt11char_traitsIcESaIcEEEZNS_21makeCommandLineParserERNS_10ConfigDataEEUlRKS8_E_EENS1_11BasicResultINS1_15ParseResultTypeEEERKT0_SC_
FN:9187,_ZN5Catch5clara6detail12invokeLambdaIbZNS_21makeCommandLineParserERNS_10ConfigDataEEUlbE9_EENS1_11BasicResultINS1_15ParseResultTypeEEERKT0_RKNSt7__cxx1112basic_stringIcSt11char_traitsIcESaIcEEE
FN:9187,_ZN5Catch5clara6detail12invokeLambdaIiZNS_21makeCommandLineParserERNS_10ConfigDataEEUliE8_EENS1_11BasicResultINS1_15ParseResultTypeEEERKT0_RKNSt7__cxx1112basic_stringIcSt11char_traitsIcESaIcEEE
FN:9202,_ZN5Catch5clara6detail11BoundLambdaIZNS_21makeCommandLineParserERNS_10ConfigDataEEUlRKNSt7__cxx1112basic_stringIcSt11char_traitsIcESaIcEEEE0_E8setValueESC_
FN:9202,_ZN5Catch5clara6detail11BoundLambdaIZNS_21makeCommandLineParserERNS_10ConfigDataEEUlRKNSt7__cxx1112basic_stringIcSt11char_traitsIcESaIcEEEE1_E8setValueESC_
FN:9202,_ZN5Catch5clara6detail11BoundLambdaIZNS_21makeCommandLineParserERNS_10ConfigDataEEUlRKNSt7__cxx1112basic_stringIcSt11char_traitsIcESaIcEEEE2_E8setValueESC_
FN:9202,_ZN5Catch5clara6detail11BoundLambdaIZNS_21makeCommandLineParserERNS_10ConfigDataEEUlRKNSt7__cxx1112basic_stringIcSt11char_traitsIcESaIcEEEE3_E8setValueESC_
FN:9202,_ZN5Catch5clara6detail11BoundLambdaIZNS_21makeCommandLineParserERNS_10ConfigDataEEUlRKNSt7__cxx1112basic_stringIcSt11char_traitsIcESaIcEEEE4_E8setValueESC_
FN:9202,_ZN5Catch5clara6detail11BoundLambdaIZNS_21makeCommandLineParserERNS_10ConfigDataEEUlRKNSt7__cxx1112basic_stringIcSt11char_traitsIcESaIcEEEE5_E8setValueESC_
FN:9202,_ZN5Catch5clara6detail11BoundLambdaIZNS_21makeCommandLineParserERNS_10ConfigDataEEUlRKNSt7__cxx1112basic_stringIcSt11char_traitsIcESaIcEEEE6_E8setValueESC_
FN:9202,_ZN5Catch5clara6detail11BoundLambdaIZNS_21makeCommandLineParserERNS_10ConfigDataEEUlRKNSt7__cxx1112basic_stringIcSt11char_traitsIcESaIcEEEE_E8setValueESC_
FN:9202,_ZN5Catch5clara6detail11BoundLambdaIZNS_21makeCommandLineParserERNS_10ConfigDataEEUlbE9_E8setValueERKNSt7__cxx1112basic_stringIcSt11char_traitsIcESaIcEEE
FN:9202,_ZN5Catch5clara6detail11BoundLambdaIZNS_21makeCommandLineParserERNS_10ConfigDataEEUliE8_E8setValueERKNSt7__cxx1112basic_stringIcSt11char_traitsIcESaIcEEE
FN:9216,_ZN5Catch5clara6detail15BoundFlagLambdaIZNS1_4HelpC4ERbEUlbE_E7setFlagEb
FN:9216,_ZN5Catch5clara6detail15BoundFlagLambdaIZNS_21makeCommandLineParserERNS_10ConfigDataEEUlbE7_E7setFlagEb
FN:9228,_ZNK5Catch5clara6detail10ParserBase8validateEv
FN:9230,_ZNK5Catch5clara6detail10ParserBase11cardinalityEv
FN:9232,_ZNK5Catch5clara6detail10ParserBase5parseERKNS1_4ArgsE
FN:9256,_ZN5Catch5clara6detail13ParserRefImplINS1_3OptEEC2ERKSt10shared_ptrINS1_8BoundRefEE
FN:9260,_ZN5Catch5clara6detail13ParserRefImplINS1_3ArgEEC2ISt6vectorINSt7__cxx1112basic_stringIcSt11char_traitsIcESaIcEEESaISC_EEEERT_RKSC_
FN:9260,_ZN5Catch5clara6detail13ParserRefImplINS1_3OptEEC2INSt7__cxx1112basic_stringIcSt11char_traitsIcESaIcEEEEERT_RKSB_
FN:9260,_ZN5Catch5clara6detail13ParserRefImplINS1_3OptEEC2ISt6vectorINSt7__cxx1112basic_stringIcSt11char_traitsIcESaIcEEESaISC_EEEERT_RKSC_
FN:9260,_ZN5Catch5clara6detail13ParserRefImplINS1_3OptEEC2IdEERT_RKNSt7__cxx1112basic_stringIcSt11char_traitsIcESaIcEEE
FN:9260,_ZN5Catch5clara6detail13ParserRefImplINS1_3OptEEC2IjEERT_RKNSt7__cxx1112basic_stringIcSt11char_traitsIcESaIcEEE
FN:9260,_ZN5Catch5clara6detail13ParserRefImplINS1_3OptEEC2IlEERT_RKNSt7__cxx1112basic_stringIcSt11char_traitsIcESaIcEEE
FN:9266,_ZN5Catch5clara6detail13ParserRefImplINS1_3OptEEC2IZNS_21makeCommandLineParserERNS_10ConfigDataEEUlRKNSt7__cxx1112basic_stringIcSt11char_traitsIcESaIcEEEE0_EERKT_SF_
FN:9266,_ZN5Catch5clara6detail13ParserRefImplINS1_3OptEEC2IZNS_21makeCommandLineParserERNS_10ConfigDataEEUlRKNSt7__cxx1112basic_stringIcSt11char_traitsIcESaIcEEEE1_EERKT_SF_
FN:9266,_ZN5Catch5clara6detail13ParserRefImplINS1_3OptEEC2IZNS_21makeCommandLineParserERNS_10ConfigDataEEUlRKNSt7__cxx1112basic_stringIcSt11char_traitsIcESaIcEEEE2_EERKT_SF_
FN:9266,_ZN5Catch5clara6detail13ParserRefImplINS1_3OptEEC2IZNS_21makeCommandLineParserERNS_10ConfigDataEEUlRKNSt7__cxx1112basic_stringIcSt11char_traitsIcESaIcEEEE3_EERKT_SF_
FN:9266,_ZN5Catch5clara6detail13ParserRefImplINS1_3OptEEC2IZNS_21makeCommandLineParserERNS_10ConfigDataEEUlRKNSt7__cxx1112basic_stringIcSt11char_traitsIcESaIcEEEE4_EERKT_SF_
FN:9266,_ZN5Catch5clara6detail13ParserRefImplINS1_3OptEEC2IZNS_21makeCommandLineParserERNS_10ConfigDataEEUlRKNSt7__cxx1112basic_stringIcSt11char_traitsIcESaIcEEEE5_EERKT_SF_
FN:9266,_ZN5Catch5clara6detail13ParserRefImplINS1_3OptEEC2IZNS_21makeCommandLineParserERNS_10ConfigDataEEUlRKNSt7__cxx1112basic_stringIcSt11char_traitsIcESaIcEEEE6_EERKT_SF_
FN:9266,_ZN5Catch5clara6detail13ParserRefImplINS1_3OptEEC2IZNS_21makeCommandLineParserERNS_10ConfigDataEEUlRKNSt7__cxx1112basic_stringIcSt11char_traitsIcESaIcEEEE_EERKT_SF_
FN:9266,_ZN5Catch5clara6detail13ParserRefImplINS1_3OptEEC2IZNS_21makeCommandLineParserERNS_10ConfigDataEEUlbE9_EERKT_RKNSt7__cxx1112basic_stringIcSt11char_traitsIcESaIcEEE
FN:9266,_ZN5Catch5clara6detail13ParserRefImplINS1_3OptEEC2IZNS_21makeCommandLineParserERNS_10ConfigDataEEUliE8_EERKT_RKNSt7__cxx1112basic_stringIcSt11char_traitsIcESaIcEEE
FN:9290,_ZNK5Catch5clara6detail13ParserRefImplINS1_3ArgEE11cardinalityEv
FN:9290,_ZNK5Catch5clara6detail13ParserRefImplINS1_3OptEE11cardinalityEv
FN:9312,_ZN5Catch5clara6detail7ExeNameC2ERNSt7__cxx1112basic_stringIcSt11char_traitsIcESaIcEEE
FN:9322,_ZNK5Catch5clara6detail7ExeName5parseERKNSt7__cxx1112basic_stringIcSt11char_traitsIcESaIcEEERKNS1_11TokenStreamE
FN:9327,_ZN5Catch5clara6detail7ExeName3setERKNSt7__cxx1112basic_stringIcSt11char_traitsIcESaIcEEE
FN:9346,_ZNK5Catch5clara6detail3Arg5parseERKNSt7__cxx1112basic_stringIcSt11char_traitsIcESaIcEEERKNS1_11TokenStreamE
FN:9382,_ZN5Catch5clara6detail3OptC2IZNS1_4HelpC4ERbEUlbE_EERKT_
FN:9382,_ZN5Catch5clara6detail3OptC2IZNS_21makeCommandLineParserERNS_10ConfigDataEEUlbE7_EERKT_
FN:9384,_ZN5Catch5clara6detail3OptC2ERb
FN:9397,_ZNK5Catch5clara6detail3Opt14getHelpColumnsEv
FN:9412,_ZNK5Catch5clara6detail3Opt7isMatchERKNSt7__cxx1112basic_stringIcSt11char_traitsIcESaIcEEE
FN:9423,_ZNK5Catch5clara6detail3Opt5parseERKNSt7__cxx1112basic_stringIcSt11char_traitsIcESaIcEEERKNS1_11TokenStreamE
FN:9459,_ZNK5Catch5clara6detail3Opt8validateEv
FN:9478,_ZN5Catch5clara6detail4HelpC2ERb
FN:9519,_ZNK5Catch5clara6detail6ParserorINS1_3ArgEEES2_RKT_
FN:9519,_ZNK5Catch5clara6detail6ParserorINS1_3OptEEES2_RKT_
FN:9519,_ZNK5Catch5clara6detail6ParserorINS1_4HelpEEES2_RKT_
FN:9519,_ZNK5Catch5clara6detail6ParserorINS1_7ExeNameEEES2_RKT_
FN:9529,_ZNK5Catch5clara6detail6Parser14getHelpColumnsEv
FN:9538,_ZNK5Catch5clara6detail6Parser13writeToStreamERSo
FN:9584,_ZNK5Catch5clara6detail6Parser8validateEv
FN:9600,_ZNK5Catch5clara6detail6Parser5parseERKNSt7__cxx1112basic_stringIcSt11char_traitsIcESaIcEEERKNS1_11TokenStreamE
FN:9649,_ZNK5Catch5clara6detail20ComposableParserImplINS1_7ExeNameEEorINS1_4HelpEEENS1_6ParserERKT_
FN:9704,_ZN5Catch21makeCommandLineParserERNS_10ConfigDataE
FN:9708,_ZZN5Catch21makeCommandLineParserERNS_10ConfigDataEENKUlRKNSt7__cxx1112basic_stringIcSt11char_traitsIcESaIcEEEE_clES9_
FN:9709,_ZZZN5Catch21makeCommandLineParserERNS_10ConfigDataEENKUlRKNSt7__cxx1112basic_stringIcSt11char_traitsIcESaIcEEEE_clES9_ENKUlvE_clEv
FN:9724,_ZZN5Catch21makeCommandLineParserERNS_10ConfigDataEENKUlRKNSt7__cxx1112basic_stringIcSt11char_traitsIcESaIcEEEE0_clES9_
FN:9745,_ZZN5Catch21makeCommandLineParserERNS_10ConfigDataEENKUlRKNSt7__cxx1112basic_stringIcSt11char_traitsIcESaIcEEEE1_clES9_
FN:9756,_ZZN5Catch21makeCommandLineParserERNS_10ConfigDataEENKUlRKNSt7__cxx1112basic_stringIcSt11char_traitsIcESaIcEEEE2_clES9_
FN:9762,_ZZN5Catch21makeCommandLineParserERNS_10ConfigDataEENKUlRKNSt7__cxx1112basic_stringIcSt11char_traitsIcESaIcEEEE3_clES9_
FN:9775,_ZZN5Catch21makeCommandLineParserERNS_10ConfigDataEENKUlRKNSt7__cxx1112basic_stringIcSt11char_traitsIcESaIcEEEE4_clES9_
FN:9789,_ZZN5Catch21makeCommandLineParserERNS_10ConfigDataEENKUlRKNSt7__cxx1112basic_stringIcSt11char_traitsIcESaIcEEEE5_clES9_
FN:9801,_ZZN5Catch21makeCommandLineParserERNS_10ConfigDataEENKUlRKNSt7__cxx1112basic_stringIcSt11char_traitsIcESaIcEEEE6_clES9_
FN:9922,_ZNK5Catch14SourceLineInfoeqERKS0_
FN:9925,_ZNK5Catch14SourceLineInfoltERKS0_
FN:9931,_ZN5CatchlsERSoRKNS_14SourceLineInfoE
FN:9940,_ZNK5Catch13StreamEndStoppsB5cxx11Ev
FN:9944,_ZN5Catch11NonCopyableC2Ev
FN:9945,_ZN5Catch11NonCopyableD0Ev
FN:9945,_ZN5Catch11NonCopyableD2Ev
FN:9953,_ZN5Catch6ConfigC2ERKNS_10ConfigDataE
FN:9978,_ZNK5Catch6Config11getFilenameB5cxx11Ev
FN:9982,_ZNK5Catch6Config9listTestsEv
FN:9983,_ZNK5Catch6Config17listTestNamesOnlyEv
FN:9984,_ZNK5Catch6Config8listTagsEv
FN:9985,_ZNK5Catch6Config13listReportersEv
FN:9987,_ZNK5Catch6Config14getProcessNameB5cxx11Ev
FN:9988,_ZNK5Catch6Config15getReporterNameB5cxx11Ev
FN:9990,_ZNK5Catch6Config14getTestsOrTagsB5cxx11Ev
FN:9991,_ZNK5Catch6Config16getSectionsToRunB5cxx11Ev
FN:9993,_ZNK5Catch6Config8testSpecEv
FN:9994,_ZNK5Catch6Config14hasTestFiltersEv
FN:9996,_ZNK5Catch6Config8showHelpEv
FN:9999,_ZNK5Catch6Config11allowThrowsEv
FN:10000,_ZNK5Catch6Config6streamEv
FN:10001,_ZNK5Catch6Config4nameB5cxx11Ev
FN:10002,_ZNK5Catch6Config24includeSuccessfulResultsEv
FN:10003,_ZNK5Catch6Config26warnAboutMissingAssertionsEv
FN:10004,_ZNK5Catch6Config16warnAboutNoTestsEv
FN:10005,_ZNK5Catch6Config13showDurationsEv
FN:10006,_ZNK5Catch6Config11minDurationEv
FN:10007,_ZNK5Catch6Config8runOrderEv
FN:10008,_ZNK5Catch6Config7rngSeedEv
FN:10009,_ZNK5Catch6Config9useColourEv
FN:10010,_ZNK5Catch6Config16shouldDebugBreakEv
FN:10011,_ZNK5Catch6Config10abortAfterEv
FN:10012,_ZNK5Catch6Config14showInvisiblesEv
FN:10013,_ZNK5Catch6Config9verbosityEv
FN:10015,_ZNK5Catch6Config19benchmarkNoAnalysisEv
FN:10016,_ZNK5Catch6Config16benchmarkSamplesEv
FN:10017,_ZNK5Catch6Config27benchmarkConfidenceIntervalEv
FN:10018,_ZNK5Catch6Config18benchmarkResamplesEv
FN:10019,_ZNK5Catch6Config19benchmarkWarmupTimeEv
FN:10021,_ZN5Catch6Config10openStreamEv
FN:10090,_ZN5Catch12_GLOBAL__N_112NoColourImpl3useENS_6Colour4CodeE
FN:10092,_ZN5Catch12_GLOBAL__N_112NoColourImpl8instanceEv
FN:10187,_ZN5Catch12_GLOBAL__N_115PosixColourImpl3useENS_6Colour4CodeE
FN:10208,_ZN5Catch12_GLOBAL__N_115PosixColourImpl8instanceEv
FN:10214,_ZN5Catch12_GLOBAL__N_115PosixColourImpl9setColourEPKc
FN:10232,_ZN5Catch12_GLOBAL__N_122platformColourInstanceEv
FN:10262,_ZN5Catch6ColourC2ENS0_4CodeE
FN:10263,_ZN5Catch6ColourC2EOS0_
FN:10267,_ZN5Catch6ColouraSEOS0_
FN:10273,_ZN5Catch6ColourD2Ev
FN:10275,_ZN5Catch6Colour3useENS0_4CodeE
FN:10286,_ZN5CatchlsERSoRKNS_6ColourE
FN:10304,_ZN5Catch7Context16getResultCaptureEv
FN:10307,_ZN5Catch7Context9getRunnerEv
FN:10311,_ZNK5Catch7Context9getConfigEv
FN:10318,_ZN5Catch7Context16setResultCaptureEPNS_14IResultCaptureE
FN:10321,_ZN5Catch7Context9setRunnerEPNS_7IRunnerE
FN:10324,_ZN5Catch7Context9setConfigERKSt10shared_ptrIKNS_7IConfigEE
FN:10338,_ZN5Catch15IMutableContext13createContextEv
FN:10343,_ZN5Catch14cleanUpContextEv
FN:10347,_ZN5Catch8IContextD0Ev
FN:10347,_ZN5Catch8IContextD2Ev
FN:10348,_ZN5Catch15IMutableContextD0Ev
FN:10348,_ZN5Catch15IMutableContextD2Ev
FN:10349,_ZN5Catch7ContextD0Ev
FN:10349,_ZN5Catch7ContextD2Ev
FN:10351,_ZN5Catch3rngEv
FN:10389,_ZN5Catch19writeToDebugConsoleERKNSt7__cxx1112basic_stringIcSt11char_traitsIcESaIcEEE
FN:10470,_ZN5Catch16isDebuggerActiveEv
FN:10512,_ZN5Catch20ITransientExpressionD0Ev
FN:10512,_ZN5Catch20ITransientExpressionD2Ev
FN:10514,_ZN5Catch29formatReconstructedExpressionERSoRKNSt7__cxx1112basic_stringIcSt11char_traitsIcESaIcEEENS_9StringRefES8_
FN:10539,_ZN5Catch17throw_logic_errorERKNSt7__cxx1112basic_stringIcSt11char_traitsIcESaIcEEE
FN:10544,_ZN5Catch18throw_domain_errorERKNSt7__cxx1112basic_stringIcSt11char_traitsIcESaIcEEE
FN:10549,_ZN5Catch19throw_runtime_errorERKNSt7__cxx1112basic_stringIcSt11char_traitsIcESaIcEEE
FN:10587,_ZN5Catch26IMutableEnumValuesRegistryD0Ev
FN:10587,_ZN5Catch26IMutableEnumValuesRegistryD2Ev
FN:10594,_ZN5Catch6Detail12_GLOBAL__N_119extractInstanceNameENS_9StringRefE
FN:10604,_ZN5Catch6Detail10parseEnumsENS_9StringRefE
FN:10614,_ZN5Catch6Detail8EnumInfoD2Ev
FN:10616,_ZNK5Catch6Detail8EnumInfo6lookupEi
FN:10624,_ZN5Catch6Detail12makeEnumInfoENS_9StringRefES1_RKSt6vectorIiSaIiEE
FN:10638,_ZN5Catch6Detail18EnumValuesRegistry12registerEnumENS_9StringRefES2_RKSt6vectorIiSaIiEE
FN:10652,_ZN5Catch10ErrnoGuardC2Ev
FN:10653,_ZN5Catch10ErrnoGuardD2Ev
FN:10685,_ZN5Catch27ExceptionTranslatorRegistryD0Ev
FN:10685,_ZN5Catch27ExceptionTranslatorRegistryD2Ev
FN:10688,_ZN5Catch27ExceptionTranslatorRegistry18registerTranslatorEPKNS_20IExceptionTranslatorE
FN:10693,_ZNK5Catch27ExceptionTranslatorRegistry24translateActiveExceptionB5cxx11Ev
FN:10735,_ZNK5Catch27ExceptionTranslatorRegistry14tryTranslatorsB5cxx11Ev
FN:10782,_ZN12_GLOBAL__N_111reportFatalEPKc
FN:10895,_ZN5CatchL29restorePreviousSignalHandlersEv
FN:10907,_ZN5CatchL12handleSignalEi
FN:10923,_ZN5Catch21FatalConditionHandlerC2Ev
FN:10931,_ZN5Catch21FatalConditionHandlerD2Ev
FN:10938,_ZN5Catch21FatalConditionHandler15engage_platformEv
FN:10957,_ZN5Catch21FatalConditionHandler18disengage_platformEv
FN:10972,_ZN5Catch17IGeneratorTrackerD0Ev
FN:10972,_ZN5Catch17IGeneratorTrackerD2Ev
FN:10974,_ZNK5Catch18GeneratorException4whatEv
FN:10980,_ZN5Catch10Generators20GeneratorUntypedBaseD0Ev
FN:10980,_ZN5Catch10Generators20GeneratorUntypedBaseD2Ev
FN:10982,_ZN5Catch10Generators23acquireGeneratorTrackerENS_9StringRefERKNS_14SourceLineInfoE
FN:10992,_ZN5Catch14IResultCaptureD0Ev
FN:10992,_ZN5Catch14IResultCaptureD2Ev
FN:10998,_ZN5Catch7IConfigD0Ev
FN:10998,_ZN5Catch7IConfigD2Ev
FN:11004,_ZN5Catch20IExceptionTranslatorD0Ev
FN:11004,_ZN5Catch20IExceptionTranslatorD2Ev
FN:11005,_ZN5Catch28IExceptionTranslatorRegistryD0Ev
FN:11005,_ZN5Catch28IExceptionTranslatorRegistryD2Ev
FN:11011,_ZN5Catch12IRegistryHubD0Ev
FN:11011,_ZN5Catch12IRegistryHubD2Ev
FN:11012,_ZN5Catch19IMutableRegistryHubD0Ev
FN:11012,_ZN5Catch19IMutableRegistryHubD2Ev
FN:11073,_ZN5Catch14ReporterConfigC2ERKSt10shared_ptrIKNS_7IConfigEE
FN:11076,_ZN5Catch14ReporterConfigC2ERKSt10shared_ptrIKNS_7IConfigEERSo
FN:11079,_ZNK5Catch14ReporterConfig6streamEv
FN:11080,_ZNK5Catch14ReporterConfig10fullConfigEv
FN:11082,_ZN5Catch11TestRunInfoC2ERKNSt7__cxx1112basic_stringIcSt11char_traitsIcESaIcEEE
FN:11084,_ZN5Catch9GroupInfoC2ERKNSt7__cxx1112basic_stringIcSt11char_traitsIcESaIcEEEmm
FN:11092,_ZN5Catch14AssertionStatsC2ERKNS_15AssertionResultERKSt6vectorINS_11MessageInfoESaIS5_EERKNS_6TotalsE
FN:11112,_ZN5Catch14AssertionStatsD0Ev
FN:11112,_ZN5Catch14AssertionStatsD2Ev
FN:11114,_ZN5Catch12SectionStatsC2ERKNS_11SectionInfoERKNS_6CountsEdb
FN:11124,_ZN5Catch12SectionStatsD0Ev
FN:11124,_ZN5Catch12SectionStatsD2Ev
FN:11126,_ZN5Catch13TestCaseStatsC2ERKNS_12TestCaseInfoERKNS_6TotalsERKNSt7__cxx1112basic_stringIcSt11char_traitsIcESaIcEEESE_b
FN:11138,_ZN5Catch13TestCaseStatsD0Ev
FN:11138,_ZN5Catch13TestCaseStatsD2Ev
FN:11140,_ZN5Catch14TestGroupStatsC2ERKNS_9GroupInfoERKNS_6TotalsEb
FN:11148,_ZN5Catch14TestGroupStatsC2ERKNS_9GroupInfoE
FN:11153,_ZN5Catch14TestGroupStatsD0Ev
FN:11153,_ZN5Catch14TestGroupStatsD2Ev
FN:11155,_ZN5Catch12TestRunStatsC2ERKNS_11TestRunInfoERKNS_6TotalsEb
FN:11163,_ZN5Catch12TestRunStatsD0Ev
FN:11163,_ZN5Catch12TestRunStatsD2Ev
FN:11165,_ZN5Catch18IStreamingReporter21fatalErrorEncounteredENS_9StringRefE
FN:11166,_ZNK5Catch18IStreamingReporter7isMultiEv
FN:11168,_ZN5Catch16IReporterFactoryD0Ev
FN:11168,_ZN5Catch16IReporterFactoryD2Ev
FN:11169,_ZN5Catch17IReporterRegistryD0Ev
FN:11169,_ZN5Catch17IReporterRegistryD2Ev
FN:11176,_ZN5Catch7IRunnerD0Ev
FN:11176,_ZN5Catch7IRunnerD2Ev
FN:11182,_ZN5Catch12ITestInvokerD0Ev
FN:11182,_ZN5Catch12ITestInvokerD2Ev
FN:11183,_ZN5Catch17ITestCaseRegistryD0Ev
FN:11183,_ZN5Catch17ITestCaseRegistryD2Ev
FN:11207,_ZN5Catch12LeakDetectorC2Ev
FN:11211,_ZN5Catch12LeakDetectorD2Ev
FN:11257,_ZN5Catch9listTestsERKNS_6ConfigE
FN:11291,_ZN5Catch18listTestsNamesOnlyERKNS_6ConfigE
FN:11308,_ZN5Catch7TagInfo3addERKNSt7__cxx1112basic_stringIcSt11char_traitsIcESaIcEEE
FN:11313,_ZNK5Catch7TagInfo3allB5cxx11Ev
FN:11329,_ZN5Catch8listTagsERKNS_6ConfigE
FN:11364,_ZN5Catch13listReportersEv
FN:11386,_ZN5Catch4listERKSt10shared_ptrINS_6ConfigEE
FN:11408,_ZNK5Catch8Matchers4Impl18MatcherUntypedBase8toStringB5cxx11Ev
FN:11414,_ZN5Catch8Matchers4Impl18MatcherUntypedBaseD0Ev
FN:11414,_ZN5Catch8Matchers4Impl18MatcherUntypedBaseD2Ev
FN:11430,_ZNK5Catch8Matchers9Exception23ExceptionMessageMatcher5matchERKSt9exception
FN:11434,_ZNK5Catch8Matchers9Exception23ExceptionMessageMatcher8describeB5cxx11Ev
FN:11439,_ZN5Catch8Matchers7MessageERKNSt7__cxx1112basic_stringIcSt11char_traitsIcESaIcEEE
FN:11554,_ZN5Catch12_GLOBAL__N_15writeIdEEvRSoT_
FN:11554,_ZN5Catch12_GLOBAL__N_15writeIfEEvRSoT_
FN:11570,_ZN5Catch8Matchers8Floating16WithinAbsMatcherC2Edd
FN:11578,_ZNK5Catch8Matchers8Floating16WithinAbsMatcher5matchERKd
FN:11582,_ZNK5Catch8Matchers8Floating16WithinAbsMatcher8describeB5cxx11Ev
FN:11586,_ZN5Catch8Matchers8Floating17WithinUlpsMatcherC2EdmNS1_17FloatingPointKindE
FN:11599,_ZNK5Catch8Matchers8Floating17WithinUlpsMatcher5matchERKd
FN:11614,_ZNK5Catch8Matchers8Floating17WithinUlpsMatcher8describeB5cxx11Ev
FN:11642,_ZN5Catch8Matchers8Floating16WithinRelMatcherC2Edd
FN:11649,_ZNK5Catch8Matchers8Floating16WithinRelMatcher5matchERKd
FN:11655,_ZNK5Catch8Matchers8Floating16WithinRelMatcher8describeB5cxx11Ev
FN:11663,_ZN5Catch8Matchers9WithinULPEdm
FN:11667,_ZN5Catch8Matchers9WithinULPEfm
FN:11671,_ZN5Catch8Matchers9WithinAbsEdd
FN:11675,_ZN5Catch8Matchers9WithinRelEdd
FN:11679,_ZN5Catch8Matchers9WithinRelEd
FN:11683,_ZN5Catch8Matchers9WithinRelEff
FN:11687,_ZN5Catch8Matchers9WithinRelEf
FN:11696,_ZN5Catch8Matchers7Generic6Detail19finalizeDescriptionERKNSt7__cxx1112basic_stringIcSt11char_traitsIcESaIcEEE
FN:11713,_ZN5Catch8Matchers9StdString11CasedStringC2ERKNSt7__cxx1112basic_stringIcSt11char_traitsIcESaIcEEENS_13CaseSensitive6ChoiceE
FN:11717,_ZNK5Catch8Matchers9StdString11CasedString12adjustStringERKNSt7__cxx1112basic_stringIcSt11char_traitsIcESaIcEEE
FN:11722,_ZNK5Catch8Matchers9StdString11CasedString21caseSensitivitySuffixB5cxx11Ev
FN:11728,_ZN5Catch8Matchers9StdString17StringMatcherBaseC2ERKNSt7__cxx1112basic_stringIcSt11char_traitsIcESaIcEEERKNS1_11CasedStringE
FN:11733,_ZNK5Catch8Matchers9StdString17StringMatcherBase8describeB5cxx11Ev
FN:11745,_ZN5Catch8Matchers9StdString13EqualsMatcherC2ERKNS1_11CasedStringE
FN:11747,_ZNK5Catch8Matchers9StdString13EqualsMatcher5matchERKNSt7__cxx1112basic_stringIcSt11char_traitsIcESaIcEEE
FN:11751,_ZN5Catch8Matchers9StdString15ContainsMatcherC2ERKNS1_11CasedStringE
FN:11753,_ZNK5Catch8Matchers9StdString15ContainsMatcher5matchERKNSt7__cxx1112basic_stringIcSt11char_traitsIcESaIcEEE
FN:11757,_ZN5Catch8Matchers9StdString17StartsWithMatcherC2ERKNS1_11CasedStringE
FN:11759,_ZNK5Catch8Matchers9StdString17StartsWithMatcher5matchERKNSt7__cxx1112basic_stringIcSt11char_traitsIcESaIcEEE
FN:11763,_ZN5Catch8Matchers9StdString15EndsWithMatcherC2ERKNS1_11CasedStringE
FN:11765,_ZNK5Catch8Matchers9StdString15EndsWithMatcher5matchERKNSt7__cxx1112basic_stringIcSt11char_traitsIcESaIcEEE
FN:11769,_ZN5Catch8Matchers9StdString12RegexMatcherC2ENSt7__cxx1112basic_stringIcSt11char_traitsIcESaIcEEENS_13CaseSensitive6ChoiceE
FN:11771,_ZNK5Catch8Matchers9StdString12RegexMatcher5matchERKNSt7__cxx1112basic_stringIcSt11char_traitsIcESaIcEEE
FN:11780,_ZNK5Catch8Matchers9StdString12RegexMatcher8describeB5cxx11Ev
FN:11786,_ZN5Catch8Matchers6EqualsERKNSt7__cxx1112basic_stringIcSt11char_traitsIcESaIcEEENS_13CaseSensitive6ChoiceE
FN:11789,_ZN5Catch8Matchers8ContainsERKNSt7__cxx1112basic_stringIcSt11char_traitsIcESaIcEEENS_13CaseSensitive6ChoiceE
FN:11792,_ZN5Catch8Matchers8EndsWithERKNSt7__cxx1112basic_stringIcSt11char_traitsIcESaIcEEENS_13CaseSensitive6ChoiceE
FN:11795,_ZN5Catch8Matchers10StartsWithERKNSt7__cxx1112basic_stringIcSt11char_traitsIcESaIcEEENS_13CaseSensitive6ChoiceE
FN:11799,_ZN5Catch8Matchers7MatchesERKNSt7__cxx1112basic_stringIcSt11char_traitsIcESaIcEEENS_13CaseSensitive6ChoiceE
FN:11820,_ZN5Catch11MessageInfoC2ERKNS_9StringRefERKNS_14SourceLineInfoENS_9ResultWas6OfTypeE
FN:11829,_ZNK5Catch11MessageInfoeqERKS0_
FN:11833,_ZNK5Catch11MessageInfoltERKS0_
FN:11842,_ZN5Catch14MessageBuilderC2ERKNS_9StringRefERKNS_14SourceLineInfoENS_9ResultWas6OfTypeE
FN:11849,_ZN5Catch13ScopedMessageC2ERKNS_14MessageBuilderE
FN:11856,_ZN5Catch13ScopedMessageC2EOS0_
FN:11862,_ZN5Catch13ScopedMessageD2Ev
FN:11868,_ZN5Catch8CapturerC2ENS_9StringRefERKNS_14SourceLineInfoENS_9ResultWas6OfTypeES1_
FN:11869,_ZZN5Catch8CapturerC4ENS_9StringRefERKNS_14SourceLineInfoENS_9ResultWas6OfTypeES1_ENKUlmmE_clEmm
FN:11878,_ZZN5Catch8CapturerC4ENS_9StringRefERKNS_14SourceLineInfoENS_9ResultWas6OfTypeES1_ENKUlmcE0_clEmc
FN:11925,_ZN5Catch8CapturerD2Ev
FN:11933,_ZN5Catch8Capturer12captureValueEmRKNSt7__cxx1112basic_stringIcSt11char_traitsIcESaIcEEE
FN:12070,_ZN5Catch16RedirectedStreamC2ERSoS1_
FN:12078,_ZN5Catch16RedirectedStreamD2Ev
FN:12082,_ZN5Catch16RedirectedStdOutC2Ev
FN:12083,_ZNK5Catch16RedirectedStdOut3strB5cxx11Ev
FN:12085,_ZN5Catch16RedirectedStdErrC2Ev
FN:12089,_ZNK5Catch16RedirectedStdErr3strB5cxx11Ev
FN:12091,_ZN5Catch17RedirectedStreamsC2ERNSt7__cxx1112basic_stringIcSt11char_traitsIcESaIcEEES7_
FN:12096,_ZN5Catch17RedirectedStreamsD2Ev
FN:12194,_ZN5Catch5isnanEf
FN:12197,_ZN5Catch5isnanEd
FN:12235,_ZN5Catch11SimplePcg32C2Ej
FN:12239,_ZN5Catch11SimplePcg324seedEj
FN:12246,_ZN5Catch11SimplePcg327discardEm
FN:12254,_ZN5Catch11SimplePcg32clEv
FN:12265,_ZN5CatcheqERKNS_11SimplePcg32ES2_
FN:12269,_ZN5CatchneERKNS_11SimplePcg32ES2_
FN:12300,_ZN5Catch12TestRegistryD0Ev
FN:12300,_ZN5Catch12TestRegistryD2Ev
FN:12429,_ZN5Catch9SingletonINS_12_GLOBAL__N_111RegistryHubENS_12IRegistryHubENS_19IMutableRegistryHubEE11getInternalEv
FN:12429,_ZN5Catch9SingletonINS_13StringStreamsES1_S1_E11getInternalEv
FN:12458,_ZN5Catch12_GLOBAL__N_111RegistryHubC2Ev
FN:12459,_ZNK5Catch12_GLOBAL__N_111RegistryHub19getReporterRegistryEv
FN:12462,_ZNK5Catch12_GLOBAL__N_111RegistryHub19getTestCaseRegistryEv
FN:12465,_ZNK5Catch12_GLOBAL__N_111RegistryHub30getExceptionTranslatorRegistryEv
FN:12468,_ZNK5Catch12_GLOBAL__N_111RegistryHub19getTagAliasRegistryEv
FN:12471,_ZNK5Catch12_GLOBAL__N_111RegistryHub27getStartupExceptionRegistryEv
FN:12476,_ZN5Catch12_GLOBAL__N_111RegistryHub16registerReporterERKNSt7__cxx1112basic_stringIcSt11char_traitsIcESaIcEEERKSt10shared_ptrINS_16IReporterFactoryEE
FN:12479,_ZN5Catch12_GLOBAL__N_111RegistryHub16registerListenerERKSt10shared_ptrINS_16IReporterFactoryEE
FN:12482,_ZN5Catch12_GLOBAL__N_111RegistryHub12registerTestERKNS_8TestCaseE
FN:12485,_ZN5Catch12_GLOBAL__N_111RegistryHub18registerTranslatorEPKNS_20IExceptionTranslatorE
FN:12488,_ZN5Catch12_GLOBAL__N_111RegistryHub16registerTagAliasERKNSt7__cxx1112basic_stringIcSt11char_traitsIcESaIcEEES9_RKNS_14SourceLineInfoE
FN:12491,_ZN5Catch12_GLOBAL__N_111RegistryHub24registerStartupExceptionEv
FN:12498,_ZN5Catch12_GLOBAL__N_111RegistryHub28getMutableEnumValuesRegistryEv
FN:12514,_ZN5Catch14getRegistryHubEv
FN:12517,_ZN5Catch21getMutableRegistryHubEv
FN:12520,_ZN5Catch7cleanUpEv
FN:12524,_ZN5Catch24translateActiveExceptionB5cxx11Ev
FN:12534,_ZN5Catch16ReporterRegistryD0Ev
FN:12534,_ZN5Catch16ReporterRegistryD2Ev
FN:12536,_ZNK5Catch16ReporterRegistry6createERKNSt7__cxx1112basic_stringIcSt11char_traitsIcESaIcEEERKSt10shared_ptrIKNS_7IConfigEE
FN:12543,_ZN5Catch16ReporterRegistry16registerReporterERKNSt7__cxx1112basic_stringIcSt11char_traitsIcESaIcEEERKSt10shared_ptrINS_16IReporterFactoryEE
FN:12546,_ZN5Catch16ReporterRegistry16registerListenerERKSt10shared_ptrINS_16IReporterFactoryEE
FN:12550,_ZNK5Catch16ReporterRegistry12getFactoriesB5cxx11Ev
FN:12553,_ZNK5Catch16ReporterRegistry12getListenersEv
FN:12563,_ZN5Catch4isOkENS_9ResultWas6OfTypeE
FN:12566,_ZN5Catch10isJustInfoEi
FN:12570,_ZN5CatchorENS_17ResultDisposition5FlagsES1_
FN:12574,_ZN5Catch23shouldContinueOnFailureEi
FN:12575,_ZN5Catch21shouldSuppressFailureEi
FN:12596,_ZN5Catch10Generators16GeneratorTracker7acquireERNS_16TestCaseTracking14TrackerContextERKNS2_15NameAndLocationE
FN:12633,_ZNK5Catch10Generators16GeneratorTracker18isGeneratorTrackerEv
FN:12634,_ZNK5Catch10Generators16GeneratorTracker12hasGeneratorEv
FN:12637,_ZN5Catch10Generators16GeneratorTracker5closeEv
FN:12646,_ZZN5Catch10Generators16GeneratorTracker5closeEvENKUlvE_clEv
FN:12707,_ZNK5Catch10Generators16GeneratorTracker12getGeneratorEv
FN:12710,_ZN5Catch10Generators16GeneratorTracker12setGeneratorEOSt10unique_ptrINS0_20GeneratorUntypedBaseESt14default_deleteIS3_EE
FN:12714,_ZN5Catch10Generators16GeneratorTrackerD0Ev
FN:12714,_ZN5Catch10Generators16GeneratorTrackerD2Ev
FN:12717,_ZN5Catch10RunContextC2ERKSt10shared_ptrIKNS_7IConfigEEOSt10unique_ptrINS_18IStreamingReporterESt14default_deleteIS8_EE
FN:12731,_ZN5Catch10RunContextD0Ev
FN:12731,_ZN5Catch10RunContextD2Ev
FN:12735,_ZN5Catch10RunContext17testGroupStartingERKNSt7__cxx1112basic_stringIcSt11char_traitsIcESaIcEEEmm
FN:12739,_ZN5Catch10RunContext14testGroupEndedERKNSt7__cxx1112basic_stringIcSt11char_traitsIcESaIcEEERKNS_6TotalsEmm
FN:12743,_ZN5Catch10RunContext7runTestERKNS_8TestCaseE
FN:12783,_ZNK5Catch10RunContext6configEv
FN:12787,_ZNK5Catch10RunContext8reporterEv
FN:12791,_ZN5Catch10RunContext14assertionEndedERKNS_15AssertionResultE
FN:12817,_ZN5Catch10RunContext18resetAssertionInfoEv
FN:12822,_ZN5Catch10RunContext14sectionStartedERKNS_11SectionInfoERNS_6CountsE
FN:12836,_ZN5Catch10RunContext23acquireGeneratorTrackerENS_9StringRefERKNS_14SourceLineInfoE
FN:12844,_ZN5Catch10RunContext24testForMissingAssertionsERNS_6CountsE
FN:12856,_ZN5Catch10RunContext12sectionEndedERKNS_14SectionEndInfoE
FN:12870,_ZN5Catch10RunContext17sectionEndedEarlyERKNS_14SectionEndInfoE
FN:12895,_ZN5Catch10RunContext17pushScopedMessageERKNS_11MessageInfoE
FN:12899,_ZN5Catch10RunContext16popScopedMessageERKNS_11MessageInfoE
FN:12903,_ZN5Catch10RunContext22emplaceUnscopedMessageERKNS_14MessageBuilderE
FN:12907,_ZNK5Catch10RunContext18getCurrentTestNameB5cxx11Ev
FN:12913,_ZNK5Catch10RunContext13getLastResultEv
FN:12917,_ZN5Catch10RunContext22exceptionEarlyReportedEv
FN:12921,_ZN5Catch10RunContext25handleFatalErrorConditionENS_9StringRefE
FN:12959,_ZN5Catch10RunContext19lastAssertionPassedEv
FN:12963,_ZN5Catch10RunContext15assertionPassedEv
FN:12970,_ZNK5Catch10RunContext8abortingEv
FN:12974,_ZN5Catch10RunContext14runCurrentTestERNSt7__cxx1112basic_stringIcSt11char_traitsIcESaIcEEES7_
FN:13025,_ZN5Catch10RunContext20invokeActiveTestCaseEv
FN:13030,_ZN5Catch10RunContext24handleUnfinishedSectionsEv
FN:13041,_ZN5Catch10RunContext10handleExprERKNS_13AssertionInfoERKNS_20ITransientExpressionERNS_17AssertionReactionE
FN:13064,_ZN5Catch10RunContext10reportExprERKNS_13AssertionInfoENS_9ResultWas6OfTypeEPKNS_20ITransientExpressionEb
FN:13079,_ZN5Catch10RunContext13handleMessageERKNS_13AssertionInfoENS_9ResultWas6OfTypeERKNS_9StringRefERNS_17AssertionReactionE
FN:13096,_ZN5Catch10RunContext34handleUnexpectedExceptionNotThrownERKNS_13AssertionInfoERNS_17AssertionReactionE
FN:13103,_ZN5Catch10RunContext33handleUnexpectedInflightExceptionERKNS_13AssertionInfoERKNSt7__cxx1112basic_stringIcSt11char_traitsIcESaIcEEERNS_17AssertionReactionE
FN:13117,_ZN5Catch10RunContext16populateReactionERNS_17AssertionReactionE
FN:13122,_ZN5Catch10RunContext16handleIncompleteERKNS_13AssertionInfoE
FN:13132,_ZN5Catch10RunContext13handleNonExprERKNS_13AssertionInfoENS_9ResultWas6OfTypeERNS_17AssertionReactionE
FN:13147,_ZN5Catch16getResultCaptureEv
FN:13154,_ZN5Catch7seedRngERKNS_7IConfigE
FN:13161,_ZN5Catch7rngSeedEv
FN:13171,_ZN5Catch7SectionC2ERKNS_11SectionInfoE
FN:13178,_ZN5Catch7SectionD0Ev
FN:13178,_ZN5Catch7SectionD2Ev
FN:13189,_ZNK5Catch7SectioncvbEv
FN:13199,_ZN5Catch11SectionInfoC2ERKNS_14SourceLineInfoERKNSt7__cxx1112basic_stringIcSt11char_traitsIcESaIcEEE
FN:13301,_ZN5Catch12_GLOBAL__N_114createReporterERKNSt7__cxx1112basic_stringIcSt11char_traitsIcESaIcEEERKSt10shared_ptrIKNS_7IConfigEE
FN:13308,_ZN5Catch12_GLOBAL__N_112makeReporterERKSt10shared_ptrINS_6ConfigEE
FN:13330,_ZN5Catch12_GLOBAL__N_19TestGroupC2ERKSt10shared_ptrINS_6ConfigEE
FN:13348,_ZN5Catch12_GLOBAL__N_19TestGroup7executeEv
FN:13384,_ZN5Catch12_GLOBAL__N_120applyFilenamesAsTagsERKNS_7IConfigE
FN:13412,_ZN5Catch7SessionC2Ev
FN:13443,_ZN5Catch7SessionD0Ev
FN:13443,_ZN5Catch7SessionD2Ev
FN:13447,_ZNK5Catch7Session8showHelpEv
FN:13453,_ZN5Catch7Session11libIdentifyEv
FN:13461,_ZN5Catch7Session16applyCommandLineEiPKPKc
FN:13510,_ZN5Catch7Session13useConfigDataERKNS_10ConfigDataE
FN:13515,_ZN5Catch7Session3runEv
FN:13528,_ZNK5Catch7Session3cliEv
FN:13531,_ZN5Catch7Session3cliERKNS_5clara6detail6ParserE
FN:13534,_ZN5Catch7Session10configDataEv
FN:13537,_ZN5Catch7Session6configEv
FN:13543,_ZN5Catch7Session11runInternalEv
FN:13591,_ZN5Catch12_GLOBAL__N_1L13getSingletonsEv
FN:13599,_ZN5Catch10ISingletonD0Ev
FN:13599,_ZN5Catch10ISingletonD2Ev
FN:13601,_ZN5Catch12addSingletonEPNS_10ISingletonE
FN:13604,_ZN5Catch17cleanupSingletonsEv
FN:13618,_ZN5Catch24StartupExceptionRegistry3addERKNSt15__exception_ptr13exception_ptrE
FN:13627,_ZNK5Catch24StartupExceptionRegistry13getExceptionsEv
FN:13645,_ZN5Catch7IStreamD0Ev
FN:13645,_ZN5Catch7IStreamD2Ev
FN:13658,_ZN5Catch6Detail12_GLOBAL__N_113StreamBufImplINS1_17OutputDebugWriterELm256EED0Ev
FN:13658,_ZN5Catch6Detail12_GLOBAL__N_113StreamBufImplINS1_17OutputDebugWriterELm256EED2Ev
FN:13663,_ZN5Catch6Detail12_GLOBAL__N_113StreamBufImplINS1_17OutputDebugWriterELm256EE8overflowEi
FN:13675,_ZN5Catch6Detail12_GLOBAL__N_113StreamBufImplINS1_17OutputDebugWriterELm256EE4syncEv
FN:13698,_ZN5Catch6Detail12_GLOBAL__N_110FileStreamC2ENS_9StringRefE
FN:13702,_ZN5Catch6Detail12_GLOBAL__N_110FileStreamD0Ev
FN:13702,_ZN5Catch6Detail12_GLOBAL__N_110FileStreamD2Ev
FN:13704,_ZNK5Catch6Detail12_GLOBAL__N_110FileStream6streamEv
FN:13717,_ZN5Catch6Detail12_GLOBAL__N_110CoutStreamD0Ev
FN:13717,_ZN5Catch6Detail12_GLOBAL__N_110CoutStreamD2Ev
FN:13720,_ZNK5Catch6Detail12_GLOBAL__N_110CoutStream6streamEv
FN:13729,_ZN5Catch6Detail12_GLOBAL__N_114DebugOutStreamC2Ev
FN:13734,_ZN5Catch6Detail12_GLOBAL__N_114DebugOutStreamD0Ev
FN:13734,_ZN5Catch6Detail12_GLOBAL__N_114DebugOutStreamD2Ev
FN:13737,_ZNK5Catch6Detail12_GLOBAL__N_114DebugOutStream6streamEv
FN:13744,_ZN5Catch10makeStreamERKNS_9StringRefE
FN:13763,_ZN5Catch13StringStreams3addEv
FN:13775,_ZN5Catch13StringStreams7releaseEm
FN:13781,_ZN5Catch20ReusableStringStreamC2Ev
FN:13786,_ZN5Catch20ReusableStringStreamD0Ev
FN:13786,_ZN5Catch20ReusableStringStreamD2Ev
FN:13792,_ZNK5Catch20ReusableStringStream3strB5cxx11Ev
FN:13799,_ZN5Catch4coutEv
FN:13800,_ZN5Catch4cerrEv
FN:13801,_ZN5Catch4clogEv
FN:13816,_ZN5Catch12_GLOBAL__N_19toLowerChEc
FN:13821,_ZN5Catch10startsWithERKNSt7__cxx1112basic_stringIcSt11char_traitsIcESaIcEEES7_
FN:13824,_ZN5Catch10startsWithERKNSt7__cxx1112basic_stringIcSt11char_traitsIcESaIcEEEc
FN:13827,_ZN5Catch8endsWithERKNSt7__cxx1112basic_stringIcSt11char_traitsIcESaIcEEES7_
FN:13830,_ZN5Catch8endsWithERKNSt7__cxx1112basic_stringIcSt11char_traitsIcESaIcEEEc
FN:13833,_ZN5Catch8containsERKNSt7__cxx1112basic_stringIcSt11char_traitsIcESaIcEEES7_
FN:13836,_ZN5Catch14toLowerInPlaceERNSt7__cxx1112basic_stringIcSt11char_traitsIcESaIcEEE
FN:13839,_ZN5Catch7toLowerERKNSt7__cxx1112basic_stringIcSt11char_traitsIcESaIcEEE
FN:13844,_ZN5Catch4trimERKNSt7__cxx1112basic_stringIcSt11char_traitsIcESaIcEEE
FN:13852,_ZN5Catch4trimENS_9StringRefE
FN:13864,_ZN5Catch14replaceInPlaceERNSt7__cxx1112basic_stringIcSt11char_traitsIcESaIcEEERKS5_S8_
FN:13878,_ZN5Catch14splitStringRefENS_9StringRefEc
FN:13893,_ZN5Catch9pluraliseC2EmRKNSt7__cxx1112basic_stringIcSt11char_traitsIcESaIcEEE
FN:13898,_ZN5CatchlsERSoRKNS_9pluraliseE
FN:13915,_ZN5Catch9StringRefC2EPKc
FN:13919,_ZNK5Catch9StringRef5c_strEv
FN:13923,_ZNK5Catch9StringRef4dataEv
FN:13927,_ZNK5Catch9StringRef6substrEmm
FN:13934,_ZNK5Catch9StringRefeqERKS0_
FN:13939,_ZN5CatchlsERSoRKNS_9StringRefE
FN:13943,_ZN5CatchpLERNSt7__cxx1112basic_stringIcSt11char_traitsIcESaIcEEERKNS_9StringRefE
FN:13953,_ZN5Catch8TagAliasC2ERKNSt7__cxx1112basic_stringIcSt11char_traitsIcESaIcEEENS_14SourceLineInfoE
FN:13960,_ZN5Catch22RegistrarForTagAliasesC2EPKcS2_RKNS_14SourceLineInfoE
FN:13977,_ZN5Catch16TagAliasRegistryD0Ev
FN:13977,_ZN5Catch16TagAliasRegistryD2Ev
FN:13979,_ZNK5Catch16TagAliasRegistry4findERKNSt7__cxx1112basic_stringIcSt11char_traitsIcESaIcEEE
FN:13987,_ZNK5Catch16TagAliasRegistry13expandAliasesERKNSt7__cxx1112basic_stringIcSt11char_traitsIcESaIcEEE
FN:14000,_ZN5Catch16TagAliasRegistry3addERKNSt7__cxx1112basic_stringIcSt11char_traitsIcESaIcEEES8_RKNS_14SourceLineInfoE
FN:14010,_ZN5Catch17ITagAliasRegistryD0Ev
FN:14010,_ZN5Catch17ITagAliasRegistryD2Ev
FN:14012,_ZN5Catch17ITagAliasRegistry3getEv
FN:14028,_ZN5Catch12_GLOBAL__N_115parseSpecialTagERKNSt7__cxx1112basic_stringIcSt11char_traitsIcESaIcEEE
FN:14045,_ZN5Catch12_GLOBAL__N_113isReservedTagERKNSt7__cxx1112basic_stringIcSt11char_traitsIcESaIcEEE
FN:14048,_ZN5Catch12_GLOBAL__N_121enforceNotReservedTagERKNSt7__cxx1112basic_stringIcSt11char_traitsIcESaIcEEERKNS_14SourceLineInfoE
FN:14056,_ZN5Catch12makeTestCaseEPNS_12ITestInvokerERKNSt7__cxx1112basic_stringIcSt11char_traitsIcESaIcEEERKNS_11NameAndTagsERKNS_14SourceLineInfoE
FN:14105,_ZN5Catch7setTagsERNS_12TestCaseInfoESt6vectorINSt7__cxx1112basic_stringIcSt11char_traitsIcESaIcEEESaIS8_EE
FN:14118,_ZN5Catch12TestCaseInfoC2ERKNSt7__cxx1112basic_stringIcSt11char_traitsIcESaIcEEES8_S8_RKSt6vectorIS6_SaIS6_EERKNS_14SourceLineInfoE
FN:14132,_ZNK5Catch12TestCaseInfo8isHiddenEv
FN:14135,_ZNK5Catch12TestCaseInfo6throwsEv
FN:14138,_ZNK5Catch12TestCaseInfo8okToFailEv
FN:14141,_ZNK5Catch12TestCaseInfo14expectedToFailEv
FN:14145,_ZNK5Catch12TestCaseInfo12tagsAsStringB5cxx11Ev
FN:14162,_ZN5Catch8TestCaseC2EPNS_12ITestInvokerEONS_12TestCaseInfoE
FN:14164,_ZNK5Catch8TestCase8withNameERKNSt7__cxx1112basic_stringIcSt11char_traitsIcESaIcEEE
FN:14170,_ZNK5Catch8TestCase6invokeEv
FN:14174,_ZNK5Catch8TestCaseeqERKS0_
FN:14180,_ZNK5Catch8TestCaseltERKS0_
FN:14184,_ZNK5Catch8TestCase15getTestCaseInfoEv
FN:14225,_ZN5Catch9sortTestsERKNS_7IConfigERKSt6vectorINS_8TestCaseESaIS4_EE
FN:14270,_ZN5Catch11isThrowSafeERKNS_8TestCaseERKNS_7IConfigE
FN:14274,_ZN5Catch9matchTestERKNS_8TestCaseERKNS_8TestSpecERKNS_7IConfigE
FN:14278,_ZN5Catch27enforceNoDuplicateTestCasesERKSt6vectorINS_8TestCaseESaIS1_EE
FN:14289,_ZN5Catch11filterTestsERKSt6vectorINS_8TestCaseESaIS1_EERKNS_8TestSpecERKNS_7IConfigE
FN:14300,_ZN5Catch21getAllTestCasesSortedERKNS_7IConfigE
FN:14304,_ZN5Catch12TestRegistry12registerTestERKNS_8TestCaseE
FN:14314,_ZNK5Catch12TestRegistry11getAllTestsEv
FN:14317,_ZNK5Catch12TestRegistry17getAllTestsSortedERKNS_7IConfigE
FN:14329,_ZN5Catch21TestInvokerAsFunctionC2EPFvvE
FN:14331,_ZNK5Catch21TestInvokerAsFunction6invokeEv
FN:14335,_ZN5Catch16extractClassNameB5cxx11ERKNS_9StringRefE
FN:14366,_ZN5Catch16TestCaseTracking15NameAndLocationC2ERKNSt7__cxx1112basic_stringIcSt11char_traitsIcESaIcEEERKNS_14SourceLineInfoE
FN:14371,_ZN5Catch16TestCaseTracking8ITrackerD0Ev
FN:14371,_ZN5Catch16TestCaseTracking8ITrackerD2Ev
FN:14373,_ZN5Catch16TestCaseTracking14TrackerContext8startRunEv
FN:14380,_ZN5Catch16TestCaseTracking14TrackerContext6endRunEv
FN:14386,_ZN5Catch16TestCaseTracking14TrackerContext10startCycleEv
FN:14390,_ZN5Catch16TestCaseTracking14TrackerContext13completeCycleEv
FN:14394,_ZNK5Catch16TestCaseTracking14TrackerContext14completedCycleEv
FN:14397,_ZN5Catch16TestCaseTracking14TrackerContext14currentTrackerEv
FN:14400,_ZN5Catch16TestCaseTracking14TrackerContext17setCurrentTrackerEPNS0_8ITrackerE
FN:14404,_ZN5Catch16TestCaseTracking11TrackerBaseC2ERKNS0_15NameAndLocationERNS0_14TrackerContextEPNS0_8ITrackerE
FN:14410,_ZNK5Catch16TestCaseTracking11TrackerBase10isCompleteEv
FN:14413,_ZNK5Catch16TestCaseTracking11TrackerBase23isSuccessfullyCompletedEv
FN:14416,_ZNK5Catch16TestCaseTracking11TrackerBase6isOpenEv
FN:14419,_ZNK5Catch16TestCaseTracking11TrackerBase11hasChildrenEv
FN:14423,_ZN5Catch16TestCaseTracking11TrackerBase8addChildERKSt10shared_ptrINS0_8ITrackerEE
FN:14427,_ZN5Catch16TestCaseTracking11TrackerBase9findChildERKNS0_15NameAndLocationE
FN:14429,_ZZN5Catch16TestCaseTracking11TrackerBase9findChildERKNS0_15NameAndLocationEENKUlRKSt10shared_ptrINS0_8ITrackerEEE_clES9_
FN:14438,_ZN5Catch16TestCaseTracking11TrackerBase6parentEv
FN:14443,_ZN5Catch16TestCaseTracking11TrackerBase9openChildEv
FN:14451,_ZNK5Catch16TestCaseTracking11TrackerBase16isSectionTrackerEv
FN:14452,_ZNK5Catch16TestCaseTracking11TrackerBase18isGeneratorTrackerEv
FN:14454,_ZN5Catch16TestCaseTracking11TrackerBase4openEv
FN:14461,_ZN5Catch16TestCaseTracking11TrackerBase5closeEv
FN:14490,_ZN5Catch16TestCaseTracking11TrackerBase4failEv
FN:14497,_ZN5Catch16TestCaseTracking11TrackerBase23markAsNeedingAnotherRunEv
FN:14501,_ZN5Catch16TestCaseTracking11TrackerBase12moveToParentEv
FN:14505,_ZN5Catch16TestCaseTracking11TrackerBase10moveToThisEv
FN:14509,_ZN5Catch16TestCaseTracking14SectionTrackerC2ERKNS0_15NameAndLocationERNS0_14TrackerContextEPNS0_8ITrackerE
FN:14522,_ZNK5Catch16TestCaseTracking14SectionTracker10isCompleteEv
FN:14533,_ZNK5Catch16TestCaseTracking14SectionTracker16isSectionTrackerEv
FN:14535,_ZN5Catch16TestCaseTracking14SectionTracker7acquireERNS0_14TrackerContextERKNS0_15NameAndLocationE
FN:14553,_ZN5Catch16TestCaseTracking14SectionTracker7tryOpenEv
FN:14558,_ZN5Catch16TestCaseTracking14SectionTracker17addInitialFiltersERKSt6vectorINSt7__cxx1112basic_stringIcSt11char_traitsIcESaIcEEESaIS8_EE
FN:14566,_ZN5Catch16TestCaseTracking14SectionTracker14addNextFiltersERKSt6vectorINSt7__cxx1112basic_stringIcSt11char_traitsIcESaIcEEESaIS8_EE
FN:14571,_ZNK5Catch16TestCaseTracking14SectionTracker10getFiltersB5cxx11Ev
FN:14575,_ZNK5Catch16TestCaseTracking14SectionTracker11trimmedNameB5cxx11Ev
FN:14595,_ZN5Catch15makeTestInvokerEPFvvE
FN:14599,_ZN5Catch11NameAndTagsC2ERKNS_9StringRefES3_
FN:14601,_ZN5Catch7AutoRegC2EPNS_12ITestInvokerERKNS_14SourceLineInfoERKNS_9StringRefERKNS_11NameAndTagsE
FN:14616,_ZN5Catch7AutoRegD0Ev
FN:14616,_ZN5Catch7AutoRegD2Ev
FN:14628,_ZN5Catch8TestSpec7PatternC2ERKNSt7__cxx1112basic_stringIcSt11char_traitsIcESaIcEEE
FN:14632,_ZN5Catch8TestSpec7PatternD0Ev
FN:14632,_ZN5Catch8TestSpec7PatternD2Ev
FN:14634,_ZNK5Catch8TestSpec7Pattern4nameB5cxx11Ev
FN:14638,_ZN5Catch8TestSpec11NamePatternC2ERKNSt7__cxx1112basic_stringIcSt11char_traitsIcESaIcEEES9_
FN:14643,_ZNK5Catch8TestSpec11NamePattern7matchesERKNS_12TestCaseInfoE
FN:14647,_ZN5Catch8TestSpec10TagPatternC2ERKNSt7__cxx1112basic_stringIcSt11char_traitsIcESaIcEEES9_
FN:14652,_ZNK5Catch8TestSpec10TagPattern7matchesERKNS_12TestCaseInfoE
FN:14658,_ZN5Catch8TestSpec15ExcludedPatternC2ERKSt10shared_ptrINS0_7PatternEE
FN:14663,_ZNK5Catch8TestSpec15ExcludedPattern7matchesERKNS_12TestCaseInfoE
FN:14667,_ZNK5Catch8TestSpec6Filter7matchesERKNS_12TestCaseInfoE
FN:14671,_ZNK5Catch8TestSpec6Filter4nameB5cxx11Ev
FN:14678,_ZNK5Catch8TestSpec10hasFiltersEv
FN:14682,_ZNK5Catch8TestSpec7matchesERKNS_12TestCaseInfoE
FN:14683,_ZZNK5Catch8TestSpec7matchesERKNS_12TestCaseInfoEENKUlRKNS0_6FilterEE_clES6_
FN:14686,_ZNK5Catch8TestSpec15matchesByFilterERKSt6vectorINS_8TestCaseESaIS2_EERKNS_7IConfigE
FN:14689,_ZZNK5Catch8TestSpec15matchesByFilterERKSt6vectorINS_8TestCaseESaIS2_EERKNS_7IConfigEENKUlRKNS0_6FilterEE_clESC_
FN:14699,_ZNK5Catch8TestSpec14getInvalidArgsB5cxx11Ev
FN:14709,_ZN5Catch14TestSpecParserC2ERKNS_17ITagAliasRegistryE
FN:14711,_ZN5Catch14TestSpecParser5parseERKNSt7__cxx1112basic_stringIcSt11char_traitsIcESaIcEEE
FN:14729,_ZN5Catch14TestSpecParser8testSpecEv
FN:14733,_ZN5Catch14TestSpecParser9visitCharEc
FN:14771,_ZN5Catch14TestSpecParser15processNoneCharEc
FN:14789,_ZN5Catch14TestSpecParser15processNameCharEc
FN:14798,_ZN5Catch14TestSpecParser16processOtherCharEc
FN:14805,_ZN5Catch14TestSpecParser12startNewModeENS0_4ModeE
FN:14808,_ZN5Catch14TestSpecParser7endModeEv
FN:14823,_ZN5Catch14TestSpecParser6escapeEv
FN:14828,_ZNK5Catch14TestSpecParser13isControlCharEc
FN:14845,_ZN5Catch14TestSpecParser9addFilterEv
FN:14852,_ZN5Catch14TestSpecParser12saveLastModeEv
FN:14856,_ZN5Catch14TestSpecParser20revertBackToLastModeEv
FN:14860,_ZN5Catch14TestSpecParser8separateEv
FN:14875,_ZN5Catch14TestSpecParser17preprocessPatternB5cxx11Ev
FN:14891,_ZN5Catch14TestSpecParser14addNamePatternEv
FN:14905,_ZN5Catch14TestSpecParser13addTagPatternEv
FN:14932,_ZN5Catch13parseTestSpecERKNSt7__cxx1112basic_stringIcSt11char_traitsIcESaIcEEE
FN:14946,_ZN5Catch31getCurrentNanosecondsSinceEpochEv
FN:14951,_ZN5Catch12_GLOBAL__N_123estimateClockResolutionEv
FN:14981,_ZN5Catch27getEstimatedClockResolutionEv
FN:14986,_ZN5Catch5Timer5startEv
FN:14989,_ZNK5Catch5Timer21getElapsedNanosecondsEv
FN:14992,_ZNK5Catch5Timer22getElapsedMicrosecondsEv
FN:14995,_ZNK5Catch5Timer22getElapsedMillisecondsEv
FN:14998,_ZNK5Catch5Timer17getElapsedSecondsEv
FN:15042,_ZN5Catch6Detail17rawMemoryToStringB5cxx11EPKvm
FN:15060,_ZN5Catch10fpToStringIdEENSt7__cxx1112basic_stringIcSt11char_traitsIcESaIcEEET_i
FN:15060,_ZN5Catch10fpToStringIfEENSt7__cxx1112basic_stringIcSt11char_traitsIcESaIcEEET_i
FN:15087,_ZN5Catch11StringMakerINSt7__cxx1112basic_stringIcSt11char_traitsIcESaIcEEEvE7convertERKS6_
FN:15116,_ZN5Catch11StringMakerIPKcvE7convertB5cxx11ES2_
FN:15123,_ZN5Catch11StringMakerIPcvE7convertB5cxx11ES1_
FN:15132,_ZN5Catch11StringMakerINSt7__cxx1112basic_stringIwSt11char_traitsIwESaIwEEEvE7convertERKS6_
FN:15147,_ZN5Catch11StringMakerIPKwvE7convertB5cxx11ES2_
FN:15154,_ZN5Catch11StringMakerIPwvE7convertB5cxx11ES1_
FN:15170,_ZN5Catch11StringMakerIivE7convertB5cxx11Ei
FN:15173,_ZN5Catch11StringMakerIlvE7convertB5cxx11El
FN:15176,_ZN5Catch11StringMakerIxvE7convertB5cxx11Ex
FN:15185,_ZN5Catch11StringMakerIjvE7convertB5cxx11Ej
FN:15188,_ZN5Catch11StringMakerImvE7convertB5cxx11Em
FN:15191,_ZN5Catch11StringMakerIyvE7convertB5cxx11Ey
FN:15200,_ZN5Catch11StringMakerIbvE7convertB5cxx11Eb
FN:15204,_ZN5Catch11StringMakerIavE7convertB5cxx11Ea
FN:15221,_ZN5Catch11StringMakerIcvE7convertB5cxx11Ec
FN:15224,_ZN5Catch11StringMakerIhvE7convertB5cxx11Eh
FN:15228,_ZN5Catch11StringMakerIDnvE7convertB5cxx11EDn
FN:15234,_ZN5Catch11StringMakerIfvE7convertB5cxx11Ef
FN:15240,_ZN5Catch11StringMakerIdvE7convertB5cxx11Ed
FN:15244,_ZN5Catch12ratio_stringISt5ratioILl1ELl1000000000000000000EEE6symbolB5cxx11Ev
FN:15245,_ZN5Catch12ratio_stringISt5ratioILl1ELl1000000000000000EEE6symbolB5cxx11Ev
FN:15246,_ZN5Catch12ratio_stringISt5ratioILl1ELl1000000000000EEE6symbolB5cxx11Ev
FN:15247,_ZN5Catch12ratio_stringISt5ratioILl1ELl1000000000EEE6symbolB5cxx11Ev
FN:15248,_ZN5Catch12ratio_stringISt5ratioILl1ELl1000000EEE6symbolB5cxx11Ev
FN:15249,_ZN5Catch12ratio_stringISt5ratioILl1ELl1000EEE6symbolB5cxx11Ev
FN:15262,_ZNK5Catch6CountsmiERKS0_
FN:15270,_ZN5Catch6CountspLERKS0_
FN:15277,_ZNK5Catch6Counts5totalEv
FN:15280,_ZNK5Catch6Counts9allPassedEv
FN:15283,_ZNK5Catch6Counts5allOkEv
FN:15287,_ZNK5Catch6TotalsmiERKS0_
FN:15294,_ZN5Catch6TotalspLERKS0_
FN:15300,_ZNK5Catch6Totals5deltaERKS0_
FN:15353,_ZN5Catch19uncaught_exceptionsEv
FN:15370,_ZN5Catch7VersionC2EjjjPKcj
FN:15383,_ZN5CatchlsERSoRKNS_7VersionE
FN:15395,_ZN5Catch14libraryVersionEv
FN:15406,_ZN5Catch15WildcardPatternC2ERKNSt7__cxx1112basic_stringIcSt11char_traitsIcESaIcEEENS_13CaseSensitive6ChoiceE
FN:15421,_ZNK5Catch15WildcardPattern7matchesERKNSt7__cxx1112basic_stringIcSt11char_traitsIcESaIcEEE
FN:15436,_ZNK5Catch15WildcardPattern15normaliseStringERKNSt7__cxx1112basic_stringIcSt11char_traitsIcESaIcEEE
FN:15450,_ZN5Catch12_GLOBAL__N_113trailingBytesEh
FN:15463,_ZN5Catch12_GLOBAL__N_111headerValueEh
FN:15476,_ZN5Catch12_GLOBAL__N_113hexEscapeCharERSoh
FN:15494,_ZN5CatchorENS_13XmlFormattingES0_
FN:15501,_ZN5CatchanENS_13XmlFormattingES0_
FN:15508,_ZN5Catch9XmlEncodeC2ERKNSt7__cxx1112basic_stringIcSt11char_traitsIcESaIcEEENS0_7ForWhatE
FN:15513,_ZNK5Catch9XmlEncode8encodeToERSo
FN:15607,_ZN5CatchlsERSoRKNS_9XmlEncodeE
FN:15612,_ZN5Catch9XmlWriter13ScopedElementC2EPS0_NS_13XmlFormattingE
FN:15617,_ZN5Catch9XmlWriter13ScopedElementC2EOS1_
FN:15624,_ZN5Catch9XmlWriter13ScopedElementaSEOS1_
FN:15635,_ZN5Catch9XmlWriter13ScopedElementD2Ev
FN:15641,_ZN5Catch9XmlWriter13ScopedElement9writeTextERKNSt7__cxx1112basic_stringIcSt11char_traitsIcESaIcEEENS_13XmlFormattingE
FN:15646,_ZN5Catch9XmlWriterC2ERSo
FN:15651,_ZN5Catch9XmlWriterD2Ev
FN:15658,_ZN5Catch9XmlWriter12startElementERKNSt7__cxx1112basic_stringIcSt11char_traitsIcESaIcEEENS_13XmlFormattingE
FN:15672,_ZN5Catch9XmlWriter13scopedElementERKNSt7__cxx1112basic_stringIcSt11char_traitsIcESaIcEEENS_13XmlFormattingE
FN:15678,_ZN5Catch9XmlWriter10endElementENS_13XmlFormattingE
FN:15697,_ZN5Catch9XmlWriter14writeAttributeERKNSt7__cxx1112basic_stringIcSt11char_traitsIcESaIcEEES8_
FN:15703,_ZN5Catch9XmlWriter14writeAttributeERKNSt7__cxx1112basic_stringIcSt11char_traitsIcESaIcEEEb
FN:15708,_ZN5Catch9XmlWriter9writeTextERKNSt7__cxx1112basic_stringIcSt11char_traitsIcESaIcEEENS_13XmlFormattingE
FN:15721,_ZN5Catch9XmlWriter12writeCommentERKNSt7__cxx1112basic_stringIcSt11char_traitsIcESaIcEEENS_13XmlFormattingE
FN:15731,_ZN5Catch9XmlWriter18writeStylesheetRefERKNSt7__cxx1112basic_stringIcSt11char_traitsIcESaIcEEE
FN:15735,_ZN5Catch9XmlWriter14writeBlankLineEv
FN:15741,_ZN5Catch9XmlWriter15ensureTagClosedEv
FN:15749,_ZN5Catch9XmlWriter15applyFormattingENS_13XmlFormattingE
FN:15753,_ZN5Catch9XmlWriter16writeDeclarationEv
FN:15757,_ZN5Catch9XmlWriter18newlineIfNecessaryEv
FN:15774,_ZN5Catch25prepareExpandedExpressionERNS_15AssertionResultE
FN:15780,_ZN5Catch20getFormattedDurationB5cxx11Ed
FN:15798,_ZN5Catch18shouldShowDurationERKNS_7IConfigEd
FN:15809,_ZN5Catch16serializeFiltersERKSt6vectorINSt7__cxx1112basic_stringIcSt11char_traitsIcESaIcEEESaIS6_EE
FN:15824,_ZN5Catch21TestEventListenerBaseC2ERKNS_14ReporterConfigE
FN:15827,_ZN5Catch21TestEventListenerBase23getSupportedVerbositiesEv
FN:15831,_ZN5Catch21TestEventListenerBase17assertionStartingERKNS_13AssertionInfoE
FN:15833,_ZN5Catch21TestEventListenerBase14assertionEndedERKNS_14AssertionStatsE
FN:15869,_ZN5Catch12_GLOBAL__N_111printTotalsERSoRKNS_6TotalsE
FN:15913,_ZN5Catch12_GLOBAL__N_116AssertionPrinter5printEv
FN:15982,_ZNK5Catch12_GLOBAL__N_116AssertionPrinter15printSourceInfoEv
FN:15987,_ZNK5Catch12_GLOBAL__N_116AssertionPrinter15printResultTypeENS_6Colour4CodeERKNSt7__cxx1112basic_stringIcSt11char_traitsIcESaIcEEE
FN:15997,_ZNK5Catch12_GLOBAL__N_116AssertionPrinter10printIssueERKNSt7__cxx1112basic_stringIcSt11char_traitsIcESaIcEEE
FN:16001,_ZN5Catch12_GLOBAL__N_116AssertionPrinter18printExpressionWasEv
FN:16012,_ZNK5Catch12_GLOBAL__N_116AssertionPrinter23printOriginalExpressionEv
FN:16018,_ZNK5Catch12_GLOBAL__N_116AssertionPrinter28printReconstructedExpressionEv
FN:16028,_ZN5Catch12_GLOBAL__N_116AssertionPrinter12printMessageEv
FN:16035,_ZN5Catch12_GLOBAL__N_116AssertionPrinter22printRemainingMessagesENS_6Colour4CodeE
FN:16071,_ZN5Catch15CompactReporter14getDescriptionB5cxx11Ev
FN:16075,_ZN5Catch15CompactReporter19noMatchingTestCasesERKNSt7__cxx1112basic_stringIcSt11char_traitsIcESaIcEEE
FN:16079,_ZN5Catch15CompactReporter17assertionStartingERKNS_13AssertionInfoE
FN:16081,_ZN5Catch15CompactReporter14assertionEndedERKNS_14AssertionStatsE
FN:16100,_ZN5Catch15CompactReporter12sectionEndedERKNS_12SectionStatsE
FN:16107,_ZN5Catch15CompactReporter12testRunEndedERKNS_12TestRunStatsE
FN:16113,_ZN5Catch15CompactReporterD0Ev
FN:16113,_ZN5Catch15CompactReporterD2Ev
FN:16145,_ZN5Catch12_GLOBAL__N_123ConsoleAssertionPrinterC2ERSoRKNS_14AssertionStatsEb
FN:16219,_ZNK5Catch12_GLOBAL__N_123ConsoleAssertionPrinter5printEv
FN:16232,_ZNK5Catch12_GLOBAL__N_123ConsoleAssertionPrinter15printResultTypeEv
FN:16238,_ZNK5Catch12_GLOBAL__N_123ConsoleAssertionPrinter23printOriginalExpressionEv
FN:16246,_ZNK5Catch12_GLOBAL__N_123ConsoleAssertionPrinter28printReconstructedExpressionEv
FN:16253,_ZNK5Catch12_GLOBAL__N_123ConsoleAssertionPrinter12printMessageEv
FN:16262,_ZNK5Catch12_GLOBAL__N_123ConsoleAssertionPrinter15printSourceInfoEv
FN:16382,_ZN5Catch12TablePrinterC2ERSoSt6vectorINS_12_GLOBAL__N_110ColumnInfoESaIS4_EE
FN:16406,_ZN5Catch12TablePrinter5closeEv
FN:16451,_ZN5Catch15ConsoleReporterC2ERKNS_14ReporterConfigE
FN:16454,_ZZN5Catch15ConsoleReporterC4ERKNS_14ReporterConfigEENKUlvE_clEv
FN:16474,_ZN5Catch15ConsoleReporterD0Ev
FN:16474,_ZN5Catch15ConsoleReporterD2Ev
FN:16476,_ZN5Catch15ConsoleReporter14getDescriptionB5cxx11Ev
FN:16480,_ZN5Catch15ConsoleReporter19noMatchingTestCasesERKNSt7__cxx1112basic_stringIcSt11char_traitsIcESaIcEEE
FN:16484,_ZN5Catch15ConsoleReporter22reportInvalidArgumentsERKNSt7__cxx1112basic_stringIcSt11char_traitsIcESaIcEEE
FN:16488,_ZN5Catch15ConsoleReporter17assertionStartingERKNS_13AssertionInfoE
FN:16490,_ZN5Catch15ConsoleReporter14assertionEndedERKNS_14AssertionStatsE
FN:16507,_ZN5Catch15ConsoleReporter15sectionStartingERKNS_11SectionInfoE
FN:16512,_ZN5Catch15ConsoleReporter12sectionEndedERKNS_12SectionStatsE
FN:16581,_ZN5Catch15ConsoleReporter13testCaseEndedERKNS_13TestCaseStatsE
FN:16586,_ZN5Catch15ConsoleReporter14testGroupEndedERKNS_14TestGroupStatsE
FN:16595,_ZN5Catch15ConsoleReporter12testRunEndedERKNS_12TestRunStatsE
FN:16601,_ZN5Catch15ConsoleReporter15testRunStartingERKNS_11TestRunInfoE
FN:16606,_ZN5Catch15ConsoleReporter9lazyPrintEv
FN:16612,_ZN5Catch15ConsoleReporter37lazyPrintWithoutClosingBenchmarkTableEv
FN:16624,_ZN5Catch15ConsoleReporter16lazyPrintRunInfoEv
FN:16636,_ZN5Catch15ConsoleReporter18lazyPrintGroupInfoEv
FN:16642,_ZN5Catch15ConsoleReporter29printTestCaseAndSectionHeaderEv
FN:16664,_ZN5Catch15ConsoleReporter17printClosedHeaderERKNSt7__cxx1112basic_stringIcSt11char_traitsIcESaIcEEE
FN:16668,_ZN5Catch15ConsoleReporter15printOpenHeaderERKNSt7__cxx1112basic_stringIcSt11char_traitsIcESaIcEEE
FN:16678,_ZN5Catch15ConsoleReporter17printHeaderStringERKNSt7__cxx1112basic_stringIcSt11char_traitsIcESaIcEEEm
FN:16692,_ZN5Catch13SummaryColumn6addRowEm
FN:16712,_ZN5Catch15ConsoleReporter11printTotalsERKNS_6TotalsE
FN:16741,_ZN5Catch15ConsoleReporter15printSummaryRowERKNSt7__cxx1112basic_stringIcSt11char_traitsIcESaIcEEERKSt6vectorINS_13SummaryColumnESaISA_EEm
FN:16759,_ZN5Catch15ConsoleReporter18printTotalsDividerERKNS_6TotalsE
FN:16780,_ZN5Catch15ConsoleReporter19printSummaryDividerEv
FN:16784,_ZN5Catch15ConsoleReporter16printTestFiltersEv
FN:16814,_ZN5Catch12_GLOBAL__N_119getCurrentTimestampEv
FN:16840,_ZN5Catch12_GLOBAL__N_111fileNameTagERKSt6vectorINSt7__cxx1112basic_stringIcSt11char_traitsIcESaIcEEESaIS7_EE
FN:16853,_ZN5Catch12_GLOBAL__N_114formatDurationEd
FN:16861,_ZN5Catch13JunitReporterC2ERKNS_14ReporterConfigE
FN:16869,_ZN5Catch13JunitReporterD0Ev
FN:16869,_ZN5Catch13JunitReporterD2Ev
FN:16871,_ZN5Catch13JunitReporter14getDescriptionB5cxx11Ev
FN:16875,_ZN5Catch13JunitReporter19noMatchingTestCasesERKNSt7__cxx1112basic_stringIcSt11char_traitsIcESaIcEEE
FN:16877,_ZN5Catch13JunitReporter15testRunStartingERKNS_11TestRunInfoE
FN:16882,_ZN5Catch13JunitReporter17testGroupStartingERKNS_9GroupInfoE
FN:16890,_ZN5Catch13JunitReporter16testCaseStartingERKNS_12TestCaseInfoE
FN:16894,_ZN5Catch13JunitReporter14assertionEndedERKNS_14AssertionStatsE
FN:16900,_ZN5Catch13JunitReporter13testCaseEndedERKNS_13TestCaseStatsE
FN:16906,_ZN5Catch13JunitReporter14testGroupEndedERKNS_14TestGroupStatsE
FN:16912,_ZN5Catch13JunitReporter22testRunEndedCumulativeEv
FN:16916,_ZN5Catch13JunitReporter10writeGroupERKNS_22CumulativeReporterBaseIS0_E4NodeINS_14TestGroupStatsENS3_INS_13TestCaseStatsENS2_11SectionNodeEEEEEd
FN:16954,_ZN5Catch13JunitReporter13writeTestCaseERKNS_22CumulativeReporterBaseIS0_E4NodeINS_13TestCaseStatsENS2_11SectionNodeEEE
FN:16976,_ZN5Catch13JunitReporter12writeSectionERKNSt7__cxx1112basic_stringIcSt11char_traitsIcESaIcEEES8_RKNS_22CumulativeReporterBaseIS0_E11SectionNodeEb
FN:17022,_ZN5Catch13JunitReporter15writeAssertionsERKNS_22CumulativeReporterBaseIS0_E11SectionNodeE
FN:17027,_ZN5Catch13JunitReporter14writeAssertionERKNS_14AssertionStatsE
FN:17095,_ZN5Catch17ListeningReporterC2Ev
FN:17100,_ZN5Catch17ListeningReporter11addListenerEOSt10unique_ptrINS_18IStreamingReporterESt14default_deleteIS2_EE
FN:17104,_ZN5Catch17ListeningReporter11addReporterEOSt10unique_ptrINS_18IStreamingReporterESt14default_deleteIS2_EE
FN:17110,_ZNK5Catch17ListeningReporter14getPreferencesEv
FN:17114,_ZN5Catch17ListeningReporter23getSupportedVerbositiesEv
FN:17118,_ZN5Catch17ListeningReporter19noMatchingTestCasesERKNSt7__cxx1112basic_stringIcSt11char_traitsIcESaIcEEE
FN:17125,_ZN5Catch17ListeningReporter22reportInvalidArgumentsERKNSt7__cxx1112basic_stringIcSt11char_traitsIcESaIcEEE
FN:17160,_ZN5Catch17ListeningReporter15testRunStartingERKNS_11TestRunInfoE
FN:17167,_ZN5Catch17ListeningReporter17testGroupStartingERKNS_9GroupInfoE
FN:17174,_ZN5Catch17ListeningReporter16testCaseStartingERKNS_12TestCaseInfoE
FN:17181,_ZN5Catch17ListeningReporter15sectionStartingERKNS_11SectionInfoE
FN:17188,_ZN5Catch17ListeningReporter17assertionStartingERKNS_13AssertionInfoE
FN:17196,_ZN5Catch17ListeningReporter14assertionEndedERKNS_14AssertionStatsE
FN:17203,_ZN5Catch17ListeningReporter12sectionEndedERKNS_12SectionStatsE
FN:17210,_ZN5Catch17ListeningReporter13testCaseEndedERKNS_13TestCaseStatsE
FN:17217,_ZN5Catch17ListeningReporter14testGroupEndedERKNS_14TestGroupStatsE
FN:17224,_ZN5Catch17ListeningReporter12testRunEndedERKNS_12TestRunStatsE
FN:17231,_ZN5Catch17ListeningReporter8skipTestERKNS_12TestCaseInfoE
FN:17238,_ZNK5Catch17ListeningReporter7isMultiEv
FN:17254,_ZN5Catch11XmlReporterC2ERKNS_14ReporterConfigE
FN:17262,_ZN5Catch11XmlReporterD0Ev
FN:17262,_ZN5Catch11XmlReporterD2Ev
FN:17264,_ZN5Catch11XmlReporter14getDescriptionB5cxx11Ev
FN:17268,_ZNK5Catch11XmlReporter16getStylesheetRefB5cxx11Ev
FN:17272,_ZN5Catch11XmlReporter15writeSourceInfoERKNS_14SourceLineInfoE
FN:17278,_ZN5Catch11XmlReporter19noMatchingTestCasesERKNSt7__cxx1112basic_stringIcSt11char_traitsIcESaIcEEE
FN:17282,_ZN5Catch11XmlReporter15testRunStartingERKNS_11TestRunInfoE
FN:17297,_ZN5Catch11XmlReporter17testGroupStartingERKNS_9GroupInfoE
FN:17303,_ZN5Catch11XmlReporter16testCaseStartingERKNS_12TestCaseInfoE
FN:17317,_ZN5Catch11XmlReporter15sectionStartingERKNS_11SectionInfoE
FN:17327,_ZN5Catch11XmlReporter17assertionStartingERKNS_13AssertionInfoE
FN:17329,_ZN5Catch11XmlReporter14assertionEndedERKNS_14AssertionStatsE
FN:17403,_ZN5Catch11XmlReporter12sectionEndedERKNS_12SectionStatsE
FN:17418,_ZN5Catch11XmlReporter13testCaseEndedERKNS_13TestCaseStatsE
FN:17434,_ZN5Catch11XmlReporter14testGroupEndedERKNS_14TestGroupStatsE
FN:17448,_ZN5Catch11XmlReporter12testRunEndedERKNS_12TestRunStatsE
FNDA:0,_ZN12_GLOBAL__N_111reportFatalEPKc
FNDA:0,_ZN5Catch10ErrnoGuardC2Ev
FNDA:0,_ZN5Catch10ErrnoGuardD2Ev
FNDA:0,_ZN5Catch10Generators10GeneratorsI8VecSpaceE4nextEv
FNDA:0,_ZN5Catch10Generators10GeneratorsI8VecSpaceE8populateEOS2_
FNDA:0,_ZN5Catch10Generators10GeneratorsI8VecSpaceE8populateIS2_JS2_S2_EEEvOT_DpOT0_
FNDA:0,_ZN5Catch10Generators10GeneratorsI8VecSpaceEC2IJNS0_16GeneratorWrapperIS2_EES2_EEEDpOT_
FNDA:0,_ZN5Catch10Generators10GeneratorsI8VecSpaceEC2IJNS0_16GeneratorWrapperIS2_EES2_S2_S2_EEEDpOT_
FNDA:0,_ZN5Catch10Generators10GeneratorsIN15ParSubMeshTests7FECTypeEE4nextEv
FNDA:0,_ZN5Catch10Generators10GeneratorsIN15ParSubMeshTests7FECTypeEE8populateEOS3_
FNDA:0,_ZN5Catch10Generators10GeneratorsIN15ParSubMeshTests7FECTypeEEC2IJNS0_16GeneratorWrapperIS3_EES3_EEEDpOT_
FNDA:0,_ZN5Catch10Generators10GeneratorsIN15assembly_levels7ProblemEE4nextEv
FNDA:0,_ZN5Catch10Generators10GeneratorsIN15assembly_levels7ProblemEE8populateEOS3_
FNDA:0,_ZN5Catch10Generators10GeneratorsIN15assembly_levels7ProblemEE8populateINS0_16GeneratorWrapperIS3_EEJS3_S3_EEEvOT_DpOT0_
FNDA:0,_ZN5Catch10Generators10GeneratorsIN15assembly_levels7ProblemEEC2IJNS0_16GeneratorWrapperIS3_EES3_EEEDpOT_
FNDA:0,_ZN5Catch10Generators10GeneratorsIN15assembly_levels7ProblemEEC2IJNS0_16GeneratorWrapperIS3_EES3_S3_EEEDpOT_
FNDA:0,_ZN5Catch10Generators10GeneratorsIN17LinearFormExtTestUt_EE4nextEv
FNDA:0,_ZN5Catch10Generators10GeneratorsIN17LinearFormExtTestUt_EE8populateEOS3_
FNDA:0,_ZN5Catch10Generators10GeneratorsIN17LinearFormExtTestUt_EE8populateINS0_16GeneratorWrapperIS3_EEJS3_S3_EEEvOT_DpOT0_
FNDA:0,_ZN5Catch10Generators10GeneratorsIN17LinearFormExtTestUt_EE8populateINS0_16GeneratorWrapperIS3_EEJS3_S3_S3_S3_EEEvOT_DpOT0_
FNDA:0,_ZN5Catch10Generators10GeneratorsIN17LinearFormExtTestUt_EE8populateIS3_JS3_S3_EEEvOT_DpOT0_
FNDA:0,_ZN5Catch10Generators10GeneratorsIN17LinearFormExtTestUt_EEC2IJNS0_16GeneratorWrapperIS3_EES3_S3_EEEDpOT_
FNDA:0,_ZN5Catch10Generators10GeneratorsIN17LinearFormExtTestUt_EEC2IJNS0_16GeneratorWrapperIS3_EES3_S3_S3_S3_EEEDpOT_
FNDA:0,_ZN5Catch10Generators10GeneratorsIN18sparse_matrix_test5CoeffEE4nextEv
FNDA:0,_ZN5Catch10Generators10GeneratorsIN18sparse_matrix_test5CoeffEE8populateEOS3_
FNDA:0,_ZN5Catch10Generators10GeneratorsIN18sparse_matrix_test5CoeffEE8populateINS0_16GeneratorWrapperIS3_EEJS3_S3_EEEvOT_DpOT0_
FNDA:0,_ZN5Catch10Generators10GeneratorsIN18sparse_matrix_test5CoeffEEC2IJNS0_16GeneratorWrapperIS3_EES3_S3_EEEDpOT_
FNDA:0,_ZN5Catch10Generators10GeneratorsIN18sparse_matrix_test7ProblemEE4nextEv
FNDA:0,_ZN5Catch10Generators10GeneratorsIN18sparse_matrix_test7ProblemEE8populateEOS3_
FNDA:0,_ZN5Catch10Generators10GeneratorsIN18sparse_matrix_test7ProblemEE8populateINS0_16GeneratorWrapperIS3_EEJS3_S3_EEEvOT_DpOT0_
FNDA:0,_ZN5Catch10Generators10GeneratorsIN18sparse_matrix_test7ProblemEEC2IJNS0_16GeneratorWrapperIS3_EES3_S3_EEEDpOT_
FNDA:0,_ZN5Catch10Generators10GeneratorsIN21face_restriction_test9SpaceTypeEE4nextEv
FNDA:0,_ZN5Catch10Generators10GeneratorsIN21face_restriction_test9SpaceTypeEE8populateEOS3_
FNDA:0,_ZN5Catch10Generators10GeneratorsIN21face_restriction_test9SpaceTypeEEC2IJNS0_16GeneratorWrapperIS3_EES3_EEEDpOT_
FNDA:0,_ZN5Catch10Generators10GeneratorsIN4mfem10RefinementUt_EE4nextEv
FNDA:0,_ZN5Catch10Generators10GeneratorsIN4mfem10RefinementUt_EE8populateEOS4_
FNDA:0,_ZN5Catch10Generators10GeneratorsIN4mfem10RefinementUt_EE8populateINS0_16GeneratorWrapperIS4_EEJS4_S4_S4_S4_S4_S4_EEEvOT_DpOT0_
FNDA:0,_ZN5Catch10Generators10GeneratorsIN4mfem10RefinementUt_EE8populateIS4_JS4_S4_EEEvOT_DpOT0_
FNDA:0,_ZN5Catch10Generators10GeneratorsIN4mfem10RefinementUt_EE8populateIS4_JS4_S4_S4_S4_EEEvOT_DpOT0_
FNDA:0,_ZN5Catch10Generators10GeneratorsIN4mfem10RefinementUt_EEC2IJNS0_16GeneratorWrapperIS4_EEEEEDpOT_
FNDA:0,_ZN5Catch10Generators10GeneratorsIN4mfem10RefinementUt_EEC2IJNS0_16GeneratorWrapperIS4_EES4_S4_S4_S4_S4_S4_EEEDpOT_
FNDA:0,_ZN5Catch10Generators10GeneratorsIN4mfem13AssemblyLevelEE4nextEv
FNDA:0,_ZN5Catch10Generators10GeneratorsIN4mfem13AssemblyLevelEE8populateEOS3_
FNDA:0,_ZN5Catch10Generators10GeneratorsIN4mfem13AssemblyLevelEE8populateINS0_16GeneratorWrapperIS3_EEJS3_S3_EEEvOT_DpOT0_
FNDA:0,_ZN5Catch10Generators10GeneratorsIN4mfem13AssemblyLevelEEC2IJNS0_16GeneratorWrapperIS3_EES3_EEEDpOT_
FNDA:0,_ZN5Catch10Generators10GeneratorsIN4mfem13AssemblyLevelEEC2IJNS0_16GeneratorWrapperIS3_EES3_S3_EEEDpOT_
FNDA:0,_ZN5Catch10Generators10GeneratorsIN4mfem13FiniteElement7MapTypeEE4nextEv
FNDA:0,_ZN5Catch10Generators10GeneratorsIN4mfem13FiniteElement7MapTypeEE8populateEOS4_
FNDA:0,_ZN5Catch10Generators10GeneratorsIN4mfem13FiniteElement7MapTypeEEC2IJNS0_16GeneratorWrapperIS4_EES4_EEEDpOT_
FNDA:0,_ZN5Catch10Generators10GeneratorsIN4mfem13QVectorLayoutEE4nextEv
FNDA:0,_ZN5Catch10Generators10GeneratorsIN4mfem13QVectorLayoutEE8populateEOS3_
FNDA:0,_ZN5Catch10Generators10GeneratorsIN4mfem13QVectorLayoutEEC2IJNS0_16GeneratorWrapperIS3_EES3_EEEDpOT_
FNDA:0,_ZN5Catch10Generators10GeneratorsIN4mfem7Element4TypeEE8populateINS0_16GeneratorWrapperIS4_EEJS4_S4_EEEvOT_DpOT0_
FNDA:0,_ZN5Catch10Generators10GeneratorsIN4mfem7Element4TypeEEC2IJNS0_16GeneratorWrapperIS4_EES4_S4_EEEDpOT_
FNDA:0,_ZN5Catch10Generators10GeneratorsIN4mfem8Ordering4TypeEE4nextEv
FNDA:0,_ZN5Catch10Generators10GeneratorsIN4mfem8Ordering4TypeEE8populateEOS4_
FNDA:0,_ZN5Catch10Generators10GeneratorsIN4mfem8Ordering4TypeEEC2IJNS0_16GeneratorWrapperIS4_EES4_EEEDpOT_
FNDA:0,_ZN5Catch10Generators10GeneratorsIN4mfem9BasisTypeUt_EE4nextEv
FNDA:0,_ZN5Catch10Generators10GeneratorsIN4mfem9BasisTypeUt_EE8populateEOS4_
FNDA:0,_ZN5Catch10Generators10GeneratorsIN4mfem9BasisTypeUt_EE8populateINS0_16GeneratorWrapperIS4_EEJS4_S4_EEEvOT_DpOT0_
FNDA:0,_ZN5Catch10Generators10GeneratorsIN4mfem9BasisTypeUt_EEC2IJNS0_16GeneratorWrapperIS4_EES4_EEEDpOT_
FNDA:0,_ZN5Catch10Generators10GeneratorsIN4mfem9BasisTypeUt_EEC2IJNS0_16GeneratorWrapperIS4_EES4_S4_EEEDpOT_
FNDA:0,_ZN5Catch10Generators10GeneratorsIRA21_KcE4nextEv
FNDA:0,_ZN5Catch10Generators10GeneratorsIRA21_KcE8populateES4_
FNDA:0,_ZN5Catch10Generators10GeneratorsIRA21_KcE8populateINS0_16GeneratorWrapperIS4_EEJRA24_S2_SA_EEEvOT_DpOT0_
FNDA:0,_ZN5Catch10Generators10GeneratorsIRA21_KcE8populateINS0_16GeneratorWrapperIS4_EEJRA28_S2_RA27_S2_RA29_S2_SC_EEEvOT_DpOT0_
FNDA:0,_ZN5Catch10Generators10GeneratorsIRA21_KcE8populateIRA24_S2_JS8_RA27_S2_EEEvOT_DpOT0_
FNDA:0,_ZN5Catch10Generators10GeneratorsIRA21_KcE8populateIRA27_S2_JRA29_S2_S8_EEEvOT_DpOT0_
FNDA:0,_ZN5Catch10Generators10GeneratorsIRA21_KcEC2IJNS0_16GeneratorWrapperIS4_EERA24_S2_EEEDpOT_
FNDA:0,_ZN5Catch10Generators10GeneratorsIRA21_KcEC2IJNS0_16GeneratorWrapperIS4_EERA24_S2_SA_EEEDpOT_
FNDA:0,_ZN5Catch10Generators10GeneratorsIRA21_KcEC2IJNS0_16GeneratorWrapperIS4_EERA24_S2_SA_RA27_S2_EEEDpOT_
FNDA:0,_ZN5Catch10Generators10GeneratorsIRA21_KcEC2IJNS0_16GeneratorWrapperIS4_EERA28_S2_RA27_S2_RA29_S2_SC_EEEDpOT_
FNDA:0,_ZN5Catch10Generators10GeneratorsIRA24_KcE4nextEv
FNDA:0,_ZN5Catch10Generators10GeneratorsIRA24_KcE8populateES4_
FNDA:0,_ZN5Catch10Generators10GeneratorsIRA24_KcEC2IJNS0_16GeneratorWrapperIS4_EERA27_S2_EEEDpOT_
FNDA:0,_ZN5Catch10Generators10GeneratorsIRA27_KcE4nextEv
FNDA:0,_ZN5Catch10Generators10GeneratorsIRA27_KcEC2IJNS0_16GeneratorWrapperIS4_EEEEEDpOT_
FNDA:0,_ZN5Catch10Generators10GeneratorsIRA28_KcE4nextEv
FNDA:0,_ZN5Catch10Generators10GeneratorsIRA28_KcE8populateES4_
FNDA:0,_ZN5Catch10Generators10GeneratorsIRA28_KcE8populateIRA27_S2_JRA24_S2_S8_EEEvOT_DpOT0_
FNDA:0,_ZN5Catch10Generators10GeneratorsIRA28_KcEC2IJNS0_16GeneratorWrapperIS4_EERA27_S2_RA24_S2_SA_EEEDpOT_
FNDA:0,_ZN5Catch10Generators10GeneratorsIRA32_KcE4nextEv
FNDA:0,_ZN5Catch10Generators10GeneratorsIRA32_KcE8populateES4_
FNDA:0,_ZN5Catch10Generators10GeneratorsIRA32_KcE8populateIRA25_S2_JRA26_S2_RA28_S2_EEEvOT_DpOT0_
FNDA:0,_ZN5Catch10Generators10GeneratorsIRA32_KcEC2IJNS0_16GeneratorWrapperIS4_EERA25_S2_RA26_S2_RA28_S2_EEEDpOT_
FNDA:0,_ZN5Catch10Generators10GeneratorsIZN11lor_batchedL20C_A_T_C_H_T_E_S_T_15EvE9SpaceTypeE4nextEv
FNDA:0,_ZN5Catch10Generators10GeneratorsIZN11lor_batchedL20C_A_T_C_H_T_E_S_T_15EvE9SpaceTypeE8populateEOS3_
FNDA:0,_ZN5Catch10Generators10GeneratorsIZN11lor_batchedL20C_A_T_C_H_T_E_S_T_15EvE9SpaceTypeEC2IJNS0_16GeneratorWrapperIS3_EES3_EEEDpOT_
FNDA:0,_ZN5Catch10Generators10GeneratorsIbE4nextEv
FNDA:0,_ZN5Catch10Generators10GeneratorsIbE8populateEOb
FNDA:0,_ZN5Catch10Generators10GeneratorsIbEC2IJNS0_16GeneratorWrapperIbEEEEEDpOT_
FNDA:0,_ZN5Catch10Generators10GeneratorsIbEC2IJNS0_16GeneratorWrapperIbEEbEEEDpOT_
FNDA:0,_ZN5Catch10Generators10GeneratorsIiE4nextEv
FNDA:0,_ZN5Catch10Generators10GeneratorsIiE8populateEOi
FNDA:0,_ZN5Catch10Generators10GeneratorsIiE8populateINS0_16GeneratorWrapperIiEEJiiEEEvOT_DpOT0_
FNDA:0,_ZN5Catch10Generators10GeneratorsIiE8populateINS0_16GeneratorWrapperIiEEJiiiiEEEvOT_DpOT0_
FNDA:0,_ZN5Catch10Generators10GeneratorsIiE8populateIiJiiEEEvOT_DpOT0_
FNDA:0,_ZN5Catch10Generators10GeneratorsIiE8populateIiJiiiiEEEvOT_DpOT0_
FNDA:0,_ZN5Catch10Generators10GeneratorsIiEC2IJNS0_16GeneratorWrapperIiEEEEEDpOT_
FNDA:0,_ZN5Catch10Generators10GeneratorsIiEC2IJNS0_16GeneratorWrapperIiEEiEEEDpOT_
FNDA:0,_ZN5Catch10Generators10GeneratorsIiEC2IJNS0_16GeneratorWrapperIiEEiiEEEDpOT_
FNDA:0,_ZN5Catch10Generators10GeneratorsIiEC2IJNS0_16GeneratorWrapperIiEEiiiEEEDpOT_
FNDA:0,_ZN5Catch10Generators10GeneratorsIiEC2IJNS0_16GeneratorWrapperIiEEiiiiEEEDpOT_
FNDA:0,_ZN5Catch10Generators10GeneratorsIiEC2IJNS0_16GeneratorWrapperIiEEiiiiiEEEDpOT_
FNDA:0,_ZN5Catch10Generators14RangeGeneratorIiE4nextEv
FNDA:0,_ZN5Catch10Generators14RangeGeneratorIiEC2ERKiS4_S4_
FNDA:0,_ZN5Catch10Generators14makeGeneratorsI8VecSpaceJS2_EEENS0_10GeneratorsIT_EEOS4_DpOT0_
FNDA:0,_ZN5Catch10Generators14makeGeneratorsI8VecSpaceJS2_S2_S2_EEENS0_10GeneratorsIT_EEOS4_DpOT0_
FNDA:0,_ZN5Catch10Generators14makeGeneratorsIN15ParSubMeshTests7FECTypeEJS3_EEENS0_10GeneratorsIT_EEOS5_DpOT0_
FNDA:0,_ZN5Catch10Generators14makeGeneratorsIN15assembly_levels7ProblemEJS3_EEENS0_10GeneratorsIT_EEOS5_DpOT0_
FNDA:0,_ZN5Catch10Generators14makeGeneratorsIN15assembly_levels7ProblemEJS3_S3_EEENS0_10GeneratorsIT_EEOS5_DpOT0_
FNDA:0,_ZN5Catch10Generators14makeGeneratorsIN17LinearFormExtTestUt_EJS3_S3_EEENS0_10GeneratorsIT_EEOS5_DpOT0_
FNDA:0,_ZN5Catch10Generators14makeGeneratorsIN17LinearFormExtTestUt_EJS3_S3_S3_S3_EEENS0_10GeneratorsIT_EEOS5_DpOT0_
FNDA:0,_ZN5Catch10Generators14makeGeneratorsIN18sparse_matrix_test5CoeffEJS3_S3_EEENS0_10GeneratorsIT_EEOS5_DpOT0_
FNDA:0,_ZN5Catch10Generators14makeGeneratorsIN18sparse_matrix_test7ProblemEJS3_S3_EEENS0_10GeneratorsIT_EEOS5_DpOT0_
FNDA:0,_ZN5Catch10Generators14makeGeneratorsIN21face_restriction_test9SpaceTypeEJS3_EEENS0_10GeneratorsIT_EEOS5_DpOT0_
FNDA:0,_ZN5Catch10Generators14makeGeneratorsIN4mfem10RefinementUt_EJEEENS0_10GeneratorsIT_EEOS6_DpOT0_
FNDA:0,_ZN5Catch10Generators14makeGeneratorsIN4mfem10RefinementUt_EJS4_S4_S4_S4_S4_S4_EEENS0_10GeneratorsIT_EEOS6_DpOT0_
FNDA:0,_ZN5Catch10Generators14makeGeneratorsIN4mfem13AssemblyLevelEJS3_EEENS0_10GeneratorsIT_EEOS5_DpOT0_
FNDA:0,_ZN5Catch10Generators14makeGeneratorsIN4mfem13AssemblyLevelEJS3_S3_EEENS0_10GeneratorsIT_EEOS5_DpOT0_
FNDA:0,_ZN5Catch10Generators14makeGeneratorsIN4mfem13FiniteElement7MapTypeEJS4_EEENS0_10GeneratorsIT_EEOS6_DpOT0_
FNDA:0,_ZN5Catch10Generators14makeGeneratorsIN4mfem13QVectorLayoutEJS3_EEENS0_10GeneratorsIT_EEOS5_DpOT0_
FNDA:0,_ZN5Catch10Generators14makeGeneratorsIN4mfem7Element4TypeEJS4_S4_EEENS0_10GeneratorsIT_EEOS6_DpOT0_
FNDA:0,_ZN5Catch10Generators14makeGeneratorsIN4mfem8Ordering4TypeEJS4_EEENS0_10GeneratorsIT_EEOS6_DpOT0_
FNDA:0,_ZN5Catch10Generators14makeGeneratorsIN4mfem9BasisTypeUt_EJS4_EEENS0_10GeneratorsIT_EEOS6_DpOT0_
FNDA:0,_ZN5Catch10Generators14makeGeneratorsIN4mfem9BasisTypeUt_EJS4_S4_EEENS0_10GeneratorsIT_EEOS6_DpOT0_
FNDA:0,_ZN5Catch10Generators14makeGeneratorsIRA21_KcJRA24_S2_EEENS0_10GeneratorsIT_EEOS8_DpOT0_
FNDA:0,_ZN5Catch10Generators14makeGeneratorsIRA21_KcJRA24_S2_S6_EEENS0_10GeneratorsIT_EEOS8_DpOT0_
FNDA:0,_ZN5Catch10Generators14makeGeneratorsIRA21_KcJRA24_S2_S6_RA27_S2_EEENS0_10GeneratorsIT_EEOSA_DpOT0_
FNDA:0,_ZN5Catch10Generators14makeGeneratorsIRA21_KcJRA28_S2_RA27_S2_RA29_S2_S8_EEENS0_10GeneratorsIT_EEOSC_DpOT0_
FNDA:0,_ZN5Catch10Generators14makeGeneratorsIRA24_KcJRA27_S2_EEENS0_10GeneratorsIT_EEOS8_DpOT0_
FNDA:0,_ZN5Catch10Generators14makeGeneratorsIRA27_KcJEEENS0_10GeneratorsIT_EEOS6_DpOT0_
FNDA:0,_ZN5Catch10Generators14makeGeneratorsIRA28_KcJRA27_S2_RA24_S2_S6_EEENS0_10GeneratorsIT_EEOSA_DpOT0_
FNDA:0,_ZN5Catch10Generators14makeGeneratorsIRA32_KcJRA25_S2_RA26_S2_RA28_S2_EEENS0_10GeneratorsIT_EEOSC_DpOT0_
FNDA:0,_ZN5Catch10Generators14makeGeneratorsIZN11lor_batchedL20C_A_T_C_H_T_E_S_T_15EvE9SpaceTypeJS3_EEENS0_10GeneratorsIT_EEOS5_DpOT0_
FNDA:0,_ZN5Catch10Generators14makeGeneratorsIbJEEENS0_10GeneratorsIT_EEOS3_DpOT0_
FNDA:0,_ZN5Catch10Generators14makeGeneratorsIbJbEEENS0_10GeneratorsIT_EEOS3_DpOT0_
FNDA:0,_ZN5Catch10Generators14makeGeneratorsIiJEEENS0_10GeneratorsIT_EEOS3_DpOT0_
FNDA:0,_ZN5Catch10Generators14makeGeneratorsIiJiEEENS0_10GeneratorsIT_EEOS3_DpOT0_
FNDA:0,_ZN5Catch10Generators14makeGeneratorsIiJiiEEENS0_10GeneratorsIT_EEOS3_DpOT0_
FNDA:0,_ZN5Catch10Generators14makeGeneratorsIiJiiiEEENS0_10GeneratorsIT_EEOS3_DpOT0_
FNDA:0,_ZN5Catch10Generators14makeGeneratorsIiJiiiiEEENS0_10GeneratorsIT_EEOS3_DpOT0_
FNDA:0,_ZN5Catch10Generators14makeGeneratorsIiJiiiiiEEENS0_10GeneratorsIT_EEOS3_DpOT0_
FNDA:0,_ZN5Catch10Generators16GeneratorTrackerD0Ev
FNDA:0,_ZN5Catch10Generators20GeneratorUntypedBaseD0Ev
FNDA:0,_ZN5Catch10Generators20SingleValueGeneratorI8VecSpaceE4nextEv
FNDA:0,_ZN5Catch10Generators20SingleValueGeneratorIN15ParSubMeshTests7FECTypeEE4nextEv
FNDA:0,_ZN5Catch10Generators20SingleValueGeneratorIN15assembly_levels7ProblemEE4nextEv
FNDA:0,_ZN5Catch10Generators20SingleValueGeneratorIN17LinearFormExtTestUt_EE4nextEv
FNDA:0,_ZN5Catch10Generators20SingleValueGeneratorIN18sparse_matrix_test5CoeffEE4nextEv
FNDA:0,_ZN5Catch10Generators20SingleValueGeneratorIN18sparse_matrix_test7ProblemEE4nextEv
FNDA:0,_ZN5Catch10Generators20SingleValueGeneratorIN21face_restriction_test9SpaceTypeEE4nextEv
FNDA:0,_ZN5Catch10Generators20SingleValueGeneratorIN4mfem10RefinementUt_EE4nextEv
FNDA:0,_ZN5Catch10Generators20SingleValueGeneratorIN4mfem13AssemblyLevelEE4nextEv
FNDA:0,_ZN5Catch10Generators20SingleValueGeneratorIN4mfem13FiniteElement7MapTypeEE4nextEv
FNDA:0,_ZN5Catch10Generators20SingleValueGeneratorIN4mfem13QVectorLayoutEE4nextEv
FNDA:0,_ZN5Catch10Generators20SingleValueGeneratorIN4mfem8Ordering4TypeEE4nextEv
FNDA:0,_ZN5Catch10Generators20SingleValueGeneratorIN4mfem9BasisTypeUt_EE4nextEv
FNDA:0,_ZN5Catch10Generators20SingleValueGeneratorIRA21_KcE4nextEv
FNDA:0,_ZN5Catch10Generators20SingleValueGeneratorIRA24_KcE4nextEv
FNDA:0,_ZN5Catch10Generators20SingleValueGeneratorIRA27_KcE4nextEv
FNDA:0,_ZN5Catch10Generators20SingleValueGeneratorIRA28_KcE4nextEv
FNDA:0,_ZN5Catch10Generators20SingleValueGeneratorIRA32_KcE4nextEv
FNDA:0,_ZN5Catch10Generators20SingleValueGeneratorIZN11lor_batchedL20C_A_T_C_H_T_E_S_T_15EvE9SpaceTypeE4nextEv
FNDA:0,_ZN5Catch10Generators20SingleValueGeneratorIbE4nextEv
FNDA:0,_ZN5Catch10Generators20SingleValueGeneratorIiE4nextEv
FNDA:0,_ZN5Catch10Generators2pf11make_uniqueINS0_10GeneratorsI8VecSpaceEEJS5_EEESt10unique_ptrIT_St14default_deleteIS7_EEDpOT0_
FNDA:0,_ZN5Catch10Generators2pf11make_uniqueINS0_10GeneratorsIN15ParSubMeshTests7FECTypeEEEJS6_EEESt10unique_ptrIT_St14default_deleteIS8_EEDpOT0_
FNDA:0,_ZN5Catch10Generators2pf11make_uniqueINS0_10GeneratorsIN15assembly_levels7ProblemEEEJS6_EEESt10unique_ptrIT_St14default_deleteIS8_EEDpOT0_
FNDA:0,_ZN5Catch10Generators2pf11make_uniqueINS0_10GeneratorsIN17LinearFormExtTestUt_EEEJS6_EEESt10unique_ptrIT_St14default_deleteIS8_EEDpOT0_
FNDA:0,_ZN5Catch10Generators2pf11make_uniqueINS0_10GeneratorsIN18sparse_matrix_test5CoeffEEEJS6_EEESt10unique_ptrIT_St14default_deleteIS8_EEDpOT0_
FNDA:0,_ZN5Catch10Generators2pf11make_uniqueINS0_10GeneratorsIN18sparse_matrix_test7ProblemEEEJS6_EEESt10unique_ptrIT_St14default_deleteIS8_EEDpOT0_
FNDA:0,_ZN5Catch10Generators2pf11make_uniqueINS0_10GeneratorsIN21face_restriction_test9SpaceTypeEEEJS6_EEESt10unique_ptrIT_St14default_deleteIS8_EEDpOT0_
FNDA:0,_ZN5Catch10Generators2pf11make_uniqueINS0_10GeneratorsIN4mfem10RefinementUt_EEEJS7_EEESt10unique_ptrIT_St14default_deleteIS9_EEDpOT0_
FNDA:0,_ZN5Catch10Generators2pf11make_uniqueINS0_10GeneratorsIN4mfem13AssemblyLevelEEEJS6_EEESt10unique_ptrIT_St14default_deleteIS8_EEDpOT0_
FNDA:0,_ZN5Catch10Generators2pf11make_uniqueINS0_10GeneratorsIN4mfem13FiniteElement7MapTypeEEEJS7_EEESt10unique_ptrIT_St14default_deleteIS9_EEDpOT0_
FNDA:0,_ZN5Catch10Generators2pf11make_uniqueINS0_10GeneratorsIN4mfem13QVectorLayoutEEEJS6_EEESt10unique_ptrIT_St14default_deleteIS8_EEDpOT0_
FNDA:0,_ZN5Catch10Generators2pf11make_uniqueINS0_10GeneratorsIN4mfem8Ordering4TypeEEEJS7_EEESt10unique_ptrIT_St14default_deleteIS9_EEDpOT0_
FNDA:0,_ZN5Catch10Generators2pf11make_uniqueINS0_10GeneratorsIN4mfem9BasisTypeUt_EEEJS7_EEESt10unique_ptrIT_St14default_deleteIS9_EEDpOT0_
FNDA:0,_ZN5Catch10Generators2pf11make_uniqueINS0_10GeneratorsIRA21_KcEEJS7_EEESt10unique_ptrIT_St14default_deleteIS9_EEDpOT0_
FNDA:0,_ZN5Catch10Generators2pf11make_uniqueINS0_10GeneratorsIRA24_KcEEJS7_EEESt10unique_ptrIT_St14default_deleteIS9_EEDpOT0_
FNDA:0,_ZN5Catch10Generators2pf11make_uniqueINS0_10GeneratorsIRA27_KcEEJS7_EEESt10unique_ptrIT_St14default_deleteIS9_EEDpOT0_
FNDA:0,_ZN5Catch10Generators2pf11make_uniqueINS0_10GeneratorsIRA28_KcEEJS7_EEESt10unique_ptrIT_St14default_deleteIS9_EEDpOT0_
FNDA:0,_ZN5Catch10Generators2pf11make_uniqueINS0_10GeneratorsIRA32_KcEEJS7_EEESt10unique_ptrIT_St14default_deleteIS9_EEDpOT0_
FNDA:0,_ZN5Catch10Generators2pf11make_uniqueINS0_10GeneratorsIZN11lor_batchedL20C_A_T_C_H_T_E_S_T_15EvE9SpaceTypeEEJS6_EEESt10unique_ptrIT_St14default_deleteIS8_EEDpOT0_
FNDA:0,_ZN5Catch10Generators2pf11make_uniqueINS0_10GeneratorsIbEEJS4_EEESt10unique_ptrIT_St14default_deleteIS6_EEDpOT0_
FNDA:0,_ZN5Catch10Generators2pf11make_uniqueINS0_10GeneratorsIiEEJS4_EEESt10unique_ptrIT_St14default_deleteIS6_EEDpOT0_
FNDA:0,_ZN5Catch10Generators2pf11make_uniqueINS0_14RangeGeneratorIiEEJRKiS6_EEESt10unique_ptrIT_St14default_deleteIS8_EEDpOT0_
FNDA:0,_ZN5Catch10Generators5rangeIiEENS0_16GeneratorWrapperIT_EERKS3_S6_
FNDA:0,_ZN5Catch10Generators5valueI8VecSpaceEENS0_16GeneratorWrapperIT_EEOS4_
FNDA:0,_ZN5Catch10Generators5valueIN15ParSubMeshTests7FECTypeEEENS0_16GeneratorWrapperIT_EEOS5_
FNDA:0,_ZN5Catch10Generators5valueIN15assembly_levels7ProblemEEENS0_16GeneratorWrapperIT_EEOS5_
FNDA:0,_ZN5Catch10Generators5valueIN17LinearFormExtTestUt_EEENS0_16GeneratorWrapperIT_EEOS5_
FNDA:0,_ZN5Catch10Generators5valueIN18sparse_matrix_test5CoeffEEENS0_16GeneratorWrapperIT_EEOS5_
FNDA:0,_ZN5Catch10Generators5valueIN18sparse_matrix_test7ProblemEEENS0_16GeneratorWrapperIT_EEOS5_
FNDA:0,_ZN5Catch10Generators5valueIN21face_restriction_test9SpaceTypeEEENS0_16GeneratorWrapperIT_EEOS5_
FNDA:0,_ZN5Catch10Generators5valueIN4mfem10RefinementUt_EEENS0_16GeneratorWrapperIT_EEOS6_
FNDA:0,_ZN5Catch10Generators5valueIN4mfem13AssemblyLevelEEENS0_16GeneratorWrapperIT_EEOS5_
FNDA:0,_ZN5Catch10Generators5valueIN4mfem13FiniteElement7MapTypeEEENS0_16GeneratorWrapperIT_EEOS6_
FNDA:0,_ZN5Catch10Generators5valueIN4mfem13QVectorLayoutEEENS0_16GeneratorWrapperIT_EEOS5_
FNDA:0,_ZN5Catch10Generators5valueIN4mfem8Ordering4TypeEEENS0_16GeneratorWrapperIT_EEOS6_
FNDA:0,_ZN5Catch10Generators5valueIN4mfem9BasisTypeUt_EEENS0_16GeneratorWrapperIT_EEOS6_
FNDA:0,_ZN5Catch10Generators5valueIRA21_KcEENS0_16GeneratorWrapperIT_EEOS6_
FNDA:0,_ZN5Catch10Generators5valueIRA24_KcEENS0_16GeneratorWrapperIT_EEOS6_
FNDA:0,_ZN5Catch10Generators5valueIRA27_KcEENS0_16GeneratorWrapperIT_EEOS6_
FNDA:0,_ZN5Catch10Generators5valueIRA28_KcEENS0_16GeneratorWrapperIT_EEOS6_
FNDA:0,_ZN5Catch10Generators5valueIRA32_KcEENS0_16GeneratorWrapperIT_EEOS6_
FNDA:0,_ZN5Catch10Generators5valueIZN11lor_batchedL20C_A_T_C_H_T_E_S_T_15EvE9SpaceTypeEENS0_16GeneratorWrapperIT_EEOS5_
FNDA:0,_ZN5Catch10Generators5valueIbEENS0_16GeneratorWrapperIT_EEOS3_
FNDA:0,_ZN5Catch10Generators5valueIiEENS0_16GeneratorWrapperIT_EEOS3_
FNDA:0,_ZN5Catch10Generators8generateIZL19C_A_T_C_H_T_E_S_T_1vEUlvE0_EEDTcldtcl7declvalIDTclfp1_EEEE3getEENS_9StringRefERKNS_14SourceLineInfoERKT_
FNDA:0,_ZN5Catch10Generators8generateIZL19C_A_T_C_H_T_E_S_T_1vEUlvE11_EEDTcldtcl7declvalIDTclfp1_EEEE3getEENS_9StringRefERKNS_14SourceLineInfoERKT_
FNDA:0,_ZN5Catch10Generators8generateIZL19C_A_T_C_H_T_E_S_T_1vEUlvE1_EEDTcldtcl7declvalIDTclfp1_EEEE3getEENS_9StringRefERKNS_14SourceLineInfoERKT_
FNDA:0,_ZN5Catch10Generators8generateIZL19C_A_T_C_H_T_E_S_T_1vEUlvE2_EEDTcldtcl7declvalIDTclfp1_EEEE3getEENS_9StringRefERKNS_14SourceLineInfoERKT_
FNDA:0,_ZN5Catch10Generators8generateIZL19C_A_T_C_H_T_E_S_T_1vEUlvE3_EEDTcldtcl7declvalIDTclfp1_EEEE3getEENS_9StringRefERKNS_14SourceLineInfoERKT_
FNDA:0,_ZN5Catch10Generators8generateIZL19C_A_T_C_H_T_E_S_T_1vEUlvE4_EEDTcldtcl7declvalIDTclfp1_EEEE3getEENS_9StringRefERKNS_14SourceLineInfoERKT_
FNDA:0,_ZN5Catch10Generators8generateIZL19C_A_T_C_H_T_E_S_T_1vEUlvE5_EEDTcldtcl7declvalIDTclfp1_EEEE3getEENS_9StringRefERKNS_14SourceLineInfoERKT_
FNDA:0,_ZN5Catch10Generators8generateIZL19C_A_T_C_H_T_E_S_T_1vEUlvE6_EEDTcldtcl7declvalIDTclfp1_EEEE3getEENS_9StringRefERKNS_14SourceLineInfoERKT_
FNDA:0,_ZN5Catch10Generators8generateIZL19C_A_T_C_H_T_E_S_T_1vEUlvE7_EEDTcldtcl7declvalIDTclfp1_EEEE3getEENS_9StringRefERKNS_14SourceLineInfoERKT_
FNDA:0,_ZN5Catch10Generators8generateIZL19C_A_T_C_H_T_E_S_T_1vEUlvE8_EEDTcldtcl7declvalIDTclfp1_EEEE3getEENS_9StringRefERKNS_14SourceLineInfoERKT_
FNDA:0,_ZN5Catch10Generators8generateIZL19C_A_T_C_H_T_E_S_T_1vEUlvE9_EEDTcldtcl7declvalIDTclfp1_EEEE3getEENS_9StringRefERKNS_14SourceLineInfoERKT_
FNDA:0,_ZN5Catch10Generators8generateIZL19C_A_T_C_H_T_E_S_T_1vEUlvE_EEDTcldtcl7declvalIDTclfp1_EEEE3getEENS_9StringRefERKNS_14SourceLineInfoERKT_
FNDA:0,_ZN5Catch10Generators8generateIZL19C_A_T_C_H_T_E_S_T_7vEUlvE0_EEDTcldtcl7declvalIDTclfp1_EEEE3getEENS_9StringRefERKNS_14SourceLineInfoERKT_
FNDA:0,_ZN5Catch10Generators8generateIZL19C_A_T_C_H_T_E_S_T_7vEUlvE_EEDTcldtcl7declvalIDTclfp1_EEEE3getEENS_9StringRefERKNS_14SourceLineInfoERKT_
FNDA:0,_ZN5Catch10Generators8generateIZL19C_A_T_C_H_T_E_S_T_8vEUlvE0_EEDTcldtcl7declvalIDTclfp1_EEEE3getEENS_9StringRefERKNS_14SourceLineInfoERKT_
FNDA:0,_ZN5Catch10Generators8generateIZL19C_A_T_C_H_T_E_S_T_8vEUlvE1_EEDTcldtcl7declvalIDTclfp1_EEEE3getEENS_9StringRefERKNS_14SourceLineInfoERKT_
FNDA:0,_ZN5Catch10Generators8generateIZL19C_A_T_C_H_T_E_S_T_8vEUlvE2_EEDTcldtcl7declvalIDTclfp1_EEEE3getEENS_9StringRefERKNS_14SourceLineInfoERKT_
FNDA:0,_ZN5Catch10Generators8generateIZL19C_A_T_C_H_T_E_S_T_8vEUlvE_EEDTcldtcl7declvalIDTclfp1_EEEE3getEENS_9StringRefERKNS_14SourceLineInfoERKT_
FNDA:0,_ZN5Catch10Generators8generateIZL19C_A_T_C_H_T_E_S_T_9vEUlvE_EEDTcldtcl7declvalIDTclfp1_EEEE3getEENS_9StringRefERKNS_14SourceLineInfoERKT_
FNDA:0,_ZN5Catch10Generators8generateIZL20C_A_T_C_H_T_E_S_T_10vEUlvE_EEDTcldtcl7declvalIDTclfp1_EEEE3getEENS_9StringRefERKNS_14SourceLineInfoERKT_
FNDA:0,_ZN5Catch10Generators8generateIZL20C_A_T_C_H_T_E_S_T_12vEUlvE0_EEDTcldtcl7declvalIDTclfp1_EEEE3getEENS_9StringRefERKNS_14SourceLineInfoERKT_
FNDA:0,_ZN5Catch10Generators8generateIZL20C_A_T_C_H_T_E_S_T_12vEUlvE_EEDTcldtcl7declvalIDTclfp1_EEEE3getEENS_9StringRefERKNS_14SourceLineInfoERKT_
FNDA:0,_ZN5Catch10Generators8generateIZL20C_A_T_C_H_T_E_S_T_15vEUlvE_EEDTcldtcl7declvalIDTclfp1_EEEE3getEENS_9StringRefERKNS_14SourceLineInfoERKT_
FNDA:0,_ZN5Catch10Generators8generateIZL20C_A_T_C_H_T_E_S_T_17vEUlvE0_EEDTcldtcl7declvalIDTclfp1_EEEE3getEENS_9StringRefERKNS_14SourceLineInfoERKT_
FNDA:0,_ZN5Catch10Generators8generateIZL20C_A_T_C_H_T_E_S_T_17vEUlvE1_EEDTcldtcl7declvalIDTclfp1_EEEE3getEENS_9StringRefERKNS_14SourceLineInfoERKT_
FNDA:0,_ZN5Catch10Generators8generateIZL20C_A_T_C_H_T_E_S_T_17vEUlvE_EEDTcldtcl7declvalIDTclfp1_EEEE3getEENS_9StringRefERKNS_14SourceLineInfoERKT_
FNDA:0,_ZN5Catch10Generators8generateIZL20C_A_T_C_H_T_E_S_T_19vEUlvE_EEDTcldtcl7declvalIDTclfp1_EEEE3getEENS_9StringRefERKNS_14SourceLineInfoERKT_
FNDA:0,_ZN5Catch10Generators8generateIZL20C_A_T_C_H_T_E_S_T_20vEUlvE0_EEDTcldtcl7declvalIDTclfp1_EEEE3getEENS_9StringRefERKNS_14SourceLineInfoERKT_
FNDA:0,_ZN5Catch10Generators8generateIZL20C_A_T_C_H_T_E_S_T_20vEUlvE1_EEDTcldtcl7declvalIDTclfp1_EEEE3getEENS_9StringRefERKNS_14SourceLineInfoERKT_
FNDA:0,_ZN5Catch10Generators8generateIZL20C_A_T_C_H_T_E_S_T_20vEUlvE_EEDTcldtcl7declvalIDTclfp1_EEEE3getEENS_9StringRefERKNS_14SourceLineInfoERKT_
FNDA:0,_ZN5Catch10Generators8generateIZL20C_A_T_C_H_T_E_S_T_25vEUlvE0_EEDTcldtcl7declvalIDTclfp1_EEEE3getEENS_9StringRefERKNS_14SourceLineInfoERKT_
FNDA:0,_ZN5Catch10Generators8generateIZL20C_A_T_C_H_T_E_S_T_25vEUlvE1_EEDTcldtcl7declvalIDTclfp1_EEEE3getEENS_9StringRefERKNS_14SourceLineInfoERKT_
FNDA:0,_ZN5Catch10Generators8generateIZL20C_A_T_C_H_T_E_S_T_25vEUlvE2_EEDTcldtcl7declvalIDTclfp1_EEEE3getEENS_9StringRefERKNS_14SourceLineInfoERKT_
FNDA:0,_ZN5Catch10Generators8generateIZL20C_A_T_C_H_T_E_S_T_25vEUlvE_EEDTcldtcl7declvalIDTclfp1_EEEE3getEENS_9StringRefERKNS_14SourceLineInfoERKT_
FNDA:0,_ZN5Catch10Generators8generateIZL20C_A_T_C_H_T_E_S_T_26vEUlvE_EEDTcldtcl7declvalIDTclfp1_EEEE3getEENS_9StringRefERKNS_14SourceLineInfoERKT_
FNDA:0,_ZN5Catch10Generators8generateIZL20C_A_T_C_H_T_E_S_T_33vEUlvE_EEDTcldtcl7declvalIDTclfp1_EEEE3getEENS_9StringRefERKNS_14SourceLineInfoERKT_
FNDA:0,_ZN5Catch10Generators8generateIZN10pa_kernelsL18test_pa_integratorIN4mfem14MassIntegratorEEEvvEUlvE0_EEDTcldtcl7declvalIDTclfp1_EEEE3getEENS_9StringRefERKNS_14SourceLineInfoERKT_
FNDA:0,_ZN5Catch10Generators8generateIZN10pa_kernelsL18test_pa_integratorIN4mfem14MassIntegratorEEEvvEUlvE1_EEDTcldtcl7declvalIDTclfp1_EEEE3getEENS_9StringRefERKNS_14SourceLineInfoERKT_
FNDA:0,_ZN5Catch10Generators8generateIZN10pa_kernelsL18test_pa_integratorIN4mfem14MassIntegratorEEEvvEUlvE2_EEDTcldtcl7declvalIDTclfp1_EEEE3getEENS_9StringRefERKNS_14SourceLineInfoERKT_
FNDA:0,_ZN5Catch10Generators8generateIZN10pa_kernelsL18test_pa_integratorIN4mfem14MassIntegratorEEEvvEUlvE_EEDTcldtcl7declvalIDTclfp1_EEEE3getEENS_9StringRefERKNS_14SourceLineInfoERKT_
FNDA:0,_ZN5Catch10Generators8generateIZN10pa_kernelsL18test_pa_integratorIN4mfem19DiffusionIntegratorEEEvvEUlvE0_EEDTcldtcl7declvalIDTclfp1_EEEE3getEENS_9StringRefERKNS_14SourceLineInfoERKT_
FNDA:0,_ZN5Catch10Generators8generateIZN10pa_kernelsL18test_pa_integratorIN4mfem19DiffusionIntegratorEEEvvEUlvE1_EEDTcldtcl7declvalIDTclfp1_EEEE3getEENS_9StringRefERKNS_14SourceLineInfoERKT_
FNDA:0,_ZN5Catch10Generators8generateIZN10pa_kernelsL18test_pa_integratorIN4mfem19DiffusionIntegratorEEEvvEUlvE2_EEDTcldtcl7declvalIDTclfp1_EEEE3getEENS_9StringRefERKNS_14SourceLineInfoERKT_
FNDA:0,_ZN5Catch10Generators8generateIZN10pa_kernelsL18test_pa_integratorIN4mfem19DiffusionIntegratorEEEvvEUlvE_EEDTcldtcl7declvalIDTclfp1_EEEE3getEENS_9StringRefERKNS_14SourceLineInfoERKT_
FNDA:0,_ZN5Catch10Generators8generateIZN10pa_kernelsL20C_A_T_C_H_T_E_S_T_21EvEUlvE0_EEDTcldtcl7declvalIDTclfp1_EEEE3getEENS_9StringRefERKNS_14SourceLineInfoERKT_
FNDA:0,_ZN5Catch10Generators8generateIZN10pa_kernelsL20C_A_T_C_H_T_E_S_T_21EvEUlvE1_EEDTcldtcl7declvalIDTclfp1_EEEE3getEENS_9StringRefERKNS_14SourceLineInfoERKT_
FNDA:0,_ZN5Catch10Generators8generateIZN10pa_kernelsL20C_A_T_C_H_T_E_S_T_21EvEUlvE_EEDTcldtcl7declvalIDTclfp1_EEEE3getEENS_9StringRefERKNS_14SourceLineInfoERKT_
FNDA:0,_ZN5Catch10Generators8generateIZN10pa_kernelsL20C_A_T_C_H_T_E_S_T_28EvEUlvE0_EEDTcldtcl7declvalIDTclfp1_EEEE3getEENS_9StringRefERKNS_14SourceLineInfoERKT_
FNDA:0,_ZN5Catch10Generators8generateIZN10pa_kernelsL20C_A_T_C_H_T_E_S_T_28EvEUlvE1_EEDTcldtcl7declvalIDTclfp1_EEEE3getEENS_9StringRefERKNS_14SourceLineInfoERKT_
FNDA:0,_ZN5Catch10Generators8generateIZN10pa_kernelsL20C_A_T_C_H_T_E_S_T_28EvEUlvE_EEDTcldtcl7declvalIDTclfp1_EEEE3getEENS_9StringRefERKNS_14SourceLineInfoERKT_
FNDA:0,_ZN5Catch10Generators8generateIZN11lor_batched14TestBatchedLORIN4mfem15H1_FECollectionENS4_14MassIntegratorENS4_19DiffusionIntegratorEEEvvEUlvE_EEDTcldtcl7declvalIDTclfp1_EEEE3getEENS_9StringRefERKNS_14SourceLineInfoERKT_
FNDA:0,_ZN5Catch10Generators8generateIZN11lor_batched14TestBatchedLORIN4mfem15ND_FECollectionENS4_22VectorFEMassIntegratorENS4_18CurlCurlIntegratorEEEvvEUlvE_EEDTcldtcl7declvalIDTclfp1_EEEE3getEENS_9StringRefERKNS_14SourceLineInfoERKT_
FNDA:0,_ZN5Catch10Generators8generateIZN11lor_batched14TestBatchedLORIN4mfem15RT_FECollectionENS4_22VectorFEMassIntegratorENS4_16DivDivIntegratorEEEvvEUlvE_EEDTcldtcl7declvalIDTclfp1_EEEE3getEENS_9StringRefERKNS_14SourceLineInfoERKT_
FNDA:0,_ZN5Catch10Generators8generateIZN11lor_batched17ParTestBatchedLORIN4mfem15H1_FECollectionENS4_14MassIntegratorENS4_19DiffusionIntegratorEEEvvEUlvE0_EEDTcldtcl7declvalIDTclfp1_EEEE3getEENS_9StringRefERKNS_14SourceLineInfoERKT_
FNDA:0,_ZN5Catch10Generators8generateIZN11lor_batched17ParTestBatchedLORIN4mfem15H1_FECollectionENS4_14MassIntegratorENS4_19DiffusionIntegratorEEEvvEUlvE_EEDTcldtcl7declvalIDTclfp1_EEEE3getEENS_9StringRefERKNS_14SourceLineInfoERKT_
FNDA:0,_ZN5Catch10Generators8generateIZN11lor_batched17ParTestBatchedLORIN4mfem15ND_FECollectionENS4_22VectorFEMassIntegratorENS4_18CurlCurlIntegratorEEEvvEUlvE0_EEDTcldtcl7declvalIDTclfp1_EEEE3getEENS_9StringRefERKNS_14SourceLineInfoERKT_
FNDA:0,_ZN5Catch10Generators8generateIZN11lor_batched17ParTestBatchedLORIN4mfem15ND_FECollectionENS4_22VectorFEMassIntegratorENS4_18CurlCurlIntegratorEEEvvEUlvE_EEDTcldtcl7declvalIDTclfp1_EEEE3getEENS_9StringRefERKNS_14SourceLineInfoERKT_
FNDA:0,_ZN5Catch10Generators8generateIZN11lor_batched17ParTestBatchedLORIN4mfem15RT_FECollectionENS4_22VectorFEMassIntegratorENS4_16DivDivIntegratorEEEvvEUlvE0_EEDTcldtcl7declvalIDTclfp1_EEEE3getEENS_9StringRefERKNS_14SourceLineInfoERKT_
FNDA:0,_ZN5Catch10Generators8generateIZN11lor_batched17ParTestBatchedLORIN4mfem15RT_FECollectionENS4_22VectorFEMassIntegratorENS4_16DivDivIntegratorEEEvvEUlvE_EEDTcldtcl7declvalIDTclfp1_EEEE3getEENS_9StringRefERKNS_14SourceLineInfoERKT_
FNDA:0,_ZN5Catch10Generators8generateIZN11lor_batchedL20C_A_T_C_H_T_E_S_T_15EvEUlvE0_EEDTcldtcl7declvalIDTclfp1_EEEE3getEENS_9StringRefERKNS_14SourceLineInfoERKT_
FNDA:0,_ZN5Catch10Generators8generateIZN11lor_batchedL20C_A_T_C_H_T_E_S_T_15EvEUlvE_EEDTcldtcl7declvalIDTclfp1_EEEE3getEENS_9StringRefERKNS_14SourceLineInfoERKT_
FNDA:0,_ZN5Catch10Generators8generateIZN11lor_batchedL20C_A_T_C_H_T_E_S_T_19EvEUlvE_EEDTcldtcl7declvalIDTclfp1_EEEE3getEENS_9StringRefERKNS_14SourceLineInfoERKT_
FNDA:0,_ZN5Catch10Generators8generateIZN11white_noiseL19C_A_T_C_H_T_E_S_T_0EvEUlvE_EEDTcldtcl7declvalIDTclfp1_EEEE3getEENS_9StringRefERKNS_14SourceLineInfoERKT_
FNDA:0,_ZN5Catch10Generators8generateIZN11white_noiseL19C_A_T_C_H_T_E_S_T_5EvEUlvE_EEDTcldtcl7declvalIDTclfp1_EEEE3getEENS_9StringRefERKNS_14SourceLineInfoERKT_
FNDA:0,_ZN5Catch10Generators8generateIZN15ParSubMeshTestsL20C_A_T_C_H_T_E_S_T_17EvEUlvE_EEDTcldtcl7declvalIDTclfp1_EEEE3getEENS_9StringRefERKNS_14SourceLineInfoERKT_
FNDA:0,_ZN5Catch10Generators8generateIZN15assembly_levelsL19C_A_T_C_H_T_E_S_T_1EvEUlvE0_EEDTcldtcl7declvalIDTclfp1_EEEE3getEENS_9StringRefERKNS_14SourceLineInfoERKT_
FNDA:0,_ZN5Catch10Generators8generateIZN15assembly_levelsL19C_A_T_C_H_T_E_S_T_1EvEUlvE1_EEDTcldtcl7declvalIDTclfp1_EEEE3getEENS_9StringRefERKNS_14SourceLineInfoERKT_
FNDA:0,_ZN5Catch10Generators8generateIZN15assembly_levelsL19C_A_T_C_H_T_E_S_T_1EvEUlvE2_EEDTcldtcl7declvalIDTclfp1_EEEE3getEENS_9StringRefERKNS_14SourceLineInfoERKT_
FNDA:0,_ZN5Catch10Generators8generateIZN15assembly_levelsL19C_A_T_C_H_T_E_S_T_1EvEUlvE3_EEDTcldtcl7declvalIDTclfp1_EEEE3getEENS_9StringRefERKNS_14SourceLineInfoERKT_
FNDA:0,_ZN5Catch10Generators8generateIZN15assembly_levelsL19C_A_T_C_H_T_E_S_T_1EvEUlvE4_EEDTcldtcl7declvalIDTclfp1_EEEE3getEENS_9StringRefERKNS_14SourceLineInfoERKT_
FNDA:0,_ZN5Catch10Generators8generateIZN15assembly_levelsL19C_A_T_C_H_T_E_S_T_1EvEUlvE5_EEDTcldtcl7declvalIDTclfp1_EEEE3getEENS_9StringRefERKNS_14SourceLineInfoERKT_
FNDA:0,_ZN5Catch10Generators8generateIZN15assembly_levelsL19C_A_T_C_H_T_E_S_T_1EvEUlvE6_EEDTcldtcl7declvalIDTclfp1_EEEE3getEENS_9StringRefERKNS_14SourceLineInfoERKT_
FNDA:0,_ZN5Catch10Generators8generateIZN15assembly_levelsL19C_A_T_C_H_T_E_S_T_1EvEUlvE7_EEDTcldtcl7declvalIDTclfp1_EEEE3getEENS_9StringRefERKNS_14SourceLineInfoERKT_
FNDA:0,_ZN5Catch10Generators8generateIZN15assembly_levelsL19C_A_T_C_H_T_E_S_T_1EvEUlvE8_EEDTcldtcl7declvalIDTclfp1_EEEE3getEENS_9StringRefERKNS_14SourceLineInfoERKT_
FNDA:0,_ZN5Catch10Generators8generateIZN15assembly_levelsL19C_A_T_C_H_T_E_S_T_1EvEUlvE_EEDTcldtcl7declvalIDTclfp1_EEEE3getEENS_9StringRefERKNS_14SourceLineInfoERKT_
FNDA:0,_ZN5Catch10Generators8generateIZN15assembly_levelsL20C_A_T_C_H_T_E_S_T_19EvEUlvE0_EEDTcldtcl7declvalIDTclfp1_EEEE3getEENS_9StringRefERKNS_14SourceLineInfoERKT_
FNDA:0,_ZN5Catch10Generators8generateIZN15assembly_levelsL20C_A_T_C_H_T_E_S_T_19EvEUlvE1_EEDTcldtcl7declvalIDTclfp1_EEEE3getEENS_9StringRefERKNS_14SourceLineInfoERKT_
FNDA:0,_ZN5Catch10Generators8generateIZN15assembly_levelsL20C_A_T_C_H_T_E_S_T_19EvEUlvE2_EEDTcldtcl7declvalIDTclfp1_EEEE3getEENS_9StringRefERKNS_14SourceLineInfoERKT_
FNDA:0,_ZN5Catch10Generators8generateIZN15assembly_levelsL20C_A_T_C_H_T_E_S_T_19EvEUlvE3_EEDTcldtcl7declvalIDTclfp1_EEEE3getEENS_9StringRefERKNS_14SourceLineInfoERKT_
FNDA:0,_ZN5Catch10Generators8generateIZN15assembly_levelsL20C_A_T_C_H_T_E_S_T_19EvEUlvE4_EEDTcldtcl7declvalIDTclfp1_EEEE3getEENS_9StringRefERKNS_14SourceLineInfoERKT_
FNDA:0,_ZN5Catch10Generators8generateIZN15assembly_levelsL20C_A_T_C_H_T_E_S_T_19EvEUlvE5_EEDTcldtcl7declvalIDTclfp1_EEEE3getEENS_9StringRefERKNS_14SourceLineInfoERKT_
FNDA:0,_ZN5Catch10Generators8generateIZN15assembly_levelsL20C_A_T_C_H_T_E_S_T_19EvEUlvE6_EEDTcldtcl7declvalIDTclfp1_EEEE3getEENS_9StringRefERKNS_14SourceLineInfoERKT_
FNDA:0,_ZN5Catch10Generators8generateIZN15assembly_levelsL20C_A_T_C_H_T_E_S_T_19EvEUlvE7_EEDTcldtcl7declvalIDTclfp1_EEEE3getEENS_9StringRefERKNS_14SourceLineInfoERKT_
FNDA:0,_ZN5Catch10Generators8generateIZN15assembly_levelsL20C_A_T_C_H_T_E_S_T_19EvEUlvE8_EEDTcldtcl7declvalIDTclfp1_EEEE3getEENS_9StringRefERKNS_14SourceLineInfoERKT_
FNDA:0,_ZN5Catch10Generators8generateIZN15assembly_levelsL20C_A_T_C_H_T_E_S_T_19EvEUlvE_EEDTcldtcl7declvalIDTclfp1_EEEE3getEENS_9StringRefERKNS_14SourceLineInfoERKT_
FNDA:0,_ZN5Catch10Generators8generateIZN15assembly_levelsL20C_A_T_C_H_T_E_S_T_37EvEUlvE0_EEDTcldtcl7declvalIDTclfp1_EEEE3getEENS_9StringRefERKNS_14SourceLineInfoERKT_
FNDA:0,_ZN5Catch10Generators8generateIZN15assembly_levelsL20C_A_T_C_H_T_E_S_T_37EvEUlvE_EEDTcldtcl7declvalIDTclfp1_EEEE3getEENS_9StringRefERKNS_14SourceLineInfoERKT_
FNDA:0,_ZN5Catch10Generators8generateIZN15assembly_levelsL20C_A_T_C_H_T_E_S_T_41EvEUlvE0_EEDTcldtcl7declvalIDTclfp1_EEEE3getEENS_9StringRefERKNS_14SourceLineInfoERKT_
FNDA:0,_ZN5Catch10Generators8generateIZN15assembly_levelsL20C_A_T_C_H_T_E_S_T_41EvEUlvE_EEDTcldtcl7declvalIDTclfp1_EEEE3getEENS_9StringRefERKNS_14SourceLineInfoERKT_
FNDA:0,_ZN5Catch10Generators8generateIZN18sparse_matrix_testL19C_A_T_C_H_T_E_S_T_1EvEUlvE0_EEDTcldtcl7declvalIDTclfp1_EEEE3getEENS_9StringRefERKNS_14SourceLineInfoERKT_
FNDA:0,_ZN5Catch10Generators8generateIZN18sparse_matrix_testL19C_A_T_C_H_T_E_S_T_1EvEUlvE1_EEDTcldtcl7declvalIDTclfp1_EEEE3getEENS_9StringRefERKNS_14SourceLineInfoERKT_
FNDA:0,_ZN5Catch10Generators8generateIZN18sparse_matrix_testL19C_A_T_C_H_T_E_S_T_1EvEUlvE2_EEDTcldtcl7declvalIDTclfp1_EEEE3getEENS_9StringRefERKNS_14SourceLineInfoERKT_
FNDA:0,_ZN5Catch10Generators8generateIZN18sparse_matrix_testL19C_A_T_C_H_T_E_S_T_1EvEUlvE3_EEDTcldtcl7declvalIDTclfp1_EEEE3getEENS_9StringRefERKNS_14SourceLineInfoERKT_
FNDA:0,_ZN5Catch10Generators8generateIZN18sparse_matrix_testL19C_A_T_C_H_T_E_S_T_1EvEUlvE4_EEDTcldtcl7declvalIDTclfp1_EEEE3getEENS_9StringRefERKNS_14SourceLineInfoERKT_
FNDA:0,_ZN5Catch10Generators8generateIZN18sparse_matrix_testL19C_A_T_C_H_T_E_S_T_1EvEUlvE_EEDTcldtcl7declvalIDTclfp1_EEEE3getEENS_9StringRefERKNS_14SourceLineInfoERKT_
FNDA:0,_ZN5Catch10Generators8generateIZN4mfemL19C_A_T_C_H_T_E_S_T_6EvEUlvE0_EEDTcldtcl7declvalIDTclfp1_EEEE3getEENS_9StringRefERKNS_14SourceLineInfoERKT_
FNDA:0,_ZN5Catch10Generators8generateIZN4mfemL19C_A_T_C_H_T_E_S_T_6EvEUlvE_EEDTcldtcl7declvalIDTclfp1_EEEE3getEENS_9StringRefERKNS_14SourceLineInfoERKT_
FNDA:0,_ZN5Catch10Generators8generateIZN4mfemL20C_A_T_C_H_T_E_S_T_10EvEUlvE0_EEDTcldtcl7declvalIDTclfp1_EEEE3getEENS_9StringRefERKNS_14SourceLineInfoERKT_
FNDA:0,_ZN5Catch10Generators8generateIZN4mfemL20C_A_T_C_H_T_E_S_T_10EvEUlvE_EEDTcldtcl7declvalIDTclfp1_EEEE3getEENS_9StringRefERKNS_14SourceLineInfoERKT_
FNDA:0,_ZN5Catch10ISingletonD0Ev
FNDA:0,_ZN5Catch10ISingletonD2Ev
FNDA:0,_ZN5Catch10RunContext10reportExprERKNS_13AssertionInfoENS_9ResultWas6OfTypeEPKNS_20ITransientExpressionEb
FNDA:0,_ZN5Catch10RunContext13handleMessageERKNS_13AssertionInfoENS_9ResultWas6OfTypeERKNS_9StringRefERNS_17AssertionReactionE
FNDA:0,_ZN5Catch10RunContext13handleNonExprERKNS_13AssertionInfoENS_9ResultWas6OfTypeERNS_17AssertionReactionE
FNDA:0,_ZN5Catch10RunContext14assertionEndedERKNS_15AssertionResultE
FNDA:0,_ZN5Catch10RunContext16handleIncompleteERKNS_13AssertionInfoE
FNDA:0,_ZN5Catch10RunContext16popScopedMessageERKNS_11MessageInfoE
FNDA:0,_ZN5Catch10RunContext16populateReactionERNS_17AssertionReactionE
FNDA:0,_ZN5Catch10RunContext17pushScopedMessageERKNS_11MessageInfoE
FNDA:0,_ZN5Catch10RunContext17sectionEndedEarlyERKNS_14SectionEndInfoE
FNDA:0,_ZN5Catch10RunContext18resetAssertionInfoEv
FNDA:0,_ZN5Catch10RunContext19lastAssertionPassedEv
FNDA:0,_ZN5Catch10RunContext22emplaceUnscopedMessageERKNS_14MessageBuilderE
FNDA:0,_ZN5Catch10RunContext22exceptionEarlyReportedEv
FNDA:0,_ZN5Catch10RunContext25handleFatalErrorConditionENS_9StringRefE
FNDA:0,_ZN5Catch10RunContext33handleUnexpectedInflightExceptionERKNS_13AssertionInfoERKNSt7__cxx1112basic_stringIcSt11char_traitsIcESaIcEEERNS_17AssertionReactionE
FNDA:0,_ZN5Catch10RunContext34handleUnexpectedExceptionNotThrownERKNS_13AssertionInfoERNS_17AssertionReactionE
FNDA:0,_ZN5Catch10RunContextD0Ev
FNDA:0,_ZN5Catch10fpToStringIdEENSt7__cxx1112basic_stringIcSt11char_traitsIcESaIcEEET_i
FNDA:0,_ZN5Catch10fpToStringIfEENSt7__cxx1112basic_stringIcSt11char_traitsIcESaIcEEET_i
FNDA:0,_ZN5Catch10isJustInfoEi
FNDA:0,_ZN5Catch10startsWithERKNSt7__cxx1112basic_stringIcSt11char_traitsIcESaIcEEEc
FNDA:0,_ZN5Catch11MessageInfoC2ERKNS_9StringRefERKNS_14SourceLineInfoENS_9ResultWas6OfTypeE
FNDA:0,_ZN5Catch11NonCopyableC2Ev
FNDA:0,_ZN5Catch11NonCopyableD0Ev
FNDA:0,_ZN5Catch11NonCopyableD2Ev
FNDA:0,_ZN5Catch11SimplePcg324seedEj
FNDA:0,_ZN5Catch11SimplePcg327discardEm
FNDA:0,_ZN5Catch11SimplePcg32C2Ej
FNDA:0,_ZN5Catch11SimplePcg32clEv
FNDA:0,_ZN5Catch11StringMakerIDnvE7convertB5cxx11EDn
FNDA:0,_ZN5Catch11StringMakerIN4mfem13FiniteElement7MapTypeEvE7convertIS3_EENSt9enable_ifIXsrNS_6Detail18IsStreamInsertableIT_EE5valueENSt7__cxx1112basic_stringIcSt11char_traitsIcESaIcEEEE4typeERKS9_
FNDA:0,_ZN5Catch11StringMakerIN4mfem8Geometry4TypeEvE7convertIS3_EENSt9enable_ifIXsrNS_6Detail18IsStreamInsertableIT_EE5valueENSt7__cxx1112basic_stringIcSt11char_traitsIcESaIcEEEE4typeERKS9_
FNDA:0,_ZN5Catch11StringMakerIN4mfem9BasisTypeUt_EvE7convertIS3_EENSt9enable_ifIXsrNS_6Detail18IsStreamInsertableIT_EE5valueENSt7__cxx1112basic_stringIcSt11char_traitsIcESaIcEEEE4typeERKS9_
FNDA:0,_ZN5Catch11StringMakerIN8tinyxml28XMLErrorEvE7convertIS2_EENSt9enable_ifIXsrNS_6Detail18IsStreamInsertableIT_EE5valueENSt7__cxx1112basic_stringIcSt11char_traitsIcESaIcEEEE4typeERKS8_
FNDA:0,_ZN5Catch11StringMakerINS_14SourceLineInfoEvE7convertIS1_EENSt9enable_ifIXsrNS_6Detail18IsStreamInsertableIT_EE5valueENSt7__cxx1112basic_stringIcSt11char_traitsIcESaIcEEEE4typeERKS7_
FNDA:0,_ZN5Catch11StringMakerINS_6Detail6ApproxEvE7convertB5cxx11ERKS2_
FNDA:0,_ZN5Catch11StringMakerINSt7__cxx1112basic_stringIcSt11char_traitsIcESaIcEEEvE7convertERKS6_
FNDA:0,_ZN5Catch11StringMakerINSt7__cxx1112basic_stringIwSt11char_traitsIwESaIwEEEvE7convertERKS6_
FNDA:0,_ZN5Catch11StringMakerIPKN4mfem15FaceRestrictionEvE7convertIS3_EENSt7__cxx1112basic_stringIcSt11char_traitsIcESaIcEEEPT_
FNDA:0,_ZN5Catch11StringMakerIPKN8tinyxml210XMLElementEvE7convertIS3_EENSt7__cxx1112basic_stringIcSt11char_traitsIcESaIcEEEPT_
FNDA:0,_ZN5Catch11StringMakerIPKcvE7convertB5cxx11ES2_
FNDA:0,_ZN5Catch11StringMakerIPKdvE7convertIS1_EENSt7__cxx1112basic_stringIcSt11char_traitsIcESaIcEEEPT_
FNDA:0,_ZN5Catch11StringMakerIPKwvE7convertB5cxx11ES2_
FNDA:0,_ZN5Catch11StringMakerIPN4mfem12GridFunctionEvE7convertIS2_EENSt7__cxx1112basic_stringIcSt11char_traitsIcESaIcEEEPT_
FNDA:0,_ZN5Catch11StringMakerIPN4mfem12SparseMatrixEvE7convertIS2_EENSt7__cxx1112basic_stringIcSt11char_traitsIcESaIcEEEPT_
FNDA:0,_ZN5Catch11StringMakerIPN4mfem14HypreParMatrixEvE7convertIS2_EENSt7__cxx1112basic_stringIcSt11char_traitsIcESaIcEEEPT_
FNDA:0,_ZN5Catch11StringMakerIPN4mfem18QuadratureFunctionEvE7convertIS2_EENSt7__cxx1112basic_stringIcSt11char_traitsIcESaIcEEEPT_
FNDA:0,_ZN5Catch11StringMakerIPN4mfem4MeshEvE7convertIS2_EENSt7__cxx1112basic_stringIcSt11char_traitsIcESaIcEEEPT_
FNDA:0,_ZN5Catch11StringMakerIPcvE7convertB5cxx11ES1_
FNDA:0,_ZN5Catch11StringMakerIPdvE7convertIdEENSt7__cxx1112basic_stringIcSt11char_traitsIcESaIcEEEPT_
FNDA:0,_ZN5Catch11StringMakerIPwvE7convertB5cxx11ES1_
FNDA:0,_ZN5Catch11StringMakerIavE7convertB5cxx11Ea
FNDA:0,_ZN5Catch11StringMakerIbvE7convertB5cxx11Eb
FNDA:0,_ZN5Catch11StringMakerIcvE7convertB5cxx11Ec
FNDA:0,_ZN5Catch11StringMakerIdvE7convertB5cxx11Ed
FNDA:0,_ZN5Catch11StringMakerIfvE7convertB5cxx11Ef
FNDA:0,_ZN5Catch11StringMakerIhvE7convertB5cxx11Eh
FNDA:0,_ZN5Catch11StringMakerIivE7convertB5cxx11Ei
FNDA:0,_ZN5Catch11StringMakerIjvE7convertB5cxx11Ej
FNDA:0,_ZN5Catch11StringMakerIlvE7convertB5cxx11El
FNDA:0,_ZN5Catch11StringMakerImvE7convertB5cxx11Em
FNDA:0,_ZN5Catch11StringMakerIxvE7convertB5cxx11Ex
FNDA:0,_ZN5Catch11StringMakerIyvE7convertB5cxx11Ey
FNDA:0,_ZN5Catch11TestRunInfoC2ERKNSt7__cxx1112basic_stringIcSt11char_traitsIcESaIcEEE
FNDA:0,_ZN5Catch11XmlReporter12sectionEndedERKNS_12SectionStatsE
FNDA:0,_ZN5Catch11XmlReporter12testRunEndedERKNS_12TestRunStatsE
FNDA:0,_ZN5Catch11XmlReporter13testCaseEndedERKNS_13TestCaseStatsE
FNDA:0,_ZN5Catch11XmlReporter14assertionEndedERKNS_14AssertionStatsE
FNDA:0,_ZN5Catch11XmlReporter14getDescriptionB5cxx11Ev
FNDA:0,_ZN5Catch11XmlReporter14testGroupEndedERKNS_14TestGroupStatsE
FNDA:0,_ZN5Catch11XmlReporter15sectionStartingERKNS_11SectionInfoE
FNDA:0,_ZN5Catch11XmlReporter15testRunStartingERKNS_11TestRunInfoE
FNDA:0,_ZN5Catch11XmlReporter15writeSourceInfoERKNS_14SourceLineInfoE
FNDA:0,_ZN5Catch11XmlReporter16testCaseStartingERKNS_12TestCaseInfoE
FNDA:0,_ZN5Catch11XmlReporter17assertionStartingERKNS_13AssertionInfoE
FNDA:0,_ZN5Catch11XmlReporter17testGroupStartingERKNS_9GroupInfoE
FNDA:0,_ZN5Catch11XmlReporter19noMatchingTestCasesERKNSt7__cxx1112basic_stringIcSt11char_traitsIcESaIcEEE
FNDA:0,_ZN5Catch11XmlReporterC2ERKNS_14ReporterConfigE
FNDA:0,_ZN5Catch11XmlReporterD0Ev
FNDA:0,_ZN5Catch11XmlReporterD2Ev
FNDA:0,_ZN5Catch11filterTestsERKSt6vectorINS_8TestCaseESaIS1_EERKNS_8TestSpecERKNS_7IConfigE
FNDA:0,_ZN5Catch11isThrowSafeERKNS_8TestCaseERKNS_7IConfigE
FNDA:0,_ZN5Catch12IRegistryHubD0Ev
FNDA:0,_ZN5Catch12IRegistryHubD2Ev
FNDA:0,_ZN5Catch12ITestInvokerD0Ev
FNDA:0,_ZN5Catch12ITestInvokerD2Ev
FNDA:0,_ZN5Catch12LeakDetectorC2Ev
FNDA:0,_ZN5Catch12SectionStatsC2ERKNS_11SectionInfoERKNS_6CountsEdb
FNDA:0,_ZN5Catch12SectionStatsD0Ev
FNDA:0,_ZN5Catch12SectionStatsD2Ev
FNDA:0,_ZN5Catch12SectionStatsaSERKS0_
FNDA:0,_ZN5Catch12TestRegistryD0Ev
FNDA:0,_ZN5Catch12TestRunStatsC2ERKS0_
FNDA:0,_ZN5Catch12TestRunStatsD0Ev
FNDA:0,_ZN5Catch12TestRunStatsD2Ev
FNDA:0,_ZN5Catch12_GLOBAL__N_111RegistryHub16registerListenerERKSt10shared_ptrINS_16IReporterFactoryEE
FNDA:0,_ZN5Catch12_GLOBAL__N_111RegistryHub16registerTagAliasERKNSt7__cxx1112basic_stringIcSt11char_traitsIcESaIcEEES9_RKNS_14SourceLineInfoE
FNDA:0,_ZN5Catch12_GLOBAL__N_111RegistryHub18registerTranslatorEPKNS_20IExceptionTranslatorE
FNDA:0,_ZN5Catch12_GLOBAL__N_111RegistryHub24registerStartupExceptionEv
FNDA:0,_ZN5Catch12_GLOBAL__N_111RegistryHub28getMutableEnumValuesRegistryEv
FNDA:0,_ZN5Catch12_GLOBAL__N_111fileNameTagERKSt6vectorINSt7__cxx1112basic_stringIcSt11char_traitsIcESaIcEEESaIS7_EE
FNDA:0,_ZN5Catch12_GLOBAL__N_111headerValueEh
FNDA:0,_ZN5Catch12_GLOBAL__N_111printTotalsERSoRKNS_6TotalsE
FNDA:0,_ZN5Catch12_GLOBAL__N_112NoColourImpl3useENS_6Colour4CodeE
FNDA:0,_ZN5Catch12_GLOBAL__N_112NoColourImpl8instanceEv
FNDA:0,_ZN5Catch12_GLOBAL__N_113hexEscapeCharERSoh
FNDA:0,_ZN5Catch12_GLOBAL__N_113trailingBytesEh
FNDA:0,_ZN5Catch12_GLOBAL__N_114formatDurationEd
FNDA:0,_ZN5Catch12_GLOBAL__N_116AssertionPrinter12printMessageEv
FNDA:0,_ZN5Catch12_GLOBAL__N_116AssertionPrinter18printExpressionWasEv
FNDA:0,_ZN5Catch12_GLOBAL__N_116AssertionPrinter22printRemainingMessagesENS_6Colour4CodeE
FNDA:0,_ZN5Catch12_GLOBAL__N_116AssertionPrinter5printEv
FNDA:0,_ZN5Catch12_GLOBAL__N_119getCurrentTimestampEv
FNDA:0,_ZN5Catch12_GLOBAL__N_120applyFilenamesAsTagsERKNS_7IConfigE
FNDA:0,_ZN5Catch12_GLOBAL__N_123ConsoleAssertionPrinterC2ERSoRKNS_14AssertionStatsEb
FNDA:0,_ZN5Catch12_GLOBAL__N_123estimateClockResolutionEv
FNDA:0,_ZN5Catch12_GLOBAL__N_15writeIdEEvRSoT_
FNDA:0,_ZN5Catch12_GLOBAL__N_15writeIfEEvRSoT_
FNDA:0,_ZN5Catch12addSingletonEPNS_10ISingletonE
FNDA:0,_ZN5Catch12ratio_stringISt5ratioILl1ELl1000000000000000000EEE6symbolB5cxx11Ev
FNDA:0,_ZN5Catch12ratio_stringISt5ratioILl1ELl1000000000000000EEE6symbolB5cxx11Ev
FNDA:0,_ZN5Catch12ratio_stringISt5ratioILl1ELl1000000000000EEE6symbolB5cxx11Ev
FNDA:0,_ZN5Catch12ratio_stringISt5ratioILl1ELl1000000000EEE6symbolB5cxx11Ev
FNDA:0,_ZN5Catch12ratio_stringISt5ratioILl1ELl1000000EEE6symbolB5cxx11Ev
FNDA:0,_ZN5Catch12ratio_stringISt5ratioILl1ELl1000EEE6symbolB5cxx11Ev
FNDA:0,_ZN5Catch13JunitReporter10writeGroupERKNS_22CumulativeReporterBaseIS0_E4NodeINS_14TestGroupStatsENS3_INS_13TestCaseStatsENS2_11SectionNodeEEEEEd
FNDA:0,_ZN5Catch13JunitReporter12writeSectionERKNSt7__cxx1112basic_stringIcSt11char_traitsIcESaIcEEES8_RKNS_22CumulativeReporterBaseIS0_E11SectionNodeEb
FNDA:0,_ZN5Catch13JunitReporter13testCaseEndedERKNS_13TestCaseStatsE
FNDA:0,_ZN5Catch13JunitReporter13writeTestCaseERKNS_22CumulativeReporterBaseIS0_E4NodeINS_13TestCaseStatsENS2_11SectionNodeEEE
FNDA:0,_ZN5Catch13JunitReporter14assertionEndedERKNS_14AssertionStatsE
FNDA:0,_ZN5Catch13JunitReporter14getDescriptionB5cxx11Ev
FNDA:0,_ZN5Catch13JunitReporter14testGroupEndedERKNS_14TestGroupStatsE
FNDA:0,_ZN5Catch13JunitReporter14writeAssertionERKNS_14AssertionStatsE
FNDA:0,_ZN5Catch13JunitReporter15testRunStartingERKNS_11TestRunInfoE
FNDA:0,_ZN5Catch13JunitReporter15writeAssertionsERKNS_22CumulativeReporterBaseIS0_E11SectionNodeE
FNDA:0,_ZN5Catch13JunitReporter16testCaseStartingERKNS_12TestCaseInfoE
FNDA:0,_ZN5Catch13JunitReporter17testGroupStartingERKNS_9GroupInfoE
FNDA:0,_ZN5Catch13JunitReporter19noMatchingTestCasesERKNSt7__cxx1112basic_stringIcSt11char_traitsIcESaIcEEE
FNDA:0,_ZN5Catch13JunitReporter22testRunEndedCumulativeEv
FNDA:0,_ZN5Catch13JunitReporterC2ERKNS_14ReporterConfigE
FNDA:0,_ZN5Catch13JunitReporterD0Ev
FNDA:0,_ZN5Catch13JunitReporterD2Ev
FNDA:0,_ZN5Catch13ScopedMessageC2EOS0_
FNDA:0,_ZN5Catch13ScopedMessageC2ERKNS_14MessageBuilderE
FNDA:0,_ZN5Catch13ScopedMessageD2Ev
FNDA:0,_ZN5Catch13SummaryColumn6addRowEm
FNDA:0,_ZN5Catch13TestCaseStatsC2ERKS0_
FNDA:0,_ZN5Catch13TestCaseStatsD0Ev
FNDA:0,_ZN5Catch13listReportersEv
FNDA:0,_ZN5Catch13parseTestSpecERKNSt7__cxx1112basic_stringIcSt11char_traitsIcESaIcEEE
FNDA:0,_ZN5Catch14AssertionStatsC2ERKNS_15AssertionResultERKSt6vectorINS_11MessageInfoESaIS5_EERKNS_6TotalsE
FNDA:0,_ZN5Catch14AssertionStatsC2ERKS0_
FNDA:0,_ZN5Catch14AssertionStatsD0Ev
FNDA:0,_ZN5Catch14AssertionStatsD2Ev
FNDA:0,_ZN5Catch14IResultCaptureD0Ev
FNDA:0,_ZN5Catch14IResultCaptureD2Ev
FNDA:0,_ZN5Catch14LazyExpressionC2ERKS0_
FNDA:0,_ZN5Catch14LazyExpressionC2Eb
FNDA:0,_ZN5Catch14MessageBuilderC2ERKNS_9StringRefERKNS_14SourceLineInfoENS_9ResultWas6OfTypeE
FNDA:0,_ZN5Catch14ReporterConfigC2ERKSt10shared_ptrIKNS_7IConfigEERSo
FNDA:0,_ZN5Catch14TestGroupStatsC2ERKNS_9GroupInfoE
FNDA:0,_ZN5Catch14TestGroupStatsC2ERKS0_
FNDA:0,_ZN5Catch14TestGroupStatsD0Ev
FNDA:0,_ZN5Catch14TestGroupStatsD2Ev
FNDA:0,_ZN5Catch14TestSpecParser12saveLastModeEv
FNDA:0,_ZN5Catch14TestSpecParser12startNewModeENS0_4ModeE
FNDA:0,_ZN5Catch14TestSpecParser15processNoneCharEc
FNDA:0,_ZN5Catch14TestSpecParser16addCharToPatternEc
FNDA:0,_ZN5Catch14TestSpecParser20revertBackToLastModeEv
FNDA:0,_ZN5Catch14TestSpecParser6escapeEv
FNDA:0,_ZN5Catch14TestSpecParser8separateEv
FNDA:0,_ZN5Catch14TestSpecParser8testSpecEv
FNDA:0,_ZN5Catch14TestSpecParserC2ERKNS_17ITagAliasRegistryE
FNDA:0,_ZN5Catch14cleanUpContextEv
FNDA:0,_ZN5Catch14getRegistryHubEv
FNDA:0,_ZN5Catch14libraryVersionEv
FNDA:0,_ZN5Catch14replaceInPlaceERNSt7__cxx1112basic_stringIcSt11char_traitsIcESaIcEEERKS5_S8_
FNDA:0,_ZN5Catch14splitStringRefENS_9StringRefEc
FNDA:0,_ZN5Catch15AssertionResultC2ERKNS_13AssertionInfoERKNS_19AssertionResultDataE
FNDA:0,_ZN5Catch15CompactReporter12sectionEndedERKNS_12SectionStatsE
FNDA:0,_ZN5Catch15CompactReporter12testRunEndedERKNS_12TestRunStatsE
FNDA:0,_ZN5Catch15CompactReporter14assertionEndedERKNS_14AssertionStatsE
FNDA:0,_ZN5Catch15CompactReporter14getDescriptionB5cxx11Ev
FNDA:0,_ZN5Catch15CompactReporter17assertionStartingERKNS_13AssertionInfoE
FNDA:0,_ZN5Catch15CompactReporter19noMatchingTestCasesERKNSt7__cxx1112basic_stringIcSt11char_traitsIcESaIcEEE
FNDA:0,_ZN5Catch15CompactReporterD0Ev
FNDA:0,_ZN5Catch15CompactReporterD2Ev
FNDA:0,_ZN5Catch15ConsoleReporter14assertionEndedERKNS_14AssertionStatsE
FNDA:0,_ZN5Catch15ConsoleReporter14getDescriptionB5cxx11Ev
FNDA:0,_ZN5Catch15ConsoleReporter15printOpenHeaderERKNSt7__cxx1112basic_stringIcSt11char_traitsIcESaIcEEE
FNDA:0,_ZN5Catch15ConsoleReporter15printSummaryRowERKNSt7__cxx1112basic_stringIcSt11char_traitsIcESaIcEEERKSt6vectorINS_13SummaryColumnESaISA_EEm
FNDA:0,_ZN5Catch15ConsoleReporter16lazyPrintRunInfoEv
FNDA:0,_ZN5Catch15ConsoleReporter17printClosedHeaderERKNSt7__cxx1112basic_stringIcSt11char_traitsIcESaIcEEE
FNDA:0,_ZN5Catch15ConsoleReporter17printHeaderStringERKNSt7__cxx1112basic_stringIcSt11char_traitsIcESaIcEEEm
FNDA:0,_ZN5Catch15ConsoleReporter18lazyPrintGroupInfoEv
FNDA:0,_ZN5Catch15ConsoleReporter19noMatchingTestCasesERKNSt7__cxx1112basic_stringIcSt11char_traitsIcESaIcEEE
FNDA:0,_ZN5Catch15ConsoleReporter19printSummaryDividerEv
FNDA:0,_ZN5Catch15ConsoleReporter22reportInvalidArgumentsERKNSt7__cxx1112basic_stringIcSt11char_traitsIcESaIcEEE
FNDA:0,_ZN5Catch15ConsoleReporter29printTestCaseAndSectionHeaderEv
FNDA:0,_ZN5Catch15ConsoleReporter37lazyPrintWithoutClosingBenchmarkTableEv
FNDA:0,_ZN5Catch15ConsoleReporter9lazyPrintEv
FNDA:0,_ZN5Catch15IMutableContextD0Ev
FNDA:0,_ZN5Catch15IMutableContextD2Ev
FNDA:0,_ZN5Catch15WildcardPatternD0Ev
FNDA:0,_ZN5Catch15WildcardPatternD2Ev
FNDA:0,_ZN5Catch15throw_exceptionISt11logic_errorEEvRKT_
FNDA:0,_ZN5Catch15throw_exceptionISt12domain_errorEEvRKT_
FNDA:0,_ZN5Catch15throw_exceptionISt13runtime_errorEEvRKT_
FNDA:0,_ZN5Catch16AssertionHandler10handleExprIRKPKN8tinyxml210XMLElementEEEvRKNS_7ExprLhsIT_EE
FNDA:0,_ZN5Catch16AssertionHandler10handleExprIRKPKcEEvRKNS_7ExprLhsIT_EE
FNDA:0,_ZN5Catch16AssertionHandler10handleExprIRKPN4mfem12GridFunctionEEEvRKNS_7ExprLhsIT_EE
FNDA:0,_ZN5Catch16AssertionHandler10handleExprIRKPN4mfem18QuadratureFunctionEEEvRKNS_7ExprLhsIT_EE
FNDA:0,_ZN5Catch16AssertionHandler10handleExprIRKPN4mfem4MeshEEEvRKNS_7ExprLhsIT_EE
FNDA:0,_ZN5Catch16AssertionHandler10handleExprIbEEvRKNS_7ExprLhsIT_EE
FNDA:0,_ZN5Catch16AssertionHandler12setCompletedEv
FNDA:0,_ZN5Catch16AssertionHandler13handleMessageENS_9ResultWas6OfTypeERKNS_9StringRefE
FNDA:0,_ZN5Catch16AssertionHandler25handleThrowingCallSkippedEv
FNDA:0,_ZN5Catch16AssertionHandler31handleExceptionThrownAsExpectedEv
FNDA:0,_ZN5Catch16AssertionHandler33handleUnexpectedInflightExceptionEv
FNDA:0,_ZN5Catch16AssertionHandler34handleExceptionNotThrownAsExpectedEv
FNDA:0,_ZN5Catch16AssertionHandler34handleUnexpectedExceptionNotThrownEv
FNDA:0,_ZN5Catch16IReporterFactoryD0Ev
FNDA:0,_ZN5Catch16IReporterFactoryD2Ev
FNDA:0,_ZN5Catch16RedirectedStdErrC2Ev
FNDA:0,_ZN5Catch16RedirectedStdOutC2Ev
FNDA:0,_ZN5Catch16RedirectedStreamC2ERSoS1_
FNDA:0,_ZN5Catch16RedirectedStreamD2Ev
FNDA:0,_ZN5Catch16ReporterRegistry16registerListenerERKSt10shared_ptrINS_16IReporterFactoryEE
FNDA:0,_ZN5Catch16ReporterRegistry16registerReporterERKNSt7__cxx1112basic_stringIcSt11char_traitsIcESaIcEEERKSt10shared_ptrINS_16IReporterFactoryEE
FNDA:0,_ZN5Catch16ReporterRegistryD0Ev
FNDA:0,_ZN5Catch16ReporterRegistryD2Ev
FNDA:0,_ZN5Catch16TagAliasRegistry3addERKNSt7__cxx1112basic_stringIcSt11char_traitsIcESaIcEEES8_RKNS_14SourceLineInfoE
FNDA:0,_ZN5Catch16TagAliasRegistryD0Ev
FNDA:0,_ZN5Catch16TagAliasRegistryD2Ev
FNDA:0,_ZN5Catch16TestCaseTracking11TrackerBase10moveToThisEv
FNDA:0,_ZN5Catch16TestCaseTracking11TrackerBase12moveToParentEv
FNDA:0,_ZN5Catch16TestCaseTracking11TrackerBase23markAsNeedingAnotherRunEv
FNDA:0,_ZN5Catch16TestCaseTracking11TrackerBase4failEv
FNDA:0,_ZN5Catch16TestCaseTracking11TrackerBase4openEv
FNDA:0,_ZN5Catch16TestCaseTracking14TrackerContext10startCycleEv
FNDA:0,_ZN5Catch16TestCaseTracking14TrackerContext13completeCycleEv
FNDA:0,_ZN5Catch16TestCaseTracking14TrackerContext14currentTrackerEv
FNDA:0,_ZN5Catch16TestCaseTracking14TrackerContext17setCurrentTrackerEPNS0_8ITrackerE
FNDA:0,_ZN5Catch16TestCaseTracking14TrackerContext6endRunEv
FNDA:0,_ZN5Catch16TestCaseTracking15NameAndLocationC2ERKNSt7__cxx1112basic_stringIcSt11char_traitsIcESaIcEEERKNS_14SourceLineInfoE
FNDA:0,_ZN5Catch16TestCaseTracking8ITrackerD0Ev
FNDA:0,_ZN5Catch16TestCaseTracking8ITrackerD2Ev
FNDA:0,_ZN5Catch16isDebuggerActiveEv
FNDA:0,_ZN5Catch17IGeneratorTrackerD0Ev
FNDA:0,_ZN5Catch17IGeneratorTrackerD2Ev
FNDA:0,_ZN5Catch17IReporterRegistryD0Ev
FNDA:0,_ZN5Catch17IReporterRegistryD2Ev
FNDA:0,_ZN5Catch17ITagAliasRegistry3getEv
FNDA:0,_ZN5Catch17ITagAliasRegistryD0Ev
FNDA:0,_ZN5Catch17ITagAliasRegistryD2Ev
FNDA:0,_ZN5Catch17ITestCaseRegistryD0Ev
FNDA:0,_ZN5Catch17ITestCaseRegistryD2Ev
FNDA:0,_ZN5Catch17ListeningReporter11addListenerEOSt10unique_ptrINS_18IStreamingReporterESt14default_deleteIS2_EE
FNDA:0,_ZN5Catch17ListeningReporter11addReporterEOSt10unique_ptrINS_18IStreamingReporterESt14default_deleteIS2_EE
FNDA:0,_ZN5Catch17ListeningReporter12sectionEndedERKNS_12SectionStatsE
FNDA:0,_ZN5Catch17ListeningReporter12testRunEndedERKNS_12TestRunStatsE
FNDA:0,_ZN5Catch17ListeningReporter13testCaseEndedERKNS_13TestCaseStatsE
FNDA:0,_ZN5Catch17ListeningReporter14assertionEndedERKNS_14AssertionStatsE
FNDA:0,_ZN5Catch17ListeningReporter14testGroupEndedERKNS_14TestGroupStatsE
FNDA:0,_ZN5Catch17ListeningReporter15sectionStartingERKNS_11SectionInfoE
FNDA:0,_ZN5Catch17ListeningReporter15testRunStartingERKNS_11TestRunInfoE
FNDA:0,_ZN5Catch17ListeningReporter16testCaseStartingERKNS_12TestCaseInfoE
FNDA:0,_ZN5Catch17ListeningReporter17assertionStartingERKNS_13AssertionInfoE
FNDA:0,_ZN5Catch17ListeningReporter17testGroupStartingERKNS_9GroupInfoE
FNDA:0,_ZN5Catch17ListeningReporter19noMatchingTestCasesERKNSt7__cxx1112basic_stringIcSt11char_traitsIcESaIcEEE
FNDA:0,_ZN5Catch17ListeningReporter22reportInvalidArgumentsERKNSt7__cxx1112basic_stringIcSt11char_traitsIcESaIcEEE
FNDA:0,_ZN5Catch17ListeningReporter23getSupportedVerbositiesEv
FNDA:0,_ZN5Catch17ListeningReporter8skipTestERKNS_12TestCaseInfoE
FNDA:0,_ZN5Catch17ListeningReporterC2Ev
FNDA:0,_ZN5Catch17RedirectedStreamsC2ERNSt7__cxx1112basic_stringIcSt11char_traitsIcESaIcEEES7_
FNDA:0,_ZN5Catch17RedirectedStreamsD2Ev
FNDA:0,_ZN5Catch17throw_logic_errorERKNSt7__cxx1112basic_stringIcSt11char_traitsIcESaIcEEE
FNDA:0,_ZN5Catch18IStreamingReporter21fatalErrorEncounteredENS_9StringRefE
FNDA:0,_ZN5Catch18IStreamingReporter22reportInvalidArgumentsERKNSt7__cxx1112basic_stringIcSt11char_traitsIcESaIcEEE
FNDA:0,_ZN5Catch18listTestsNamesOnlyERKNS_6ConfigE
FNDA:0,_ZN5Catch18throw_domain_errorERKNSt7__cxx1112basic_stringIcSt11char_traitsIcESaIcEEE
FNDA:0,_ZN5Catch19AssertionResultDataC2ENS_9ResultWas6OfTypeERKNS_14LazyExpressionE
FNDA:0,_ZN5Catch19IMutableRegistryHubD0Ev
FNDA:0,_ZN5Catch19IMutableRegistryHubD2Ev
FNDA:0,_ZN5Catch19throw_runtime_errorERKNSt7__cxx1112basic_stringIcSt11char_traitsIcESaIcEEE
FNDA:0,_ZN5Catch19uncaught_exceptionsEv
FNDA:0,_ZN5Catch19writeToDebugConsoleERKNSt7__cxx1112basic_stringIcSt11char_traitsIcESaIcEEE
FNDA:0,_ZN5Catch20IExceptionTranslatorD0Ev
FNDA:0,_ZN5Catch20IExceptionTranslatorD2Ev
FNDA:0,_ZN5Catch20ITransientExpressionD0Ev
FNDA:0,_ZN5Catch20ReusableStringStreamD0Ev
FNDA:0,_ZN5Catch20getFormattedDurationB5cxx11Ed
FNDA:0,_ZN5Catch21FatalConditionHandler18disengage_platformEv
FNDA:0,_ZN5Catch21FatalConditionHandlerD2Ev
FNDA:0,_ZN5Catch21StreamingReporterBaseINS_11XmlReporterEE12sectionEndedERKNS_12SectionStatsE
FNDA:0,_ZN5Catch21StreamingReporterBaseINS_11XmlReporterEE12testRunEndedERKNS_12TestRunStatsE
FNDA:0,_ZN5Catch21StreamingReporterBaseINS_11XmlReporterEE13testCaseEndedERKNS_13TestCaseStatsE
FNDA:0,_ZN5Catch21StreamingReporterBaseINS_11XmlReporterEE14testGroupEndedERKNS_14TestGroupStatsE
FNDA:0,_ZN5Catch21StreamingReporterBaseINS_11XmlReporterEE15sectionStartingERKNS_11SectionInfoE
FNDA:0,_ZN5Catch21StreamingReporterBaseINS_11XmlReporterEE15testRunStartingERKNS_11TestRunInfoE
FNDA:0,_ZN5Catch21StreamingReporterBaseINS_11XmlReporterEE16testCaseStartingERKNS_12TestCaseInfoE
FNDA:0,_ZN5Catch21StreamingReporterBaseINS_11XmlReporterEE17testGroupStartingERKNS_9GroupInfoE
FNDA:0,_ZN5Catch21StreamingReporterBaseINS_11XmlReporterEE19noMatchingTestCasesERKNSt7__cxx1112basic_stringIcSt11char_traitsIcESaIcEEE
FNDA:0,_ZN5Catch21StreamingReporterBaseINS_11XmlReporterEE22reportInvalidArgumentsERKNSt7__cxx1112basic_stringIcSt11char_traitsIcESaIcEEE
FNDA:0,_ZN5Catch21StreamingReporterBaseINS_11XmlReporterEE8skipTestERKNS_12TestCaseInfoE
FNDA:0,_ZN5Catch21StreamingReporterBaseINS_11XmlReporterEEC2ERKNS_14ReporterConfigE
FNDA:0,_ZN5Catch21StreamingReporterBaseINS_11XmlReporterEED0Ev
FNDA:0,_ZN5Catch21StreamingReporterBaseINS_11XmlReporterEED2Ev
FNDA:0,_ZN5Catch21StreamingReporterBaseINS_15CompactReporterEE12sectionEndedERKNS_12SectionStatsE
FNDA:0,_ZN5Catch21StreamingReporterBaseINS_15CompactReporterEE12testRunEndedERKNS_12TestRunStatsE
FNDA:0,_ZN5Catch21StreamingReporterBaseINS_15CompactReporterEE13testCaseEndedERKNS_13TestCaseStatsE
FNDA:0,_ZN5Catch21StreamingReporterBaseINS_15CompactReporterEE14testGroupEndedERKNS_14TestGroupStatsE
FNDA:0,_ZN5Catch21StreamingReporterBaseINS_15CompactReporterEE15sectionStartingERKNS_11SectionInfoE
FNDA:0,_ZN5Catch21StreamingReporterBaseINS_15CompactReporterEE15testRunStartingERKNS_11TestRunInfoE
FNDA:0,_ZN5Catch21StreamingReporterBaseINS_15CompactReporterEE16testCaseStartingERKNS_12TestCaseInfoE
FNDA:0,_ZN5Catch21StreamingReporterBaseINS_15CompactReporterEE17testGroupStartingERKNS_9GroupInfoE
FNDA:0,_ZN5Catch21StreamingReporterBaseINS_15CompactReporterEE19noMatchingTestCasesERKNSt7__cxx1112basic_stringIcSt11char_traitsIcESaIcEEE
FNDA:0,_ZN5Catch21StreamingReporterBaseINS_15CompactReporterEE22reportInvalidArgumentsERKNSt7__cxx1112basic_stringIcSt11char_traitsIcESaIcEEE
FNDA:0,_ZN5Catch21StreamingReporterBaseINS_15CompactReporterEE8skipTestERKNS_12TestCaseInfoE
FNDA:0,_ZN5Catch21StreamingReporterBaseINS_15CompactReporterEEC2ERKNS_14ReporterConfigE
FNDA:0,_ZN5Catch21StreamingReporterBaseINS_15CompactReporterEED0Ev
FNDA:0,_ZN5Catch21StreamingReporterBaseINS_15CompactReporterEED2Ev
FNDA:0,_ZN5Catch21StreamingReporterBaseINS_15ConsoleReporterEE12sectionEndedERKNS_12SectionStatsE
FNDA:0,_ZN5Catch21StreamingReporterBaseINS_15ConsoleReporterEE13testCaseEndedERKNS_13TestCaseStatsE
FNDA:0,_ZN5Catch21StreamingReporterBaseINS_15ConsoleReporterEE14testGroupEndedERKNS_14TestGroupStatsE
FNDA:0,_ZN5Catch21StreamingReporterBaseINS_15ConsoleReporterEE15sectionStartingERKNS_11SectionInfoE
FNDA:0,_ZN5Catch21StreamingReporterBaseINS_15ConsoleReporterEE15testRunStartingERKNS_11TestRunInfoE
FNDA:0,_ZN5Catch21StreamingReporterBaseINS_15ConsoleReporterEE19noMatchingTestCasesERKNSt7__cxx1112basic_stringIcSt11char_traitsIcESaIcEEE
FNDA:0,_ZN5Catch21StreamingReporterBaseINS_15ConsoleReporterEE22reportInvalidArgumentsERKNSt7__cxx1112basic_stringIcSt11char_traitsIcESaIcEEE
FNDA:0,_ZN5Catch21StreamingReporterBaseINS_15ConsoleReporterEE8skipTestERKNS_12TestCaseInfoE
FNDA:0,_ZN5Catch21StreamingReporterBaseINS_15ConsoleReporterEED0Ev
FNDA:0,_ZN5Catch21StreamingReporterBaseINS_21TestEventListenerBaseEE12sectionEndedERKNS_12SectionStatsE
FNDA:0,_ZN5Catch21StreamingReporterBaseINS_21TestEventListenerBaseEE12testRunEndedERKNS_12TestRunStatsE
FNDA:0,_ZN5Catch21StreamingReporterBaseINS_21TestEventListenerBaseEE13testCaseEndedERKNS_13TestCaseStatsE
FNDA:0,_ZN5Catch21StreamingReporterBaseINS_21TestEventListenerBaseEE14testGroupEndedERKNS_14TestGroupStatsE
FNDA:0,_ZN5Catch21StreamingReporterBaseINS_21TestEventListenerBaseEE15sectionStartingERKNS_11SectionInfoE
FNDA:0,_ZN5Catch21StreamingReporterBaseINS_21TestEventListenerBaseEE15testRunStartingERKNS_11TestRunInfoE
FNDA:0,_ZN5Catch21StreamingReporterBaseINS_21TestEventListenerBaseEE16testCaseStartingERKNS_12TestCaseInfoE
FNDA:0,_ZN5Catch21StreamingReporterBaseINS_21TestEventListenerBaseEE17testGroupStartingERKNS_9GroupInfoE
FNDA:0,_ZN5Catch21StreamingReporterBaseINS_21TestEventListenerBaseEE19noMatchingTestCasesERKNSt7__cxx1112basic_stringIcSt11char_traitsIcESaIcEEE
FNDA:0,_ZN5Catch21StreamingReporterBaseINS_21TestEventListenerBaseEE22reportInvalidArgumentsERKNSt7__cxx1112basic_stringIcSt11char_traitsIcESaIcEEE
FNDA:0,_ZN5Catch21StreamingReporterBaseINS_21TestEventListenerBaseEE8skipTestERKNS_12TestCaseInfoE
FNDA:0,_ZN5Catch21StreamingReporterBaseINS_21TestEventListenerBaseEEC2ERKNS_14ReporterConfigE
FNDA:0,_ZN5Catch21StreamingReporterBaseINS_21TestEventListenerBaseEED0Ev
FNDA:0,_ZN5Catch21StreamingReporterBaseINS_21TestEventListenerBaseEED2Ev
FNDA:0,_ZN5Catch21TestEventListenerBase14assertionEndedERKNS_14AssertionStatsE
FNDA:0,_ZN5Catch21TestEventListenerBase17assertionStartingERKNS_13AssertionInfoE
FNDA:0,_ZN5Catch21TestEventListenerBase23getSupportedVerbositiesEv
FNDA:0,_ZN5Catch21TestEventListenerBaseC2ERKNS_14ReporterConfigE
FNDA:0,_ZN5Catch21TestInvokerAsFunctionC2EPFvvE
FNDA:0,_ZN5Catch21getMutableRegistryHubEv
FNDA:0,_ZN5Catch21shouldSuppressFailureEi
FNDA:0,_ZN5Catch22CumulativeReporterBaseINS_13JunitReporterEE11SectionNodeC2ERKNS_12SectionStatsE
FNDA:0,_ZN5Catch22CumulativeReporterBaseINS_13JunitReporterEE11SectionNodeD0Ev
FNDA:0,_ZN5Catch22CumulativeReporterBaseINS_13JunitReporterEE11SectionNodeD2Ev
FNDA:0,_ZN5Catch22CumulativeReporterBaseINS_13JunitReporterEE12sectionEndedERKNS_12SectionStatsE
FNDA:0,_ZN5Catch22CumulativeReporterBaseINS_13JunitReporterEE12testRunEndedERKNS_12TestRunStatsE
FNDA:0,_ZN5Catch22CumulativeReporterBaseINS_13JunitReporterEE13testCaseEndedERKNS_13TestCaseStatsE
FNDA:0,_ZN5Catch22CumulativeReporterBaseINS_13JunitReporterEE14assertionEndedERKNS_14AssertionStatsE
FNDA:0,_ZN5Catch22CumulativeReporterBaseINS_13JunitReporterEE14testGroupEndedERKNS_14TestGroupStatsE
FNDA:0,_ZN5Catch22CumulativeReporterBaseINS_13JunitReporterEE15sectionStartingERKNS_11SectionInfoE
FNDA:0,_ZN5Catch22CumulativeReporterBaseINS_13JunitReporterEE15testRunStartingERKNS_11TestRunInfoE
FNDA:0,_ZN5Catch22CumulativeReporterBaseINS_13JunitReporterEE16testCaseStartingERKNS_12TestCaseInfoE
FNDA:0,_ZN5Catch22CumulativeReporterBaseINS_13JunitReporterEE17assertionStartingERKNS_13AssertionInfoE
FNDA:0,_ZN5Catch22CumulativeReporterBaseINS_13JunitReporterEE17testGroupStartingERKNS_9GroupInfoE
FNDA:0,_ZN5Catch22CumulativeReporterBaseINS_13JunitReporterEE4NodeINS_12TestRunStatsENS3_INS_14TestGroupStatsENS3_INS_13TestCaseStatsENS2_11SectionNodeEEEEEED0Ev
FNDA:0,_ZN5Catch22CumulativeReporterBaseINS_13JunitReporterEE4NodeINS_12TestRunStatsENS3_INS_14TestGroupStatsENS3_INS_13TestCaseStatsENS2_11SectionNodeEEEEEED2Ev
FNDA:0,_ZN5Catch22CumulativeReporterBaseINS_13JunitReporterEE4NodeINS_13TestCaseStatsENS2_11SectionNodeEED0Ev
FNDA:0,_ZN5Catch22CumulativeReporterBaseINS_13JunitReporterEE4NodeINS_13TestCaseStatsENS2_11SectionNodeEED2Ev
FNDA:0,_ZN5Catch22CumulativeReporterBaseINS_13JunitReporterEE4NodeINS_14TestGroupStatsENS3_INS_13TestCaseStatsENS2_11SectionNodeEEEED0Ev
FNDA:0,_ZN5Catch22CumulativeReporterBaseINS_13JunitReporterEE4NodeINS_14TestGroupStatsENS3_INS_13TestCaseStatsENS2_11SectionNodeEEEED2Ev
FNDA:0,_ZN5Catch22CumulativeReporterBaseINS_13JunitReporterEE8skipTestERKNS_12TestCaseInfoE
FNDA:0,_ZN5Catch22CumulativeReporterBaseINS_13JunitReporterEEC2ERKNS_14ReporterConfigE
FNDA:0,_ZN5Catch22CumulativeReporterBaseINS_13JunitReporterEED0Ev
FNDA:0,_ZN5Catch22CumulativeReporterBaseINS_13JunitReporterEED2Ev
FNDA:0,_ZN5Catch22RegistrarForTagAliasesC2EPKcS2_RKNS_14SourceLineInfoE
FNDA:0,_ZN5Catch23shouldContinueOnFailureEi
FNDA:0,_ZN5Catch24StartupExceptionRegistry3addERKNSt15__exception_ptr13exception_ptrE
FNDA:0,_ZN5Catch24handleExceptionMatchExprERNS_16AssertionHandlerERKNS_8Matchers4Impl11MatcherBaseINSt7__cxx1112basic_stringIcSt11char_traitsIcESaIcEEEEERKNS_9StringRefE
FNDA:0,_ZN5Catch24handleExceptionMatchExprERNS_16AssertionHandlerERKNSt7__cxx1112basic_stringIcSt11char_traitsIcESaIcEEERKNS_9StringRefE
FNDA:0,_ZN5Catch24translateActiveExceptionB5cxx11Ev
FNDA:0,_ZN5Catch25prepareExpandedExpressionERNS_15AssertionResultE
FNDA:0,_ZN5Catch26IMutableEnumValuesRegistryD0Ev
FNDA:0,_ZN5Catch26IMutableEnumValuesRegistryD2Ev
FNDA:0,_ZN5Catch27ExceptionTranslatorRegistry18registerTranslatorEPKNS_20IExceptionTranslatorE
FNDA:0,_ZN5Catch27ExceptionTranslatorRegistryD0Ev
FNDA:0,_ZN5Catch27ExceptionTranslatorRegistryD2Ev
FNDA:0,_ZN5Catch27getEstimatedClockResolutionEv
FNDA:0,_ZN5Catch28IExceptionTranslatorRegistryD0Ev
FNDA:0,_ZN5Catch28IExceptionTranslatorRegistryD2Ev
FNDA:0,_ZN5Catch29formatReconstructedExpressionERSoRKNSt7__cxx1112basic_stringIcSt11char_traitsIcESaIcEEENS_9StringRefES8_
FNDA:0,_ZN5Catch31getCurrentNanosecondsSinceEpochEv
FNDA:0,_ZN5Catch3rngEv
FNDA:0,_ZN5Catch4cerrEv
FNDA:0,_ZN5Catch4clogEv
FNDA:0,_ZN5Catch4coutEv
FNDA:0,_ZN5Catch4isOkENS_9ResultWas6OfTypeE
FNDA:0,_ZN5Catch4trimENS_9StringRefE
FNDA:0,_ZN5Catch5Timer5startEv
FNDA:0,_ZN5Catch5clara6detail11BasicResultINS1_10ParseStateEEC2ENS1_10ResultBase4TypeERKNSt7__cxx1112basic_stringIcSt11char_traitsIcESaIcEEE
FNDA:0,_ZN5Catch5clara6detail11BasicResultINS1_10ParseStateEEC2INS1_15ParseResultTypeEEERKNS2_IT_EE
FNDA:0,_ZN5Catch5clara6detail11BasicResultINS1_10ParseStateEEC2IvEERKNS2_IT_EE
FNDA:0,_ZN5Catch5clara6detail11BasicResultINS1_15ParseResultTypeEEC2ENS1_10ResultBase4TypeERKNSt7__cxx1112basic_stringIcSt11char_traitsIcESaIcEEE
FNDA:0,_ZN5Catch5clara6detail11BasicResultIvEC2ENS1_10ResultBase4TypeERKNSt7__cxx1112basic_stringIcSt11char_traitsIcESaIcEEE
FNDA:0,_ZN5Catch5clara6detail11BoundLambdaIZNS_21makeCommandLineParserERNS_10ConfigDataEEUlRKNSt7__cxx1112basic_stringIcSt11char_traitsIcESaIcEEEE0_E8setValueESC_
FNDA:0,_ZN5Catch5clara6detail11BoundLambdaIZNS_21makeCommandLineParserERNS_10ConfigDataEEUlRKNSt7__cxx1112basic_stringIcSt11char_traitsIcESaIcEEEE1_E8setValueESC_
FNDA:0,_ZN5Catch5clara6detail11BoundLambdaIZNS_21makeCommandLineParserERNS_10ConfigDataEEUlRKNSt7__cxx1112basic_stringIcSt11char_traitsIcESaIcEEEE2_E8setValueESC_
FNDA:0,_ZN5Catch5clara6detail11BoundLambdaIZNS_21makeCommandLineParserERNS_10ConfigDataEEUlRKNSt7__cxx1112basic_stringIcSt11char_traitsIcESaIcEEEE3_E8setValueESC_
FNDA:0,_ZN5Catch5clara6detail11BoundLambdaIZNS_21makeCommandLineParserERNS_10ConfigDataEEUlRKNSt7__cxx1112basic_stringIcSt11char_traitsIcESaIcEEEE4_E8setValueESC_
FNDA:0,_ZN5Catch5clara6detail11BoundLambdaIZNS_21makeCommandLineParserERNS_10ConfigDataEEUlRKNSt7__cxx1112basic_stringIcSt11char_traitsIcESaIcEEEE5_E8setValueESC_
FNDA:0,_ZN5Catch5clara6detail11BoundLambdaIZNS_21makeCommandLineParserERNS_10ConfigDataEEUlRKNSt7__cxx1112basic_stringIcSt11char_traitsIcESaIcEEEE6_E8setValueESC_
FNDA:0,_ZN5Catch5clara6detail11BoundLambdaIZNS_21makeCommandLineParserERNS_10ConfigDataEEUlRKNSt7__cxx1112basic_stringIcSt11char_traitsIcESaIcEEEE_E8setValueESC_
FNDA:0,_ZN5Catch5clara6detail11BoundLambdaIZNS_21makeCommandLineParserERNS_10ConfigDataEEUlbE9_E8setValueERKNSt7__cxx1112basic_stringIcSt11char_traitsIcESaIcEEE
FNDA:0,_ZN5Catch5clara6detail11BoundLambdaIZNS_21makeCommandLineParserERNS_10ConfigDataEEUliE8_E8setValueERKNSt7__cxx1112basic_stringIcSt11char_traitsIcESaIcEEE
FNDA:0,_ZN5Catch5clara6detail11convertIntoERKNSt7__cxx1112basic_stringIcSt11char_traitsIcESaIcEEERb
FNDA:0,_ZN5Catch5clara6detail11convertIntoIdEENS1_11BasicResultINS1_15ParseResultTypeEEERKNSt7__cxx1112basic_stringIcSt11char_traitsIcESaIcEEERT_
FNDA:0,_ZN5Catch5clara6detail11convertIntoIiEENS1_11BasicResultINS1_15ParseResultTypeEEERKNSt7__cxx1112basic_stringIcSt11char_traitsIcESaIcEEERT_
FNDA:0,_ZN5Catch5clara6detail11convertIntoIjEENS1_11BasicResultINS1_15ParseResultTypeEEERKNSt7__cxx1112basic_stringIcSt11char_traitsIcESaIcEEERT_
FNDA:0,_ZN5Catch5clara6detail11convertIntoIlEENS1_11BasicResultINS1_15ParseResultTypeEEERKNSt7__cxx1112basic_stringIcSt11char_traitsIcESaIcEEERT_
FNDA:0,_ZN5Catch5clara6detail12BoundFlagRef7setFlagEb
FNDA:0,_ZN5Catch5clara6detail12invokeLambdaINSt7__cxx1112basic_stringIcSt11char_traitsIcESaIcEEEZNS_21makeCommandLineParserERNS_10ConfigDataEEUlRKS8_E0_EENS1_11BasicResultINS1_15ParseResultTypeEEERKT0_SC_
FNDA:0,_ZN5Catch5clara6detail12invokeLambdaINSt7__cxx1112basic_stringIcSt11char_traitsIcESaIcEEEZNS_21makeCommandLineParserERNS_10ConfigDataEEUlRKS8_E1_EENS1_11BasicResultINS1_15ParseResultTypeEEERKT0_SC_
FNDA:0,_ZN5Catch5clara6detail12invokeLambdaINSt7__cxx1112basic_stringIcSt11char_traitsIcESaIcEEEZNS_21makeCommandLineParserERNS_10ConfigDataEEUlRKS8_E2_EENS1_11BasicResultINS1_15ParseResultTypeEEERKT0_SC_
FNDA:0,_ZN5Catch5clara6detail12invokeLambdaINSt7__cxx1112basic_stringIcSt11char_traitsIcESaIcEEEZNS_21makeCommandLineParserERNS_10ConfigDataEEUlRKS8_E3_EENS1_11BasicResultINS1_15ParseResultTypeEEERKT0_SC_
FNDA:0,_ZN5Catch5clara6detail12invokeLambdaINSt7__cxx1112basic_stringIcSt11char_traitsIcESaIcEEEZNS_21makeCommandLineParserERNS_10ConfigDataEEUlRKS8_E4_EENS1_11BasicResultINS1_15ParseResultTypeEEERKT0_SC_
FNDA:0,_ZN5Catch5clara6detail12invokeLambdaINSt7__cxx1112basic_stringIcSt11char_traitsIcESaIcEEEZNS_21makeCommandLineParserERNS_10ConfigDataEEUlRKS8_E5_EENS1_11BasicResultINS1_15ParseResultTypeEEERKT0_SC_
FNDA:0,_ZN5Catch5clara6detail12invokeLambdaINSt7__cxx1112basic_stringIcSt11char_traitsIcESaIcEEEZNS_21makeCommandLineParserERNS_10ConfigDataEEUlRKS8_E6_EENS1_11BasicResultINS1_15ParseResultTypeEEERKT0_SC_
FNDA:0,_ZN5Catch5clara6detail12invokeLambdaINSt7__cxx1112basic_stringIcSt11char_traitsIcESaIcEEEZNS_21makeCommandLineParserERNS_10ConfigDataEEUlRKS8_E_EENS1_11BasicResultINS1_15ParseResultTypeEEERKT0_SC_
FNDA:0,_ZN5Catch5clara6detail12invokeLambdaIbZNS_21makeCommandLineParserERNS_10ConfigDataEEUlbE9_EENS1_11BasicResultINS1_15ParseResultTypeEEERKT0_RKNSt7__cxx1112basic_stringIcSt11char_traitsIcESaIcEEE
FNDA:0,_ZN5Catch5clara6detail12invokeLambdaIiZNS_21makeCommandLineParserERNS_10ConfigDataEEUliE8_EENS1_11BasicResultINS1_15ParseResultTypeEEERKT0_RKNSt7__cxx1112basic_stringIcSt11char_traitsIcESaIcEEE
FNDA:0,_ZN5Catch5clara6detail13BoundValueRefIdE8setValueERKNSt7__cxx1112basic_stringIcSt11char_traitsIcESaIcEEE
FNDA:0,_ZN5Catch5clara6detail13BoundValueRefIjE8setValueERKNSt7__cxx1112basic_stringIcSt11char_traitsIcESaIcEEE
FNDA:0,_ZN5Catch5clara6detail13BoundValueRefIlE8setValueERKNSt7__cxx1112basic_stringIcSt11char_traitsIcESaIcEEE
FNDA:0,_ZN5Catch5clara6detail15BoundFlagLambdaIZNS1_4HelpC4ERbEUlbE_E7setFlagEb
FNDA:0,_ZN5Catch5clara6detail15BoundFlagLambdaIZNS_21makeCommandLineParserERNS_10ConfigDataEEUlbE7_E7setFlagEb
FNDA:0,_ZN5Catch5clara8TextFlow12isWhitespaceEc
FNDA:0,_ZN5Catch5clara8TextFlow16isBreakableAfterEc
FNDA:0,_ZN5Catch5clara8TextFlow17isBreakableBeforeEc
FNDA:0,_ZN5Catch5clara8TextFlow6Column8iterator10calcLengthEv
FNDA:0,_ZN5Catch5clara8TextFlow6Column8iteratorC2ERKS2_
FNDA:0,_ZN5Catch5clara8TextFlow6Column8iteratorppEv
FNDA:0,_ZN5Catch5clara8TextFlow6ColumnC2ERKNSt7__cxx1112basic_stringIcSt11char_traitsIcESaIcEEE
FNDA:0,_ZN5Catch5clara8TextFlow6ColumnplERKS2_
FNDA:0,_ZN5Catch5clara8TextFlow6SpacerC2Em
FNDA:0,_ZN5Catch5clara8TextFlow7Columns8iteratorC2ERKS2_
FNDA:0,_ZN5Catch5clara8TextFlow7Columns8iteratorC2ERKS2_NS3_6EndTagE
FNDA:0,_ZN5Catch5clara8TextFlow7Columns8iteratorppEv
FNDA:0,_ZN5Catch5clara8TextFlow7ColumnsplERKNS1_6ColumnE
FNDA:0,_ZN5Catch5clara8TextFlowlsERSoRKNS1_6ColumnE
FNDA:0,_ZN5Catch5clara8TextFlowlsERSoRKNS1_7ColumnsE
FNDA:0,_ZN5Catch5isnanEd
FNDA:0,_ZN5Catch5isnanEf
FNDA:0,_ZN5Catch6ColourC2ENS0_4CodeE
FNDA:0,_ZN5Catch6ColourC2EOS0_
FNDA:0,_ZN5Catch6ColourD2Ev
FNDA:0,_ZN5Catch6ColouraSEOS0_
FNDA:0,_ZN5Catch6Config10openStreamEv
FNDA:0,_ZN5Catch6ConfigD0Ev
FNDA:0,_ZN5Catch6CountspLERKS0_
FNDA:0,_ZN5Catch6Detail10parseEnumsENS_9StringRefE
FNDA:0,_ZN5Catch6Detail12_GLOBAL__N_110CoutStreamD2Ev
FNDA:0,_ZN5Catch6Detail12_GLOBAL__N_110FileStreamC2ENS_9StringRefE
FNDA:0,_ZN5Catch6Detail12_GLOBAL__N_110FileStreamD0Ev
FNDA:0,_ZN5Catch6Detail12_GLOBAL__N_110FileStreamD2Ev
FNDA:0,_ZN5Catch6Detail12_GLOBAL__N_113StreamBufImplINS1_17OutputDebugWriterELm256EE4syncEv
FNDA:0,_ZN5Catch6Detail12_GLOBAL__N_113StreamBufImplINS1_17OutputDebugWriterELm256EE8overflowEi
FNDA:0,_ZN5Catch6Detail12_GLOBAL__N_113StreamBufImplINS1_17OutputDebugWriterELm256EED0Ev
FNDA:0,_ZN5Catch6Detail12_GLOBAL__N_113StreamBufImplINS1_17OutputDebugWriterELm256EED2Ev
FNDA:0,_ZN5Catch6Detail12_GLOBAL__N_114DebugOutStreamC2Ev
FNDA:0,_ZN5Catch6Detail12_GLOBAL__N_114DebugOutStreamD0Ev
FNDA:0,_ZN5Catch6Detail12_GLOBAL__N_114DebugOutStreamD2Ev
FNDA:0,_ZN5Catch6Detail12_GLOBAL__N_119extractInstanceNameENS_9StringRefE
FNDA:0,_ZN5Catch6Detail12makeEnumInfoENS_9StringRefES1_RKSt6vectorIiSaIiEE
FNDA:0,_ZN5Catch6Detail17rawMemoryToStringB5cxx11EPKvm
FNDA:0,_ZN5Catch6Detail18EnumValuesRegistry12registerEnumENS_9StringRefES2_RKSt6vectorIiSaIiEE
FNDA:0,_ZN5Catch6Detail6Approx10setEpsilonEd
FNDA:0,_ZN5Catch6Detail6Approx6customEv
FNDA:0,_ZN5Catch6Detail6Approx9setMarginEd
FNDA:0,_ZN5Catch6Detail6ApproxC2Ed
FNDA:0,_ZN5Catch6Detail8EnumInfoD2Ev
FNDA:0,_ZN5Catch6OptionINS_15AssertionResultEEaSERKS1_
FNDA:0,_ZN5Catch6TotalspLERKS0_
FNDA:0,_ZN5Catch7AutoRegD0Ev
FNDA:0,_ZN5Catch7Context9getRunnerEv
FNDA:0,_ZN5Catch7ContextD2Ev
FNDA:0,_ZN5Catch7ExprLhsIRKNSt7__cxx1112basic_stringIcSt11char_traitsIcESaIcEEEEeqIS6_EEKNS_10BinaryExprIS8_RKT_EESE_
FNDA:0,_ZN5Catch7ExprLhsIRKdEeqINS_6Detail6ApproxEEEKNS_10BinaryExprIS2_RKT_EESA_
FNDA:0,_ZN5Catch7ExprLhsIRKdEgeINS_6Detail6ApproxEEEKNS_10BinaryExprIS2_RKT_EESA_
FNDA:0,_ZN5Catch7IConfigD0Ev
FNDA:0,_ZN5Catch7IConfigD2Ev
FNDA:0,_ZN5Catch7IRunnerD0Ev
FNDA:0,_ZN5Catch7IRunnerD2Ev
FNDA:0,_ZN5Catch7IStreamD0Ev
FNDA:0,_ZN5Catch7IStreamD2Ev
FNDA:0,_ZN5Catch7SectionD0Ev
FNDA:0,_ZN5Catch7Session10configDataEv
FNDA:0,_ZN5Catch7Session11libIdentifyEv
FNDA:0,_ZN5Catch7Session3cliERKNS_5clara6detail6ParserE
FNDA:0,_ZN5Catch7SessionD0Ev
FNDA:0,_ZN5Catch7TagInfo3addERKNSt7__cxx1112basic_stringIcSt11char_traitsIcESaIcEEE
FNDA:0,_ZN5Catch7VersionC2EjjjPKcj
FNDA:0,_ZN5Catch7rngSeedEv
FNDA:0,_ZN5Catch8Capturer12captureValueEmRKNSt7__cxx1112basic_stringIcSt11char_traitsIcESaIcEEE
FNDA:0,_ZN5Catch8Capturer13captureValuesIN4mfem13FiniteElement7MapTypeEEEvmRKT_
FNDA:0,_ZN5Catch8Capturer13captureValuesIN4mfem9BasisTypeUt_EEEvmRKT_
FNDA:0,_ZN5Catch8Capturer13captureValuesINSt7__cxx1112basic_stringIcSt11char_traitsIcESaIcEEEJibiiibEEEvmRKT_DpRKT0_
FNDA:0,_ZN5Catch8Capturer13captureValuesINSt7__cxx1112basic_stringIcSt11char_traitsIcESaIcEEEJiiEEEvmRKT_DpRKT0_
FNDA:0,_ZN5Catch8Capturer13captureValuesINSt7__cxx1112basic_stringIcSt11char_traitsIcESaIcEEEJiiiEEEvmRKT_DpRKT0_
FNDA:0,_ZN5Catch8Capturer13captureValuesIPKcJiN4mfem9BasisTypeUt_EEEEvmRKT_DpRKT0_
FNDA:0,_ZN5Catch8Capturer13captureValuesIPKcJiiEEEvmRKT_DpRKT0_
FNDA:0,_ZN5Catch8Capturer13captureValuesIPKcJiiN4mfem13FiniteElement7MapTypeEEEEvmRKT_DpRKT0_
FNDA:0,_ZN5Catch8Capturer13captureValuesIPKcJiiiiibbEEEvmRKT_DpRKT0_
FNDA:0,_ZN5Catch8Capturer13captureValuesIbEEvmRKT_
FNDA:0,_ZN5Catch8Capturer13captureValuesIbJbEEEvmRKT_DpRKT0_
FNDA:0,_ZN5Catch8Capturer13captureValuesIbJiiibEEEvmRKT_DpRKT0_
FNDA:0,_ZN5Catch8Capturer13captureValuesIdEEvmRKT_
FNDA:0,_ZN5Catch8Capturer13captureValuesIdJdEEEvmRKT_DpRKT0_
FNDA:0,_ZN5Catch8Capturer13captureValuesIdJiEEEvmRKT_DpRKT0_
FNDA:0,_ZN5Catch8Capturer13captureValuesIiEEvmRKT_
FNDA:0,_ZN5Catch8Capturer13captureValuesIiJN4mfem13FiniteElement7MapTypeEEEEvmRKT_DpRKT0_
FNDA:0,_ZN5Catch8Capturer13captureValuesIiJN4mfem9BasisTypeUt_EEEEvmRKT_DpRKT0_
FNDA:0,_ZN5Catch8Capturer13captureValuesIiJbEEEvmRKT_DpRKT0_
FNDA:0,_ZN5Catch8Capturer13captureValuesIiJbbEEEvmRKT_DpRKT0_
FNDA:0,_ZN5Catch8Capturer13captureValuesIiJbiiibEEEvmRKT_DpRKT0_
FNDA:0,_ZN5Catch8Capturer13captureValuesIiJdEEEvmRKT_DpRKT0_
FNDA:0,_ZN5Catch8Capturer13captureValuesIiJiEEEvmRKT_DpRKT0_
FNDA:0,_ZN5Catch8Capturer13captureValuesIiJiN4mfem13FiniteElement7MapTypeEEEEvmRKT_DpRKT0_
FNDA:0,_ZN5Catch8Capturer13captureValuesIiJibEEEvmRKT_DpRKT0_
FNDA:0,_ZN5Catch8Capturer13captureValuesIiJibbEEEvmRKT_DpRKT0_
FNDA:0,_ZN5Catch8Capturer13captureValuesIiJidEEEvmRKT_DpRKT0_
FNDA:0,_ZN5Catch8Capturer13captureValuesIiJiiEEEvmRKT_DpRKT0_
FNDA:0,_ZN5Catch8Capturer13captureValuesIiJiibEEEvmRKT_DpRKT0_
FNDA:0,_ZN5Catch8Capturer13captureValuesIiJiibbEEEvmRKT_DpRKT0_
FNDA:0,_ZN5Catch8Capturer13captureValuesIiJiiiEEEvmRKT_DpRKT0_
FNDA:0,_ZN5Catch8Capturer13captureValuesIiJiiibbEEEvmRKT_DpRKT0_
FNDA:0,_ZN5Catch8Capturer13captureValuesIiJiiiiEEEvmRKT_DpRKT0_
FNDA:0,_ZN5Catch8Capturer13captureValuesIiJiiiibbEEEvmRKT_DpRKT0_
FNDA:0,_ZN5Catch8CapturerC2ENS_9StringRefERKNS_14SourceLineInfoENS_9ResultWas6OfTypeES1_
FNDA:0,_ZN5Catch8CapturerD2Ev
FNDA:0,_ZN5Catch8IContextD0Ev
FNDA:0,_ZN5Catch8IContextD2Ev
FNDA:0,_ZN5Catch8Matchers10StartsWithERKNSt7__cxx1112basic_stringIcSt11char_traitsIcESaIcEEENS_13CaseSensitive6ChoiceE
FNDA:0,_ZN5Catch8Matchers4Impl18MatcherUntypedBaseD0Ev
FNDA:0,_ZN5Catch8Matchers4Impl18MatcherUntypedBaseD2Ev
FNDA:0,_ZN5Catch8Matchers6EqualsERKNSt7__cxx1112basic_stringIcSt11char_traitsIcESaIcEEENS_13CaseSensitive6ChoiceE
FNDA:0,_ZN5Catch8Matchers7Generic6Detail19finalizeDescriptionERKNSt7__cxx1112basic_stringIcSt11char_traitsIcESaIcEEE
FNDA:0,_ZN5Catch8Matchers7MatchesERKNSt7__cxx1112basic_stringIcSt11char_traitsIcESaIcEEENS_13CaseSensitive6ChoiceE
FNDA:0,_ZN5Catch8Matchers7MessageERKNSt7__cxx1112basic_stringIcSt11char_traitsIcESaIcEEE
FNDA:0,_ZN5Catch8Matchers8ContainsERKNSt7__cxx1112basic_stringIcSt11char_traitsIcESaIcEEENS_13CaseSensitive6ChoiceE
FNDA:0,_ZN5Catch8Matchers8EndsWithERKNSt7__cxx1112basic_stringIcSt11char_traitsIcESaIcEEENS_13CaseSensitive6ChoiceE
FNDA:0,_ZN5Catch8Matchers8Floating16WithinAbsMatcherC2Edd
FNDA:0,_ZN5Catch8Matchers8Floating16WithinRelMatcherC2Edd
FNDA:0,_ZN5Catch8Matchers8Floating17WithinUlpsMatcherC2EdmNS1_17FloatingPointKindE
FNDA:0,_ZN5Catch8Matchers9Exception23ExceptionMessageMatcherC2ERKNSt7__cxx1112basic_stringIcSt11char_traitsIcESaIcEEE
FNDA:0,_ZN5Catch8Matchers9StdString11CasedStringC2ERKNSt7__cxx1112basic_stringIcSt11char_traitsIcESaIcEEENS_13CaseSensitive6ChoiceE
FNDA:0,_ZN5Catch8Matchers9StdString12RegexMatcherC2ENSt7__cxx1112basic_stringIcSt11char_traitsIcESaIcEEENS_13CaseSensitive6ChoiceE
FNDA:0,_ZN5Catch8Matchers9StdString13EqualsMatcherC2ERKNS1_11CasedStringE
FNDA:0,_ZN5Catch8Matchers9StdString15ContainsMatcherC2ERKNS1_11CasedStringE
FNDA:0,_ZN5Catch8Matchers9StdString15EndsWithMatcherC2ERKNS1_11CasedStringE
FNDA:0,_ZN5Catch8Matchers9StdString17StartsWithMatcherC2ERKNS1_11CasedStringE
FNDA:0,_ZN5Catch8Matchers9StdString17StringMatcherBaseC2ERKNSt7__cxx1112basic_stringIcSt11char_traitsIcESaIcEEERKNS1_11CasedStringE
FNDA:0,_ZN5Catch8Matchers9WithinAbsEdd
FNDA:0,_ZN5Catch8Matchers9WithinRelEd
FNDA:0,_ZN5Catch8Matchers9WithinRelEdd
FNDA:0,_ZN5Catch8Matchers9WithinRelEf
FNDA:0,_ZN5Catch8Matchers9WithinRelEff
FNDA:0,_ZN5Catch8Matchers9WithinULPEdm
FNDA:0,_ZN5Catch8Matchers9WithinULPEfm
FNDA:0,_ZN5Catch8TagAliasC2ERKNSt7__cxx1112basic_stringIcSt11char_traitsIcESaIcEEENS_14SourceLineInfoE
FNDA:0,_ZN5Catch8TestSpec7PatternC2ERKNSt7__cxx1112basic_stringIcSt11char_traitsIcESaIcEEE
FNDA:0,_ZN5Catch8TestSpec7PatternD0Ev
FNDA:0,_ZN5Catch8TestSpec7PatternD2Ev
FNDA:0,_ZN5Catch8containsERKNSt7__cxx1112basic_stringIcSt11char_traitsIcESaIcEEES7_
FNDA:0,_ZN5Catch8endsWithERKNSt7__cxx1112basic_stringIcSt11char_traitsIcESaIcEEES7_
FNDA:0,_ZN5Catch8endsWithERKNSt7__cxx1112basic_stringIcSt11char_traitsIcESaIcEEEc
FNDA:0,_ZN5Catch8listTagsERKNS_6ConfigE
FNDA:0,_ZN5Catch8literalsli2_aEe
FNDA:0,_ZN5Catch8literalsli2_aEy
FNDA:0,_ZN5Catch9GroupInfoC2ERKNSt7__cxx1112basic_stringIcSt11char_traitsIcESaIcEEEmm
FNDA:0,_ZN5Catch9XmlEncodeC2ERKNSt7__cxx1112basic_stringIcSt11char_traitsIcESaIcEEENS0_7ForWhatE
FNDA:0,_ZN5Catch9XmlWriter10endElementENS_13XmlFormattingE
FNDA:0,_ZN5Catch9XmlWriter12startElementERKNSt7__cxx1112basic_stringIcSt11char_traitsIcESaIcEEENS_13XmlFormattingE
FNDA:0,_ZN5Catch9XmlWriter12writeCommentERKNSt7__cxx1112basic_stringIcSt11char_traitsIcESaIcEEENS_13XmlFormattingE
FNDA:0,_ZN5Catch9XmlWriter13ScopedElement9writeTextERKNSt7__cxx1112basic_stringIcSt11char_traitsIcESaIcEEENS_13XmlFormattingE
FNDA:0,_ZN5Catch9XmlWriter13ScopedElementC2EOS1_
FNDA:0,_ZN5Catch9XmlWriter13ScopedElementC2EPS0_NS_13XmlFormattingE
FNDA:0,_ZN5Catch9XmlWriter13ScopedElementD2Ev
FNDA:0,_ZN5Catch9XmlWriter13ScopedElementaSEOS1_
FNDA:0,_ZN5Catch9XmlWriter13scopedElementERKNSt7__cxx1112basic_stringIcSt11char_traitsIcESaIcEEENS_13XmlFormattingE
FNDA:0,_ZN5Catch9XmlWriter14writeAttributeERKNSt7__cxx1112basic_stringIcSt11char_traitsIcESaIcEEES8_
FNDA:0,_ZN5Catch9XmlWriter14writeAttributeERKNSt7__cxx1112basic_stringIcSt11char_traitsIcESaIcEEEb
FNDA:0,_ZN5Catch9XmlWriter14writeAttributeIA12_cEERS0_RKNSt7__cxx1112basic_stringIcSt11char_traitsIcESaIcEEERKT_
FNDA:0,_ZN5Catch9XmlWriter14writeAttributeIA1_cEERS0_RKNSt7__cxx1112basic_stringIcSt11char_traitsIcESaIcEEERKT_
FNDA:0,_ZN5Catch9XmlWriter14writeAttributeIA31_cEERS0_RKNSt7__cxx1112basic_stringIcSt11char_traitsIcESaIcEEERKT_
FNDA:0,_ZN5Catch9XmlWriter14writeAttributeIA4_cEERS0_RKNSt7__cxx1112basic_stringIcSt11char_traitsIcESaIcEEERKT_
FNDA:0,_ZN5Catch9XmlWriter14writeAttributeIA5_cEERS0_RKNSt7__cxx1112basic_stringIcSt11char_traitsIcESaIcEEERKT_
FNDA:0,_ZN5Catch9XmlWriter14writeAttributeIA8_cEERS0_RKNSt7__cxx1112basic_stringIcSt11char_traitsIcESaIcEEERKT_
FNDA:0,_ZN5Catch9XmlWriter14writeAttributeINS_9StringRefEEERS0_RKNSt7__cxx1112basic_stringIcSt11char_traitsIcESaIcEEERKT_
FNDA:0,_ZN5Catch9XmlWriter14writeAttributeIPKcEERS0_RKNSt7__cxx1112basic_stringIcSt11char_traitsIcESaIcEEERKT_
FNDA:0,_ZN5Catch9XmlWriter14writeAttributeIdEERS0_RKNSt7__cxx1112basic_stringIcSt11char_traitsIcESaIcEEERKT_
FNDA:0,_ZN5Catch9XmlWriter14writeAttributeIjEERS0_RKNSt7__cxx1112basic_stringIcSt11char_traitsIcESaIcEEERKT_
FNDA:0,_ZN5Catch9XmlWriter14writeAttributeImEERS0_RKNSt7__cxx1112basic_stringIcSt11char_traitsIcESaIcEEERKT_
FNDA:0,_ZN5Catch9XmlWriter14writeBlankLineEv
FNDA:0,_ZN5Catch9XmlWriter15applyFormattingENS_13XmlFormattingE
FNDA:0,_ZN5Catch9XmlWriter15ensureTagClosedEv
FNDA:0,_ZN5Catch9XmlWriter16writeDeclarationEv
FNDA:0,_ZN5Catch9XmlWriter18newlineIfNecessaryEv
FNDA:0,_ZN5Catch9XmlWriter18writeStylesheetRefERKNSt7__cxx1112basic_stringIcSt11char_traitsIcESaIcEEE
FNDA:0,_ZN5Catch9XmlWriter9writeTextERKNSt7__cxx1112basic_stringIcSt11char_traitsIcESaIcEEENS_13XmlFormattingE
FNDA:0,_ZN5Catch9XmlWriterC2ERSo
FNDA:0,_ZN5Catch9XmlWriterD2Ev
FNDA:0,_ZN5Catch9listTestsERKNS_6ConfigE
FNDA:0,_ZN5Catch9matchTestERKNS_8TestCaseERKNS_8TestSpecERKNS_7IConfigE
FNDA:0,_ZN5Catch9pluraliseC2EmRKNSt7__cxx1112basic_stringIcSt11char_traitsIcESaIcEEE
FNDA:0,_ZN5CatchL12handleSignalEi
FNDA:0,_ZN5CatchanENS_13XmlFormattingES0_
FNDA:0,_ZN5CatcheqERKNS_11SimplePcg32ES2_
FNDA:0,_ZN5CatchlsERSoRKNS_14LazyExpressionE
FNDA:0,_ZN5CatchlsERSoRKNS_14SourceLineInfoE
FNDA:0,_ZN5CatchlsERSoRKNS_6ColourE
FNDA:0,_ZN5CatchlsERSoRKNS_7VersionE
FNDA:0,_ZN5CatchlsERSoRKNS_9StringRefE
FNDA:0,_ZN5CatchlsERSoRKNS_9XmlEncodeE
FNDA:0,_ZN5CatchneERKNS_11SimplePcg32ES2_
FNDA:0,_ZN5CatchorENS_13XmlFormattingES0_
FNDA:0,_ZN5CatchorENS_17ResultDisposition5FlagsES1_
FNDA:0,_ZN5CatchpLERNSt7__cxx1112basic_stringIcSt11char_traitsIcESaIcEEERKNS_9StringRefE
FNDA:0,_ZNK5Catch10BinaryExprIRKN4mfem10MemoryTypeES4_E29streamReconstructedExpressionERSo
FNDA:0,_ZNK5Catch10BinaryExprIRKN4mfem8Geometry4TypeES5_E29streamReconstructedExpressionERSo
FNDA:0,_ZNK5Catch10BinaryExprIRKN8tinyxml28XMLErrorES4_E29streamReconstructedExpressionERSo
FNDA:0,_ZNK5Catch10BinaryExprIRKNSt7__cxx1112basic_stringIcSt11char_traitsIcESaIcEEES8_E29streamReconstructedExpressionERSo
FNDA:0,_ZNK5Catch10BinaryExprIRKPKN4mfem15FaceRestrictionERKDnE29streamReconstructedExpressionERSo
FNDA:0,_ZNK5Catch10BinaryExprIRKPKN8tinyxml210XMLElementERKDnE29streamReconstructedExpressionERSo
FNDA:0,_ZNK5Catch10BinaryExprIRKPKdRKPdE29streamReconstructedExpressionERSo
FNDA:0,_ZNK5Catch10BinaryExprIRKPN4mfem12GridFunctionERKDnE29streamReconstructedExpressionERSo
FNDA:0,_ZNK5Catch10BinaryExprIRKPN4mfem12SparseMatrixERKlE29streamReconstructedExpressionERSo
FNDA:0,_ZNK5Catch10BinaryExprIRKPN4mfem14HypreParMatrixERKlE29streamReconstructedExpressionERSo
FNDA:0,_ZNK5Catch10BinaryExprIRKPN4mfem4MeshES5_E29streamReconstructedExpressionERSo
FNDA:0,_ZNK5Catch10BinaryExprIRKPdRKDnE29streamReconstructedExpressionERSo
FNDA:0,_ZNK5Catch10BinaryExprIRKPdS3_E29streamReconstructedExpressionERSo
FNDA:0,_ZNK5Catch10BinaryExprIRKdRKNS_6Detail6ApproxEE29streamReconstructedExpressionERSo
FNDA:0,_ZNK5Catch10BinaryExprIRKdRKiE29streamReconstructedExpressionERSo
FNDA:0,_ZNK5Catch10BinaryExprIRKdS2_E29streamReconstructedExpressionERSo
FNDA:0,_ZNK5Catch10BinaryExprIRKiRKdE29streamReconstructedExpressionERSo
FNDA:0,_ZNK5Catch10BinaryExprIRKiS2_E29streamReconstructedExpressionERSo
FNDA:0,_ZNK5Catch10BinaryExprIRKmS2_E29streamReconstructedExpressionERSo
FNDA:0,_ZNK5Catch10BinaryExprIbbE29streamReconstructedExpressionERSo
FNDA:0,_ZNK5Catch10Generators10GeneratorsI8VecSpaceE3getEv
FNDA:0,_ZNK5Catch10Generators10GeneratorsIN15ParSubMeshTests7FECTypeEE3getEv
FNDA:0,_ZNK5Catch10Generators10GeneratorsIN15assembly_levels7ProblemEE3getEv
FNDA:0,_ZNK5Catch10Generators10GeneratorsIN17LinearFormExtTestUt_EE3getEv
FNDA:0,_ZNK5Catch10Generators10GeneratorsIN18sparse_matrix_test5CoeffEE3getEv
FNDA:0,_ZNK5Catch10Generators10GeneratorsIN18sparse_matrix_test7ProblemEE3getEv
FNDA:0,_ZNK5Catch10Generators10GeneratorsIN21face_restriction_test9SpaceTypeEE3getEv
FNDA:0,_ZNK5Catch10Generators10GeneratorsIN4mfem10RefinementUt_EE3getEv
FNDA:0,_ZNK5Catch10Generators10GeneratorsIN4mfem13AssemblyLevelEE3getEv
FNDA:0,_ZNK5Catch10Generators10GeneratorsIN4mfem13FiniteElement7MapTypeEE3getEv
FNDA:0,_ZNK5Catch10Generators10GeneratorsIN4mfem13QVectorLayoutEE3getEv
FNDA:0,_ZNK5Catch10Generators10GeneratorsIN4mfem8Ordering4TypeEE3getEv
FNDA:0,_ZNK5Catch10Generators10GeneratorsIN4mfem9BasisTypeUt_EE3getEv
FNDA:0,_ZNK5Catch10Generators10GeneratorsIRA21_KcE3getEv
FNDA:0,_ZNK5Catch10Generators10GeneratorsIRA24_KcE3getEv
FNDA:0,_ZNK5Catch10Generators10GeneratorsIRA27_KcE3getEv
FNDA:0,_ZNK5Catch10Generators10GeneratorsIRA28_KcE3getEv
FNDA:0,_ZNK5Catch10Generators10GeneratorsIRA32_KcE3getEv
FNDA:0,_ZNK5Catch10Generators10GeneratorsIZN11lor_batchedL20C_A_T_C_H_T_E_S_T_15EvE9SpaceTypeE3getEv
FNDA:0,_ZNK5Catch10Generators10GeneratorsIbE3getEv
FNDA:0,_ZNK5Catch10Generators10GeneratorsIiE3getEv
FNDA:0,_ZNK5Catch10Generators14RangeGeneratorIiE3getEv
FNDA:0,_ZNK5Catch10Generators20SingleValueGeneratorI8VecSpaceE3getEv
FNDA:0,_ZNK5Catch10Generators20SingleValueGeneratorIN15ParSubMeshTests7FECTypeEE3getEv
FNDA:0,_ZNK5Catch10Generators20SingleValueGeneratorIN15assembly_levels7ProblemEE3getEv
FNDA:0,_ZNK5Catch10Generators20SingleValueGeneratorIN17LinearFormExtTestUt_EE3getEv
FNDA:0,_ZNK5Catch10Generators20SingleValueGeneratorIN18sparse_matrix_test5CoeffEE3getEv
FNDA:0,_ZNK5Catch10Generators20SingleValueGeneratorIN18sparse_matrix_test7ProblemEE3getEv
FNDA:0,_ZNK5Catch10Generators20SingleValueGeneratorIN21face_restriction_test9SpaceTypeEE3getEv
FNDA:0,_ZNK5Catch10Generators20SingleValueGeneratorIN4mfem10RefinementUt_EE3getEv
FNDA:0,_ZNK5Catch10Generators20SingleValueGeneratorIN4mfem13AssemblyLevelEE3getEv
FNDA:0,_ZNK5Catch10Generators20SingleValueGeneratorIN4mfem13FiniteElement7MapTypeEE3getEv
FNDA:0,_ZNK5Catch10Generators20SingleValueGeneratorIN4mfem13QVectorLayoutEE3getEv
FNDA:0,_ZNK5Catch10Generators20SingleValueGeneratorIN4mfem8Ordering4TypeEE3getEv
FNDA:0,_ZNK5Catch10Generators20SingleValueGeneratorIN4mfem9BasisTypeUt_EE3getEv
FNDA:0,_ZNK5Catch10Generators20SingleValueGeneratorIRA21_KcE3getEv
FNDA:0,_ZNK5Catch10Generators20SingleValueGeneratorIRA24_KcE3getEv
FNDA:0,_ZNK5Catch10Generators20SingleValueGeneratorIRA27_KcE3getEv
FNDA:0,_ZNK5Catch10Generators20SingleValueGeneratorIRA28_KcE3getEv
FNDA:0,_ZNK5Catch10Generators20SingleValueGeneratorIRA32_KcE3getEv
FNDA:0,_ZNK5Catch10Generators20SingleValueGeneratorIZN11lor_batchedL20C_A_T_C_H_T_E_S_T_15EvE9SpaceTypeE3getEv
FNDA:0,_ZNK5Catch10Generators20SingleValueGeneratorIbE3getEv
FNDA:0,_ZNK5Catch10Generators20SingleValueGeneratorIiE3getEv
FNDA:0,_ZNK5Catch10RunContext13getLastResultEv
FNDA:0,_ZNK5Catch10RunContext18getCurrentTestNameB5cxx11Ev
FNDA:0,_ZNK5Catch10RunContext6configEv
FNDA:0,_ZNK5Catch10RunContext8abortingEv
FNDA:0,_ZNK5Catch10RunContext8reporterEv
FNDA:0,_ZNK5Catch11MessageInfoeqERKS0_
FNDA:0,_ZNK5Catch11MessageInfoltERKS0_
FNDA:0,_ZNK5Catch11XmlReporter16getStylesheetRefB5cxx11Ev
FNDA:0,_ZNK5Catch12TestCaseInfo12tagsAsStringB5cxx11Ev
FNDA:0,_ZNK5Catch12TestCaseInfo14expectedToFailEv
FNDA:0,_ZNK5Catch12TestCaseInfo6throwsEv
FNDA:0,_ZNK5Catch12TestCaseInfo8isHiddenEv
FNDA:0,_ZNK5Catch12TestCaseInfo8okToFailEv
FNDA:0,_ZNK5Catch12TestRegistry11getAllTestsEv
FNDA:0,_ZNK5Catch12_GLOBAL__N_111RegistryHub30getExceptionTranslatorRegistryEv
FNDA:0,_ZNK5Catch12_GLOBAL__N_116AssertionPrinter10printIssueERKNSt7__cxx1112basic_stringIcSt11char_traitsIcESaIcEEE
FNDA:0,_ZNK5Catch12_GLOBAL__N_116AssertionPrinter15printResultTypeENS_6Colour4CodeERKNSt7__cxx1112basic_stringIcSt11char_traitsIcESaIcEEE
FNDA:0,_ZNK5Catch12_GLOBAL__N_116AssertionPrinter15printSourceInfoEv
FNDA:0,_ZNK5Catch12_GLOBAL__N_116AssertionPrinter23printOriginalExpressionEv
FNDA:0,_ZNK5Catch12_GLOBAL__N_116AssertionPrinter28printReconstructedExpressionEv
FNDA:0,_ZNK5Catch12_GLOBAL__N_123ConsoleAssertionPrinter12printMessageEv
FNDA:0,_ZNK5Catch12_GLOBAL__N_123ConsoleAssertionPrinter15printResultTypeEv
FNDA:0,_ZNK5Catch12_GLOBAL__N_123ConsoleAssertionPrinter15printSourceInfoEv
FNDA:0,_ZNK5Catch12_GLOBAL__N_123ConsoleAssertionPrinter23printOriginalExpressionEv
FNDA:0,_ZNK5Catch12_GLOBAL__N_123ConsoleAssertionPrinter28printReconstructedExpressionEv
FNDA:0,_ZNK5Catch12_GLOBAL__N_123ConsoleAssertionPrinter5printEv
FNDA:0,_ZNK5Catch13StreamEndStoppsB5cxx11Ev
FNDA:0,_ZNK5Catch14LazyExpressioncvbEv
FNDA:0,_ZNK5Catch14ReporterConfig10fullConfigEv
FNDA:0,_ZNK5Catch14ReporterConfig6streamEv
FNDA:0,_ZNK5Catch14SourceLineInfoltERKS0_
FNDA:0,_ZNK5Catch15AssertionResult10getMessageB5cxx11Ev
FNDA:0,_ZNK5Catch15AssertionResult10hasMessageEv
FNDA:0,_ZNK5Catch15AssertionResult13getExpressionB5cxx11Ev
FNDA:0,_ZNK5Catch15AssertionResult13getResultTypeEv
FNDA:0,_ZNK5Catch15AssertionResult13getSourceInfoEv
FNDA:0,_ZNK5Catch15AssertionResult13hasExpressionEv
FNDA:0,_ZNK5Catch15AssertionResult16getTestMacroNameEv
FNDA:0,_ZNK5Catch15AssertionResult20getExpressionInMacroB5cxx11Ev
FNDA:0,_ZNK5Catch15AssertionResult21getExpandedExpressionB5cxx11Ev
FNDA:0,_ZNK5Catch15AssertionResult21hasExpandedExpressionEv
FNDA:0,_ZNK5Catch15AssertionResult4isOkEv
FNDA:0,_ZNK5Catch15AssertionResult9succeededEv
FNDA:0,_ZNK5Catch16AssertionHandler11allowThrowsEv
FNDA:0,_ZNK5Catch16RedirectedStdErr3strB5cxx11Ev
FNDA:0,_ZNK5Catch16RedirectedStdOut3strB5cxx11Ev
FNDA:0,_ZNK5Catch16ReporterRegistry12getFactoriesB5cxx11Ev
FNDA:0,_ZNK5Catch16TagAliasRegistry4findERKNSt7__cxx1112basic_stringIcSt11char_traitsIcESaIcEEE
FNDA:0,_ZNK5Catch16TestCaseTracking11TrackerBase11hasChildrenEv
FNDA:0,_ZNK5Catch16TestCaseTracking11TrackerBase18isGeneratorTrackerEv
FNDA:0,_ZNK5Catch16TestCaseTracking14SectionTracker10getFiltersB5cxx11Ev
FNDA:0,_ZNK5Catch16TestCaseTracking14SectionTracker11trimmedNameB5cxx11Ev
FNDA:0,_ZNK5Catch16TestCaseTracking14TrackerContext14completedCycleEv
FNDA:0,_ZNK5Catch17ListeningReporter14getPreferencesEv
FNDA:0,_ZNK5Catch17ListeningReporter7isMultiEv
FNDA:0,_ZNK5Catch17ReporterRegistrarINS_11XmlReporterEE15ReporterFactory14getDescriptionB5cxx11Ev
FNDA:0,_ZNK5Catch17ReporterRegistrarINS_11XmlReporterEE15ReporterFactory6createERKNS_14ReporterConfigE
FNDA:0,_ZNK5Catch17ReporterRegistrarINS_13JunitReporterEE15ReporterFactory14getDescriptionB5cxx11Ev
FNDA:0,_ZNK5Catch17ReporterRegistrarINS_13JunitReporterEE15ReporterFactory6createERKNS_14ReporterConfigE
FNDA:0,_ZNK5Catch17ReporterRegistrarINS_15CompactReporterEE15ReporterFactory14getDescriptionB5cxx11Ev
FNDA:0,_ZNK5Catch17ReporterRegistrarINS_15CompactReporterEE15ReporterFactory6createERKNS_14ReporterConfigE
FNDA:0,_ZNK5Catch17ReporterRegistrarINS_15ConsoleReporterEE15ReporterFactory14getDescriptionB5cxx11Ev
FNDA:0,_ZNK5Catch18GeneratorException4whatEv
FNDA:0,_ZNK5Catch18IStreamingReporter7isMultiEv
FNDA:0,_ZNK5Catch19AssertionResultData21reconstructExpressionB5cxx11Ev
FNDA:0,_ZNK5Catch20ReusableStringStream3strB5cxx11Ev
FNDA:0,_ZNK5Catch21StreamingReporterBaseINS_11XmlReporterEE14getPreferencesEv
FNDA:0,_ZNK5Catch21StreamingReporterBaseINS_15CompactReporterEE14getPreferencesEv
FNDA:0,_ZNK5Catch21StreamingReporterBaseINS_21TestEventListenerBaseEE14getPreferencesEv
FNDA:0,_ZNK5Catch22CumulativeReporterBaseINS_13JunitReporterEE13BySectionInfoclERKSt10shared_ptrINS2_11SectionNodeEE
FNDA:0,_ZNK5Catch22CumulativeReporterBaseINS_13JunitReporterEE14getPreferencesEv
FNDA:0,_ZNK5Catch24StartupExceptionRegistry13getExceptionsEv
FNDA:0,_ZNK5Catch27ExceptionTranslatorRegistry14tryTranslatorsB5cxx11Ev
FNDA:0,_ZNK5Catch27ExceptionTranslatorRegistry24translateActiveExceptionB5cxx11Ev
FNDA:0,_ZNK5Catch5Timer17getElapsedSecondsEv
FNDA:0,_ZNK5Catch5Timer21getElapsedNanosecondsEv
FNDA:0,_ZNK5Catch5Timer22getElapsedMicrosecondsEv
FNDA:0,_ZNK5Catch5Timer22getElapsedMillisecondsEv
FNDA:0,_ZNK5Catch5clara6detail10ParserBase11cardinalityEv
FNDA:0,_ZNK5Catch5clara6detail11BasicResultINS1_15ParseResultTypeEE9enforceOkEv
FNDA:0,_ZNK5Catch5clara6detail11BasicResultIvE9enforceOkEv
FNDA:0,_ZNK5Catch5clara6detail16BoundFlagRefBase6isFlagEv
FNDA:0,_ZNK5Catch5clara6detail3Opt14getHelpColumnsEv
FNDA:0,_ZNK5Catch5clara6detail3Opt7isMatchERKNSt7__cxx1112basic_stringIcSt11char_traitsIcESaIcEEE
FNDA:0,_ZNK5Catch5clara6detail6Parser13writeToStreamERSo
FNDA:0,_ZNK5Catch5clara6detail6Parser14getHelpColumnsEv
FNDA:0,_ZNK5Catch5clara6detail6Parser8validateEv
FNDA:0,_ZNK5Catch5clara6detail7ExeName5parseERKNSt7__cxx1112basic_stringIcSt11char_traitsIcESaIcEEERKNS1_11TokenStreamE
FNDA:0,_ZNK5Catch5clara8TextFlow6Column8iterator10isBoundaryEm
FNDA:0,_ZNK5Catch5clara8TextFlow6Column8iterator18addIndentAndSuffixERKNSt7__cxx1112basic_stringIcSt11char_traitsIcESaIcEEE
FNDA:0,_ZNK5Catch5clara8TextFlow6Column8iteratordeB5cxx11Ev
FNDA:0,_ZNK5Catch5clara8TextFlow7Columns8iteratordeB5cxx11Ev
FNDA:0,_ZNK5Catch6Config11allowThrowsEv
FNDA:0,_ZNK5Catch6Config11getFilenameB5cxx11Ev
FNDA:0,_ZNK5Catch6Config13listReportersEv
FNDA:0,_ZNK5Catch6Config14getProcessNameB5cxx11Ev
FNDA:0,_ZNK5Catch6Config14hasTestFiltersEv
FNDA:0,_ZNK5Catch6Config14showInvisiblesEv
FNDA:0,_ZNK5Catch6Config15getReporterNameB5cxx11Ev
FNDA:0,_ZNK5Catch6Config16benchmarkSamplesEv
FNDA:0,_ZNK5Catch6Config16shouldDebugBreakEv
FNDA:0,_ZNK5Catch6Config17listTestNamesOnlyEv
FNDA:0,_ZNK5Catch6Config18benchmarkResamplesEv
FNDA:0,_ZNK5Catch6Config19benchmarkWarmupTimeEv
FNDA:0,_ZNK5Catch6Config26warnAboutMissingAssertionsEv
FNDA:0,_ZNK5Catch6Config27benchmarkConfidenceIntervalEv
FNDA:0,_ZNK5Catch6Config8listTagsEv
FNDA:0,_ZNK5Catch6Config8showHelpEv
FNDA:0,_ZNK5Catch6Config9listTestsEv
FNDA:0,_ZNK5Catch6Counts5allOkEv
FNDA:0,_ZNK5Catch6Counts5totalEv
FNDA:0,_ZNK5Catch6Counts9allPassedEv
FNDA:0,_ZNK5Catch6CountsmiERKS0_
FNDA:0,_ZNK5Catch6Detail12_GLOBAL__N_110FileStream6streamEv
FNDA:0,_ZNK5Catch6Detail12_GLOBAL__N_114DebugOutStream6streamEv
FNDA:0,_ZNK5Catch6Detail6Approx22equalityComparisonImplEd
FNDA:0,_ZNK5Catch6Detail6Approx8toStringB5cxx11Ev
FNDA:0,_ZNK5Catch6Detail6ApproxngEv
FNDA:0,_ZNK5Catch6Detail8EnumInfo6lookupEi
FNDA:0,_ZNK5Catch6TotalsmiERKS0_
FNDA:0,_ZNK5Catch7Session3cliEv
FNDA:0,_ZNK5Catch7Session8showHelpEv
FNDA:0,_ZNK5Catch7TagInfo3allB5cxx11Ev
FNDA:0,_ZNK5Catch8Matchers4Impl18MatcherUntypedBase8toStringB5cxx11Ev
FNDA:0,_ZNK5Catch8Matchers8Floating16WithinAbsMatcher5matchERKd
FNDA:0,_ZNK5Catch8Matchers8Floating16WithinAbsMatcher8describeB5cxx11Ev
FNDA:0,_ZNK5Catch8Matchers8Floating16WithinRelMatcher5matchERKd
FNDA:0,_ZNK5Catch8Matchers8Floating16WithinRelMatcher8describeB5cxx11Ev
FNDA:0,_ZNK5Catch8Matchers8Floating17WithinUlpsMatcher5matchERKd
FNDA:0,_ZNK5Catch8Matchers8Floating17WithinUlpsMatcher8describeB5cxx11Ev
FNDA:0,_ZNK5Catch8Matchers9Exception23ExceptionMessageMatcher5matchERKSt9exception
FNDA:0,_ZNK5Catch8Matchers9Exception23ExceptionMessageMatcher8describeB5cxx11Ev
FNDA:0,_ZNK5Catch8Matchers9StdString11CasedString12adjustStringERKNSt7__cxx1112basic_stringIcSt11char_traitsIcESaIcEEE
FNDA:0,_ZNK5Catch8Matchers9StdString11CasedString21caseSensitivitySuffixB5cxx11Ev
FNDA:0,_ZNK5Catch8Matchers9StdString12RegexMatcher5matchERKNSt7__cxx1112basic_stringIcSt11char_traitsIcESaIcEEE
FNDA:0,_ZNK5Catch8Matchers9StdString12RegexMatcher8describeB5cxx11Ev
FNDA:0,_ZNK5Catch8Matchers9StdString13EqualsMatcher5matchERKNSt7__cxx1112basic_stringIcSt11char_traitsIcESaIcEEE
FNDA:0,_ZNK5Catch8Matchers9StdString15ContainsMatcher5matchERKNSt7__cxx1112basic_stringIcSt11char_traitsIcESaIcEEE
FNDA:0,_ZNK5Catch8Matchers9StdString15EndsWithMatcher5matchERKNSt7__cxx1112basic_stringIcSt11char_traitsIcESaIcEEE
FNDA:0,_ZNK5Catch8Matchers9StdString17StartsWithMatcher5matchERKNSt7__cxx1112basic_stringIcSt11char_traitsIcESaIcEEE
FNDA:0,_ZNK5Catch8Matchers9StdString17StringMatcherBase8describeB5cxx11Ev
FNDA:0,_ZNK5Catch8TestCase15getTestCaseInfoEv
FNDA:0,_ZNK5Catch8TestCase6invokeEv
FNDA:0,_ZNK5Catch8TestCase8withNameERKNSt7__cxx1112basic_stringIcSt11char_traitsIcESaIcEEE
FNDA:0,_ZNK5Catch8TestCaseeqERKS0_
FNDA:0,_ZNK5Catch8TestCaseltERKS0_
FNDA:0,_ZNK5Catch8TestSpec10hasFiltersEv
FNDA:0,_ZNK5Catch8TestSpec14getInvalidArgsB5cxx11Ev
FNDA:0,_ZNK5Catch8TestSpec6Filter7matchesERKNS_12TestCaseInfoE
FNDA:0,_ZNK5Catch8TestSpec7Pattern4nameB5cxx11Ev
FNDA:0,_ZNK5Catch8TestSpec7matchesERKNS_12TestCaseInfoE
FNDA:0,_ZNK5Catch9MatchExprINSt7__cxx1112basic_stringIcSt11char_traitsIcESaIcEEERKNS_8Matchers4Impl11MatcherBaseIS6_EEE29streamReconstructedExpressionERSo
FNDA:0,_ZNK5Catch9StringRef4dataEv
FNDA:0,_ZNK5Catch9StringRef5c_strEv
FNDA:0,_ZNK5Catch9StringRef6substrEmm
FNDA:0,_ZNK5Catch9StringRefeqERKS0_
FNDA:0,_ZNK5Catch9UnaryExprIRKPKN8tinyxml210XMLElementEE29streamReconstructedExpressionERSo
FNDA:0,_ZNK5Catch9UnaryExprIRKPKcE29streamReconstructedExpressionERSo
FNDA:0,_ZNK5Catch9UnaryExprIRKPN4mfem12GridFunctionEE29streamReconstructedExpressionERSo
FNDA:0,_ZNK5Catch9UnaryExprIRKPN4mfem18QuadratureFunctionEE29streamReconstructedExpressionERSo
FNDA:0,_ZNK5Catch9UnaryExprIRKPN4mfem4MeshEE29streamReconstructedExpressionERSo
FNDA:0,_ZNK5Catch9UnaryExprIbE29streamReconstructedExpressionERSo
FNDA:0,_ZNK5Catch9XmlEncode8encodeToERSo
FNDA:0,_ZZN5Catch21makeCommandLineParserERNS_10ConfigDataEENKUlRKNSt7__cxx1112basic_stringIcSt11char_traitsIcESaIcEEEE0_clES9_
FNDA:0,_ZZN5Catch21makeCommandLineParserERNS_10ConfigDataEENKUlRKNSt7__cxx1112basic_stringIcSt11char_traitsIcESaIcEEEE1_clES9_
FNDA:0,_ZZN5Catch21makeCommandLineParserERNS_10ConfigDataEENKUlRKNSt7__cxx1112basic_stringIcSt11char_traitsIcESaIcEEEE2_clES9_
FNDA:0,_ZZN5Catch21makeCommandLineParserERNS_10ConfigDataEENKUlRKNSt7__cxx1112basic_stringIcSt11char_traitsIcESaIcEEEE3_clES9_
FNDA:0,_ZZN5Catch21makeCommandLineParserERNS_10ConfigDataEENKUlRKNSt7__cxx1112basic_stringIcSt11char_traitsIcESaIcEEEE4_clES9_
FNDA:0,_ZZN5Catch21makeCommandLineParserERNS_10ConfigDataEENKUlRKNSt7__cxx1112basic_stringIcSt11char_traitsIcESaIcEEEE5_clES9_
FNDA:0,_ZZN5Catch21makeCommandLineParserERNS_10ConfigDataEENKUlRKNSt7__cxx1112basic_stringIcSt11char_traitsIcESaIcEEEE6_clES9_
FNDA:0,_ZZN5Catch21makeCommandLineParserERNS_10ConfigDataEENKUlRKNSt7__cxx1112basic_stringIcSt11char_traitsIcESaIcEEEE_clES9_
FNDA:0,_ZZN5Catch8CapturerC4ENS_9StringRefERKNS_14SourceLineInfoENS_9ResultWas6OfTypeES1_ENKUlmcE0_clEmc
FNDA:0,_ZZN5Catch8CapturerC4ENS_9StringRefERKNS_14SourceLineInfoENS_9ResultWas6OfTypeES1_ENKUlmmE_clEmm
FNDA:0,_ZZNK5Catch8TestSpec7matchesERKNS_12TestCaseInfoEENKUlRKNS0_6FilterEE_clES6_
FNDA:0,_ZZZN5Catch21makeCommandLineParserERNS_10ConfigDataEENKUlRKNSt7__cxx1112basic_stringIcSt11char_traitsIcESaIcEEEE_clES9_ENKUlvE_clEv
FNDA:1,_ZN5Catch10Generators10GeneratorsI7FECTypeE8populateEOS2_
FNDA:1,_ZN5Catch10Generators10GeneratorsI7FECTypeEC2IJNS0_16GeneratorWrapperIS2_EES2_EEEDpOT_
FNDA:1,_ZN5Catch10Generators14makeGeneratorsI7FECTypeJS2_EEENS0_10GeneratorsIT_EEOS4_DpOT0_
FNDA:1,_ZN5Catch10Generators2pf11make_uniqueINS0_10GeneratorsI7FECTypeEEJS5_EEESt10unique_ptrIT_St14default_deleteIS7_EEDpOT0_
FNDA:1,_ZN5Catch10RunContext14testGroupEndedERKNSt7__cxx1112basic_stringIcSt11char_traitsIcESaIcEEERKNS_6TotalsEmm
FNDA:1,_ZN5Catch10RunContext17testGroupStartingERKNSt7__cxx1112basic_stringIcSt11char_traitsIcESaIcEEEmm
FNDA:1,_ZN5Catch10RunContext7runTestERKNS_8TestCaseE
FNDA:1,_ZN5Catch10RunContextC2ERKSt10shared_ptrIKNS_7IConfigEEOSt10unique_ptrINS_18IStreamingReporterESt14default_deleteIS8_EE
FNDA:1,_ZN5Catch10RunContextD2Ev
FNDA:1,_ZN5Catch10makeStreamERKNS_9StringRefE
FNDA:1,_ZN5Catch12LeakDetectorD2Ev
FNDA:1,_ZN5Catch12TablePrinterC2ERSoSt6vectorINS_12_GLOBAL__N_110ColumnInfoESaIS4_EE
FNDA:1,_ZN5Catch12TestRegistryD2Ev
FNDA:1,_ZN5Catch12TestRunStatsC2ERKNS_11TestRunInfoERKNS_6TotalsEb
FNDA:1,_ZN5Catch12_GLOBAL__N_111RegistryHubC2Ev
FNDA:1,_ZN5Catch12_GLOBAL__N_112makeReporterERKSt10shared_ptrINS_6ConfigEE
FNDA:1,_ZN5Catch12_GLOBAL__N_114createReporterERKNSt7__cxx1112basic_stringIcSt11char_traitsIcESaIcEEERKSt10shared_ptrIKNS_7IConfigEE
FNDA:1,_ZN5Catch12_GLOBAL__N_115PosixColourImpl8instanceEv
FNDA:1,_ZN5Catch12_GLOBAL__N_122platformColourInstanceEv
FNDA:1,_ZN5Catch12_GLOBAL__N_19TestGroup7executeEv
FNDA:1,_ZN5Catch12_GLOBAL__N_19TestGroupC2ERKSt10shared_ptrINS_6ConfigEE
FNDA:1,_ZN5Catch13StringStreams3addEv
FNDA:1,_ZN5Catch13StringStreams7releaseEm
FNDA:1,_ZN5Catch13TestCaseStatsC2ERKNS_12TestCaseInfoERKNS_6TotalsERKNSt7__cxx1112basic_stringIcSt11char_traitsIcESaIcEEESE_b
FNDA:1,_ZN5Catch13TestCaseStatsD2Ev
FNDA:1,_ZN5Catch14ReporterConfigC2ERKSt10shared_ptrIKNS_7IConfigEE
FNDA:1,_ZN5Catch14TestGroupStatsC2ERKNS_9GroupInfoERKNS_6TotalsEb
FNDA:1,_ZN5Catch14TestSpecParser14addNamePatternEv
FNDA:1,_ZN5Catch14TestSpecParser9addFilterEv
FNDA:1,_ZN5Catch15ConsoleReporter11printTotalsERKNS_6TotalsE
FNDA:1,_ZN5Catch15ConsoleReporter12testRunEndedERKNS_12TestRunStatsE
FNDA:1,_ZN5Catch15ConsoleReporter13testCaseEndedERKNS_13TestCaseStatsE
FNDA:1,_ZN5Catch15ConsoleReporter14testGroupEndedERKNS_14TestGroupStatsE
FNDA:1,_ZN5Catch15ConsoleReporter15testRunStartingERKNS_11TestRunInfoE
FNDA:1,_ZN5Catch15ConsoleReporter16printTestFiltersEv
FNDA:1,_ZN5Catch15ConsoleReporter18printTotalsDividerERKNS_6TotalsE
FNDA:1,_ZN5Catch15ConsoleReporterC2ERKNS_14ReporterConfigE
FNDA:1,_ZN5Catch15ConsoleReporterD0Ev
FNDA:1,_ZN5Catch15ConsoleReporterD2Ev
FNDA:1,_ZN5Catch15IMutableContext13createContextEv
FNDA:1,_ZN5Catch15WildcardPatternC2ERKNSt7__cxx1112basic_stringIcSt11char_traitsIcESaIcEEENS_13CaseSensitive6ChoiceE
FNDA:1,_ZN5Catch16TestCaseTracking14SectionTracker17addInitialFiltersERKSt6vectorINSt7__cxx1112basic_stringIcSt11char_traitsIcESaIcEEESaIS8_EE
FNDA:1,_ZN5Catch16TestCaseTracking14TrackerContext8startRunEv
FNDA:1,_ZN5Catch16serializeFiltersERKSt6vectorINSt7__cxx1112basic_stringIcSt11char_traitsIcESaIcEEESaIS6_EE
FNDA:1,_ZN5Catch17ReporterRegistrarINS_11XmlReporterEEC2ERKNSt7__cxx1112basic_stringIcSt11char_traitsIcESaIcEEE
FNDA:1,_ZN5Catch17ReporterRegistrarINS_13JunitReporterEEC2ERKNSt7__cxx1112basic_stringIcSt11char_traitsIcESaIcEEE
FNDA:1,_ZN5Catch17ReporterRegistrarINS_15CompactReporterEEC2ERKNSt7__cxx1112basic_stringIcSt11char_traitsIcESaIcEEE
FNDA:1,_ZN5Catch17ReporterRegistrarINS_15ConsoleReporterEEC2ERKNSt7__cxx1112basic_stringIcSt11char_traitsIcESaIcEEE
FNDA:1,_ZN5Catch20ReusableStringStreamC2Ev
FNDA:1,_ZN5Catch20ReusableStringStreamD2Ev
FNDA:1,_ZN5Catch21FatalConditionHandlerC2Ev
FNDA:1,_ZN5Catch21StreamingReporterBaseINS_15ConsoleReporterEE12testRunEndedERKNS_12TestRunStatsE
FNDA:1,_ZN5Catch21StreamingReporterBaseINS_15ConsoleReporterEE16testCaseStartingERKNS_12TestCaseInfoE
FNDA:1,_ZN5Catch21StreamingReporterBaseINS_15ConsoleReporterEE17testGroupStartingERKNS_9GroupInfoE
FNDA:1,_ZN5Catch21StreamingReporterBaseINS_15ConsoleReporterEEC2ERKNS_14ReporterConfigE
FNDA:1,_ZN5Catch21StreamingReporterBaseINS_15ConsoleReporterEED2Ev
FNDA:1,_ZN5Catch21getAllTestCasesSortedERKNS_7IConfigE
FNDA:1,_ZN5Catch21makeCommandLineParserERNS_10ConfigDataE
FNDA:1,_ZN5Catch27enforceNoDuplicateTestCasesERKSt6vectorINS_8TestCaseESaIS1_EE
FNDA:1,_ZN5Catch4listERKSt10shared_ptrINS_6ConfigEE
FNDA:1,_ZN5Catch5clara6detail11TokenStreamC2EN9__gnu_cxx17__normal_iteratorIPKNSt7__cxx1112basic_stringIcSt11char_traitsIcESaIcEEESt6vectorISA_SaISA_EEEESG_
FNDA:1,_ZN5Catch5clara6detail11TokenStreamppEv
FNDA:1,_ZN5Catch5clara6detail13BoundValueRefINSt7__cxx1112basic_stringIcSt11char_traitsIcESaIcEEEE8setValueERKS8_
FNDA:1,_ZN5Catch5clara6detail13BoundValueRefISt6vectorINSt7__cxx1112basic_stringIcSt11char_traitsIcESaIcEEESaIS9_EEE8setValueERKS9_
FNDA:1,_ZN5Catch5clara6detail13ParserRefImplINS1_3ArgEEC2ISt6vectorINSt7__cxx1112basic_stringIcSt11char_traitsIcESaIcEEESaISC_EEEERT_RKSC_
FNDA:1,_ZN5Catch5clara6detail13ParserRefImplINS1_3OptEEC2ISt6vectorINSt7__cxx1112basic_stringIcSt11char_traitsIcESaIcEEESaISC_EEEERT_RKSC_
FNDA:1,_ZN5Catch5clara6detail13ParserRefImplINS1_3OptEEC2IZNS_21makeCommandLineParserERNS_10ConfigDataEEUlRKNSt7__cxx1112basic_stringIcSt11char_traitsIcESaIcEEEE0_EERKT_SF_
FNDA:1,_ZN5Catch5clara6detail13ParserRefImplINS1_3OptEEC2IZNS_21makeCommandLineParserERNS_10ConfigDataEEUlRKNSt7__cxx1112basic_stringIcSt11char_traitsIcESaIcEEEE1_EERKT_SF_
FNDA:1,_ZN5Catch5clara6detail13ParserRefImplINS1_3OptEEC2IZNS_21makeCommandLineParserERNS_10ConfigDataEEUlRKNSt7__cxx1112basic_stringIcSt11char_traitsIcESaIcEEEE2_EERKT_SF_
FNDA:1,_ZN5Catch5clara6detail13ParserRefImplINS1_3OptEEC2IZNS_21makeCommandLineParserERNS_10ConfigDataEEUlRKNSt7__cxx1112basic_stringIcSt11char_traitsIcESaIcEEEE3_EERKT_SF_
FNDA:1,_ZN5Catch5clara6detail13ParserRefImplINS1_3OptEEC2IZNS_21makeCommandLineParserERNS_10ConfigDataEEUlRKNSt7__cxx1112basic_stringIcSt11char_traitsIcESaIcEEEE4_EERKT_SF_
FNDA:1,_ZN5Catch5clara6detail13ParserRefImplINS1_3OptEEC2IZNS_21makeCommandLineParserERNS_10ConfigDataEEUlRKNSt7__cxx1112basic_stringIcSt11char_traitsIcESaIcEEEE5_EERKT_SF_
FNDA:1,_ZN5Catch5clara6detail13ParserRefImplINS1_3OptEEC2IZNS_21makeCommandLineParserERNS_10ConfigDataEEUlRKNSt7__cxx1112basic_stringIcSt11char_traitsIcESaIcEEEE6_EERKT_SF_
FNDA:1,_ZN5Catch5clara6detail13ParserRefImplINS1_3OptEEC2IZNS_21makeCommandLineParserERNS_10ConfigDataEEUlRKNSt7__cxx1112basic_stringIcSt11char_traitsIcESaIcEEEE_EERKT_SF_
FNDA:1,_ZN5Catch5clara6detail13ParserRefImplINS1_3OptEEC2IZNS_21makeCommandLineParserERNS_10ConfigDataEEUlbE9_EERKT_RKNSt7__cxx1112basic_stringIcSt11char_traitsIcESaIcEEE
FNDA:1,_ZN5Catch5clara6detail13ParserRefImplINS1_3OptEEC2IZNS_21makeCommandLineParserERNS_10ConfigDataEEUliE8_EERKT_RKNSt7__cxx1112basic_stringIcSt11char_traitsIcESaIcEEE
FNDA:1,_ZN5Catch5clara6detail13ParserRefImplINS1_3OptEEC2IlEERT_RKNSt7__cxx1112basic_stringIcSt11char_traitsIcESaIcEEE
FNDA:1,_ZN5Catch5clara6detail3OptC2IZNS1_4HelpC4ERbEUlbE_EERKT_
FNDA:1,_ZN5Catch5clara6detail3OptC2IZNS_21makeCommandLineParserERNS_10ConfigDataEEUlbE7_EERKT_
FNDA:1,_ZN5Catch5clara6detail4ArgsC2EiPKPKc
FNDA:1,_ZN5Catch5clara6detail4HelpC2ERb
FNDA:1,_ZN5Catch5clara6detail7ExeName3setERKNSt7__cxx1112basic_stringIcSt11char_traitsIcESaIcEEE
FNDA:1,_ZN5Catch5clara6detail7ExeNameC2ERNSt7__cxx1112basic_stringIcSt11char_traitsIcESaIcEEE
FNDA:1,_ZN5Catch6ConfigC2ERKNS_10ConfigDataE
FNDA:1,_ZN5Catch6ConfigD2Ev
FNDA:1,_ZN5Catch6Detail12_GLOBAL__N_110CoutStreamD0Ev
FNDA:1,_ZN5Catch6OptionINS_11TestRunInfoEEaSERKS1_
FNDA:1,_ZN5Catch6OptionINS_12TestCaseInfoEEaSERKS1_
FNDA:1,_ZN5Catch6OptionINS_9GroupInfoEEaSERKS1_
FNDA:1,_ZN5Catch7Context16setResultCaptureEPNS_14IResultCaptureE
FNDA:1,_ZN5Catch7Context9setRunnerEPNS_7IRunnerE
FNDA:1,_ZN5Catch7ContextD0Ev
FNDA:1,_ZN5Catch7Session11runInternalEv
FNDA:1,_ZN5Catch7Session13useConfigDataERKNS_10ConfigDataE
FNDA:1,_ZN5Catch7Session16applyCommandLineEiPKPKc
FNDA:1,_ZN5Catch7Session3runEv
FNDA:1,_ZN5Catch7Session6configEv
FNDA:1,_ZN5Catch7SessionC2Ev
FNDA:1,_ZN5Catch7SessionD2Ev
FNDA:1,_ZN5Catch8TestSpec11NamePatternC2ERKNSt7__cxx1112basic_stringIcSt11char_traitsIcESaIcEEES9_
FNDA:1,_ZN5Catch9sortTestsERKNS_7IConfigERKSt6vectorINS_8TestCaseESaIS4_EE
FNDA:1,_ZNK5Catch12TestRegistry17getAllTestsSortedERKNS_7IConfigE
FNDA:1,_ZNK5Catch12_GLOBAL__N_111RegistryHub19getTagAliasRegistryEv
FNDA:1,_ZNK5Catch12_GLOBAL__N_111RegistryHub19getTestCaseRegistryEv
FNDA:1,_ZNK5Catch12_GLOBAL__N_111RegistryHub27getStartupExceptionRegistryEv
FNDA:1,_ZNK5Catch16ReporterRegistry12getListenersEv
FNDA:1,_ZNK5Catch16ReporterRegistry6createERKNSt7__cxx1112basic_stringIcSt11char_traitsIcESaIcEEERKSt10shared_ptrIKNS_7IConfigEE
FNDA:1,_ZNK5Catch17ReporterRegistrarINS_15ConsoleReporterEE15ReporterFactory6createERKNS_14ReporterConfigE
FNDA:1,_ZNK5Catch5clara6detail10ParserBase5parseERKNS1_4ArgsE
FNDA:1,_ZNK5Catch5clara6detail10ParserBase8validateEv
FNDA:1,_ZNK5Catch5clara6detail11TokenStreamdeEv
FNDA:1,_ZNK5Catch5clara6detail13ParserRefImplINS1_3ArgEE11cardinalityEv
FNDA:1,_ZNK5Catch5clara6detail20ComposableParserImplINS1_7ExeNameEEorINS1_4HelpEEENS1_6ParserERKT_
FNDA:1,_ZNK5Catch5clara6detail3Arg5parseERKNSt7__cxx1112basic_stringIcSt11char_traitsIcESaIcEEERKNS1_11TokenStreamE
FNDA:1,_ZNK5Catch5clara6detail6Parser5parseERKNSt7__cxx1112basic_stringIcSt11char_traitsIcESaIcEEERKNS1_11TokenStreamE
FNDA:1,_ZNK5Catch5clara6detail6ParserorINS1_3ArgEEES2_RKT_
FNDA:1,_ZNK5Catch5clara6detail6ParserorINS1_4HelpEEES2_RKT_
FNDA:1,_ZNK5Catch5clara6detail6ParserorINS1_7ExeNameEEES2_RKT_
FNDA:1,_ZNK5Catch5clara6detail8BoundRef6isFlagEv
FNDA:1,_ZNK5Catch6Config14getTestsOrTagsB5cxx11Ev
FNDA:1,_ZNK5Catch6Config16getSectionsToRunB5cxx11Ev
FNDA:1,_ZNK5Catch6Config16warnAboutNoTestsEv
FNDA:1,_ZNK5Catch6Config19benchmarkNoAnalysisEv
FNDA:1,_ZNK5Catch6Config24includeSuccessfulResultsEv
FNDA:1,_ZNK5Catch6Config9useColourEv
FNDA:1,_ZNK5Catch6Config9verbosityEv
FNDA:1,_ZNK5Catch6Totals5deltaERKS0_
FNDA:1,_ZNK5Catch8TestSpec15matchesByFilterERKSt6vectorINS_8TestCaseESaIS2_EERKNS_7IConfigE
FNDA:1,_ZNK5Catch8TestSpec6Filter4nameB5cxx11Ev
FNDA:1,_ZZN5Catch15ConsoleReporterC4ERKNS_14ReporterConfigEENKUlvE_clEv
FNDA:1,_ZZNK5Catch8TestSpec15matchesByFilterERKSt6vectorINS_8TestCaseESaIS2_EERKNS_7IConfigEENKUlRKNS0_6FilterEE_clESC_
FNDA:2,_ZN5Catch10Generators10GeneratorsI7FECTypeE4nextEv
FNDA:2,_ZN5Catch10Generators10GeneratorsI9FieldTypeE8populateEOS2_
FNDA:2,_ZN5Catch10Generators10GeneratorsI9FieldTypeEC2IJNS0_16GeneratorWrapperIS2_EES2_EEEDpOT_
FNDA:2,_ZN5Catch10Generators14makeGeneratorsI9FieldTypeJS2_EEENS0_10GeneratorsIT_EEOS4_DpOT0_
FNDA:2,_ZN5Catch10Generators20SingleValueGeneratorI7FECTypeE4nextEv
FNDA:2,_ZN5Catch10Generators2pf11make_uniqueINS0_10GeneratorsI9FieldTypeEEJS5_EEESt10unique_ptrIT_St14default_deleteIS7_EEDpOT0_
FNDA:2,_ZN5Catch10Generators5valueI7FECTypeEENS0_16GeneratorWrapperIT_EEOS4_
FNDA:2,_ZN5Catch14TestSpecParser13addTagPatternEv
FNDA:2,_ZN5Catch17cleanupSingletonsEv
FNDA:2,_ZN5Catch5clara6detail11TokenStream10loadBufferEv
FNDA:2,_ZN5Catch5clara6detail13ParserRefImplINS1_3OptEEC2IdEERT_RKNSt7__cxx1112basic_stringIcSt11char_traitsIcESaIcEEE
FNDA:2,_ZN5Catch5clara6detail13ParserRefImplINS1_3OptEEC2IjEERT_RKNSt7__cxx1112basic_stringIcSt11char_traitsIcESaIcEEE
FNDA:2,_ZN5Catch7Context9setConfigERKSt10shared_ptrIKNS_7IConfigEE
FNDA:2,_ZN5Catch7cleanUpEv
FNDA:2,_ZN5Catch8TestSpec10TagPatternC2ERKNSt7__cxx1112basic_stringIcSt11char_traitsIcESaIcEEES9_
FNDA:2,_ZN5Catch8TestSpec15ExcludedPatternC2ERKSt10shared_ptrINS0_7PatternEE
FNDA:2,_ZN5CatchlsERSoRKNS_9pluraliseE
FNDA:2,_ZNK5Catch12_GLOBAL__N_111RegistryHub19getReporterRegistryEv
FNDA:2,_ZNK5Catch5clara6detail13BoundValueRefISt6vectorINSt7__cxx1112basic_stringIcSt11char_traitsIcESaIcEEESaIS9_EEE11isContainerEv
FNDA:2,_ZNK5Catch8TestSpec10TagPattern7matchesERKNS_12TestCaseInfoE
FNDA:2,_ZNK5Catch8TestSpec15ExcludedPattern7matchesERKNS_12TestCaseInfoE
FNDA:3,_ZN5Catch10startsWithERKNSt7__cxx1112basic_stringIcSt11char_traitsIcESaIcEEES7_
FNDA:3,_ZN5Catch14TestSpecParser17preprocessPatternB5cxx11Ev
FNDA:3,_ZN5Catch14TestSpecParser5parseERKNSt7__cxx1112basic_stringIcSt11char_traitsIcESaIcEEE
FNDA:3,_ZN5Catch5clara6detail13ParserRefImplINS1_3OptEEC2INSt7__cxx1112basic_stringIcSt11char_traitsIcESaIcEEEEERT_RKSB_
FNDA:3,_ZN5Catch9SingletonINS_13StringStreamsES1_S1_E11getInternalEv
FNDA:3,_ZNK5Catch16TagAliasRegistry13expandAliasesERKNSt7__cxx1112basic_stringIcSt11char_traitsIcESaIcEEE
FNDA:3,_ZNK5Catch6Config4nameB5cxx11Ev
FNDA:3,_ZNK5Catch6Config8runOrderEv
FNDA:4,_ZN5Catch10Generators10GeneratorsI12TransferTypeE8populateEOS2_
FNDA:4,_ZN5Catch10Generators10GeneratorsI12TransferTypeEC2IJNS0_16GeneratorWrapperIS2_EES2_EEEDpOT_
FNDA:4,_ZN5Catch10Generators10GeneratorsI9FieldTypeE4nextEv
FNDA:4,_ZN5Catch10Generators14makeGeneratorsI12TransferTypeJS2_EEENS0_10GeneratorsIT_EEOS4_DpOT0_
FNDA:4,_ZN5Catch10Generators20SingleValueGeneratorI9FieldTypeE4nextEv
FNDA:4,_ZN5Catch10Generators2pf11make_uniqueINS0_10GeneratorsI12TransferTypeEEJS5_EEESt10unique_ptrIT_St14default_deleteIS7_EEDpOT0_
FNDA:4,_ZN5Catch10Generators5valueI9FieldTypeEENS0_16GeneratorWrapperIT_EEOS4_
FNDA:4,_ZN5Catch12_GLOBAL__N_111RegistryHub16registerReporterERKNSt7__cxx1112basic_stringIcSt11char_traitsIcESaIcEEERKSt10shared_ptrINS_16IReporterFactoryEE
FNDA:4,_ZN5Catch12_GLOBAL__N_1L13getSingletonsEv
FNDA:4,_ZNK5Catch6Config8testSpecEv
FNDA:5,_ZN5Catch14TestSpecParser7endModeEv
FNDA:6,_ZN5Catch14TestSpecParser15processNameCharEc
FNDA:8,_ZN5Catch10Generators10GeneratorsI12TransferTypeE4nextEv
FNDA:8,_ZN5Catch10Generators10GeneratorsIN4mfem7SubMesh4FromEE8populateEOS4_
FNDA:8,_ZN5Catch10Generators10GeneratorsIN4mfem7SubMesh4FromEEC2IJNS0_16GeneratorWrapperIS4_EES4_EEEDpOT_
FNDA:8,_ZN5Catch10Generators14makeGeneratorsIN4mfem7SubMesh4FromEJS4_EEENS0_10GeneratorsIT_EEOS6_DpOT0_
FNDA:8,_ZN5Catch10Generators20SingleValueGeneratorI12TransferTypeE4nextEv
FNDA:8,_ZN5Catch10Generators2pf11make_uniqueINS0_10GeneratorsIN4mfem7SubMesh4FromEEEJS7_EEESt10unique_ptrIT_St14default_deleteIS9_EEDpOT0_
FNDA:8,_ZN5Catch10Generators5valueI12TransferTypeEENS0_16GeneratorWrapperIT_EEOS4_
FNDA:10,_ZN5Catch12_GLOBAL__N_115PosixColourImpl3useENS_6Colour4CodeE
FNDA:10,_ZN5Catch12_GLOBAL__N_115PosixColourImpl9setColourEPKc
FNDA:10,_ZN5Catch6Colour3useENS0_4CodeE
FNDA:11,_ZNK5Catch6Config6streamEv
FNDA:11,_ZNK5Catch6Detail12_GLOBAL__N_110CoutStream6streamEv
FNDA:11,_ZNK5Catch7Context9getConfigEv
FNDA:14,_ZN5Catch5clara6detail3OptC2ERb
FNDA:16,_ZN5Catch10Generators10GeneratorsIN4mfem7SubMesh4FromEE4nextEv
FNDA:16,_ZN5Catch10Generators20SingleValueGeneratorIN4mfem7SubMesh4FromEE4nextEv
FNDA:16,_ZN5Catch10Generators5valueIN4mfem7SubMesh4FromEEENS0_16GeneratorWrapperIT_EEOS6_
FNDA:16,_ZN5Catch5clara6detail13ParserRefImplINS1_3OptEEC2ERKSt10shared_ptrINS1_8BoundRefEE
FNDA:18,_ZN5Catch14TestSpecParser16processOtherCharEc
FNDA:29,_ZN5Catch14TestSpecParser9visitCharEc
FNDA:32,_ZN5Catch10Generators10GeneratorsIN4mfem7Element4TypeEE8populateEOS4_
FNDA:32,_ZN5Catch10Generators10GeneratorsIN4mfem7Element4TypeEEC2IJNS0_16GeneratorWrapperIS4_EES4_EEEDpOT_
FNDA:32,_ZN5Catch10Generators14makeGeneratorsIN4mfem7Element4TypeEJS4_EEENS0_10GeneratorsIT_EEOS6_DpOT0_
FNDA:32,_ZN5Catch10Generators2pf11make_uniqueINS0_10GeneratorsIN4mfem7Element4TypeEEEJS7_EEESt10unique_ptrIT_St14default_deleteIS9_EEDpOT0_
FNDA:32,_ZN5Catch10Generators8generateIZL19C_A_T_C_H_T_E_S_T_0vEUlvE3_EEDTcldtcl7declvalIDTclfp1_EEEE3getEENS_9StringRefERKNS_14SourceLineInfoERKT_
FNDA:32,_ZN5Catch10Generators8generateIZL19C_A_T_C_H_T_E_S_T_0vEUlvE4_EEDTcldtcl7declvalIDTclfp1_EEEE3getEENS_9StringRefERKNS_14SourceLineInfoERKT_
FNDA:33,_ZN5Catch16TestCaseTracking14SectionTracker14addNextFiltersERKSt6vectorINSt7__cxx1112basic_stringIcSt11char_traitsIcESaIcEEESaIS8_EE
FNDA:34,_ZN5Catch16TestCaseTracking14SectionTrackerC2ERKNS0_15NameAndLocationERNS0_14TrackerContextEPNS0_8ITrackerE
FNDA:34,_ZNK5Catch5clara6detail6ParserorINS1_3OptEEES2_RKT_
FNDA:35,_ZNK5Catch5clara6detail3Opt5parseERKNSt7__cxx1112basic_stringIcSt11char_traitsIcESaIcEEERKNS1_11TokenStreamE
FNDA:35,_ZNK5Catch5clara6detail3Opt8validateEv
FNDA:36,_ZN5Catch5clara6detail15ResultValueBaseINS1_10ParseStateEEaSERKS4_
FNDA:45,_ZNK5Catch14TestSpecParser13isControlCharEc
FNDA:47,_ZN5Catch10Generators16GeneratorTracker12setGeneratorEOSt10unique_ptrINS0_20GeneratorUntypedBaseESt14default_deleteIS3_EE
FNDA:47,_ZN5Catch10Generators16GeneratorTrackerD2Ev
FNDA:64,_ZN5Catch10Generators10GeneratorsIN4mfem7Element4TypeEE4nextEv
FNDA:64,_ZN5Catch10Generators20SingleValueGeneratorIN4mfem7Element4TypeEE4nextEv
FNDA:64,_ZN5Catch10Generators5valueIN4mfem7Element4TypeEEENS0_16GeneratorWrapperIT_EEOS6_
FNDA:64,_ZN5Catch10Generators8generateIZL19C_A_T_C_H_T_E_S_T_0vEUlvE0_EEDTcldtcl7declvalIDTclfp1_EEEE3getEENS_9StringRefERKNS_14SourceLineInfoERKT_
FNDA:64,_ZN5Catch10Generators8generateIZL19C_A_T_C_H_T_E_S_T_0vEUlvE1_EEDTcldtcl7declvalIDTclfp1_EEEE3getEENS_9StringRefERKNS_14SourceLineInfoERKT_
FNDA:64,_ZN5Catch10Generators8generateIZL19C_A_T_C_H_T_E_S_T_0vEUlvE2_EEDTcldtcl7declvalIDTclfp1_EEEE3getEENS_9StringRefERKNS_14SourceLineInfoERKT_
FNDA:64,_ZN5Catch10Generators8generateIZL19C_A_T_C_H_T_E_S_T_0vEUlvE_EEDTcldtcl7declvalIDTclfp1_EEEE3getEENS_9StringRefERKNS_14SourceLineInfoERKT_
FNDA:64,_ZN5Catch10RunContext12sectionEndedERKNS_14SectionEndInfoE
FNDA:64,_ZN5Catch10RunContext14runCurrentTestERNSt7__cxx1112basic_stringIcSt11char_traitsIcESaIcEEES7_
FNDA:64,_ZN5Catch10RunContext20invokeActiveTestCaseEv
FNDA:64,_ZN5Catch10RunContext24handleUnfinishedSectionsEv
FNDA:64,_ZN5Catch21FatalConditionHandler15engage_platformEv
FNDA:64,_ZN5Catch21FatalConditionHandler6engageEv
FNDA:64,_ZN5Catch21FatalConditionHandler9disengageEv
FNDA:64,_ZN5CatchL29restorePreviousSignalHandlersEv
FNDA:64,_ZNK5Catch10Generators10GeneratorsI12TransferTypeE3getEv
FNDA:64,_ZNK5Catch10Generators10GeneratorsI7FECTypeE3getEv
FNDA:64,_ZNK5Catch10Generators10GeneratorsI9FieldTypeE3getEv
FNDA:64,_ZNK5Catch10Generators10GeneratorsIN4mfem7Element4TypeEE3getEv
FNDA:64,_ZNK5Catch10Generators10GeneratorsIN4mfem7SubMesh4FromEE3getEv
FNDA:64,_ZNK5Catch10Generators20SingleValueGeneratorI12TransferTypeE3getEv
FNDA:64,_ZNK5Catch10Generators20SingleValueGeneratorI7FECTypeE3getEv
FNDA:64,_ZNK5Catch10Generators20SingleValueGeneratorI9FieldTypeE3getEv
FNDA:64,_ZNK5Catch10Generators20SingleValueGeneratorIN4mfem7Element4TypeEE3getEv
FNDA:64,_ZNK5Catch10Generators20SingleValueGeneratorIN4mfem7SubMesh4FromEE3getEv
FNDA:64,_ZNK5Catch16TestCaseTracking11TrackerBase23isSuccessfullyCompletedEv
FNDA:64,_ZNK5Catch21TestInvokerAsFunction6invokeEv
FNDA:65,_ZN5Catch7seedRngERKNS_7IConfigE
FNDA:65,_ZNK5Catch21StreamingReporterBaseINS_15ConsoleReporterEE14getPreferencesEv
FNDA:65,_ZNK5Catch6Config7rngSeedEv
FNDA:67,_ZNK5Catch6Config10abortAfterEv
FNDA:68,_ZNK5Catch5clara6detail8BoundRef11isContainerEv
FNDA:69,_ZNK5Catch5clara6detail13ParserRefImplINS1_3OptEE11cardinalityEv
FNDA:75,_ZNK5Catch5clara6detail11BasicResultINS1_10ParseStateEE9enforceOkEv
FNDA:80,_ZN5Catch16TestCaseTracking11TrackerBase8addChildERKSt10shared_ptrINS0_8ITrackerEE
FNDA:81,_ZN5Catch16TestCaseTracking11TrackerBaseC2ERKNS0_15NameAndLocationERNS0_14TrackerContextEPNS0_8ITrackerE
FNDA:128,_ZN5Catch10RunContext14sectionStartedERKNS_11SectionInfoERNS_6CountsE
FNDA:128,_ZN5Catch10RunContext24testForMissingAssertionsERNS_6CountsE
FNDA:128,_ZN5Catch11SectionInfoC2ERKNS_14SourceLineInfoERKNSt7__cxx1112basic_stringIcSt11char_traitsIcESaIcEEE
FNDA:128,_ZN5Catch15ConsoleReporter12sectionEndedERKNS_12SectionStatsE
FNDA:128,_ZN5Catch15ConsoleReporter15sectionStartingERKNS_11SectionInfoE
FNDA:128,_ZN5Catch16TestCaseTracking11TrackerBase6parentEv
FNDA:128,_ZN5Catch18shouldShowDurationERKNS_7IConfigEd
FNDA:128,_ZN5Catch7SectionC2ERKNS_11SectionInfoE
FNDA:128,_ZN5Catch7SectionD2Ev
FNDA:128,_ZNK5Catch16TestCaseTracking11TrackerBase16isSectionTrackerEv
FNDA:128,_ZNK5Catch16TestCaseTracking11TrackerBase6isOpenEv
FNDA:128,_ZNK5Catch6Config11minDurationEv
FNDA:128,_ZNK5Catch7SectioncvbEv
FNDA:160,_ZN5Catch10RunContext10handleExprERKNS_13AssertionInfoERKNS_20ITransientExpressionERNS_17AssertionReactionE
FNDA:160,_ZN5Catch10RunContext15assertionPassedEv
FNDA:160,_ZN5Catch15ConsoleReporter17assertionStartingERKNS_13AssertionInfoE
FNDA:160,_ZN5Catch16AssertionHandler10handleExprERKNS_20ITransientExpressionE
FNDA:160,_ZN5Catch16AssertionHandler8completeEv
FNDA:160,_ZN5Catch16AssertionHandlerC2ERKNS_9StringRefERKNS_14SourceLineInfoES1_NS_17ResultDisposition5FlagsE
FNDA:160,_ZN5Catch16TestCaseTracking14SectionTracker7tryOpenEv
FNDA:160,_ZN5Catch20ITransientExpressionD2Ev
FNDA:188,_ZN5Catch10Generators20GeneratorUntypedBaseD2Ev
FNDA:192,_ZN5Catch16TestCaseTracking14SectionTracker7acquireERNS0_14TrackerContextERKNS0_15NameAndLocationE
FNDA:193,_ZNK5Catch16TestCaseTracking14SectionTracker16isSectionTrackerEv
FNDA:256,_ZNK5Catch16TestCaseTracking11TrackerBase10hasStartedEv
FNDA:256,_ZNK5Catch6Config13showDurationsEv
FNDA:257,_ZN5Catch12TablePrinter5closeEv
FNDA:273,_ZNK5Catch10Generators16GeneratorTracker18isGeneratorTrackerEv
FNDA:303,_ZN5Catch11NameAndTagsC2ERKNS_9StringRefES3_
FNDA:303,_ZN5Catch12TestCaseInfoC2ERKNSt7__cxx1112basic_stringIcSt11char_traitsIcESaIcEEES8_S8_RKSt6vectorIS6_SaIS6_EERKNS_14SourceLineInfoE
FNDA:303,_ZN5Catch12TestRegistry12registerTestERKNS_8TestCaseE
FNDA:303,_ZN5Catch12_GLOBAL__N_111RegistryHub12registerTestERKNS_8TestCaseE
FNDA:303,_ZN5Catch12makeTestCaseEPNS_12ITestInvokerERKNSt7__cxx1112basic_stringIcSt11char_traitsIcESaIcEEERKNS_11NameAndTagsERKNS_14SourceLineInfoE
FNDA:303,_ZN5Catch15makeTestInvokerEPFvvE
FNDA:303,_ZN5Catch16extractClassNameB5cxx11ERKNS_9StringRefE
FNDA:303,_ZN5Catch7AutoRegC2EPNS_12ITestInvokerERKNS_14SourceLineInfoERKNS_9StringRefERKNS_11NameAndTagsE
FNDA:303,_ZN5Catch7AutoRegD2Ev
FNDA:303,_ZN5Catch7setTagsERNS_12TestCaseInfoESt6vectorINSt7__cxx1112basic_stringIcSt11char_traitsIcESaIcEEESaIS8_EE
FNDA:303,_ZN5Catch8TestCaseC2EPNS_12ITestInvokerEONS_12TestCaseInfoE
FNDA:303,_ZNK5Catch15WildcardPattern7matchesERKNSt7__cxx1112basic_stringIcSt11char_traitsIcESaIcEEE
FNDA:303,_ZNK5Catch8TestSpec11NamePattern7matchesERKNS_12TestCaseInfoE
FNDA:304,_ZNK5Catch15WildcardPattern15normaliseStringERKNSt7__cxx1112basic_stringIcSt11char_traitsIcESaIcEEE
FNDA:312,_ZN5Catch9SingletonINS_12_GLOBAL__N_111RegistryHubENS_12IRegistryHubENS_19IMutableRegistryHubEE11getInternalEv
FNDA:320,_ZN5Catch10Generators16GeneratorTracker5closeEv
FNDA:320,_ZN5Catch10Generators16GeneratorTracker7acquireERNS_16TestCaseTracking14TrackerContextERKNS2_15NameAndLocationE
FNDA:320,_ZN5Catch10Generators23acquireGeneratorTrackerENS_9StringRefERKNS_14SourceLineInfoE
FNDA:320,_ZN5Catch10RunContext23acquireGeneratorTrackerENS_9StringRefERKNS_14SourceLineInfoE
FNDA:320,_ZN5Catch16TestCaseTrackingeqERKNS0_15NameAndLocationES3_
FNDA:320,_ZNK5Catch10Generators16GeneratorTracker12getGeneratorEv
FNDA:320,_ZNK5Catch10Generators16GeneratorTracker12hasGeneratorEv
FNDA:320,_ZZN5Catch10Generators16GeneratorTracker5closeEvENKUlvE_clEv
FNDA:341,_ZN5Catch4trimERKNSt7__cxx1112basic_stringIcSt11char_traitsIcESaIcEEE
FNDA:368,_ZNK5Catch16TestCaseTracking14SectionTracker10isCompleteEv
FNDA:448,_ZN5Catch16TestCaseTracking11TrackerBase5closeEv
FNDA:496,_ZNK5Catch14SourceLineInfoeqERKS0_
FNDA:496,_ZZN5Catch16TestCaseTracking11TrackerBase9findChildERKNS0_15NameAndLocationEENKUlRKSt10shared_ptrINS0_8ITrackerEEE_clES9_
FNDA:512,_ZN5Catch16TestCaseTracking11TrackerBase9findChildERKNS0_15NameAndLocationE
FNDA:640,_ZNK5Catch16TestCaseTracking11TrackerBase10isCompleteEv
FNDA:672,_ZN5Catch16getResultCaptureEv
FNDA:672,_ZN5Catch7Context16getResultCaptureEv
FNDA:832,_ZN5Catch16TestCaseTracking11TrackerBase9openChildEv
FNDA:1003,_ZN5Catch12_GLOBAL__N_113isReservedTagERKNSt7__cxx1112basic_stringIcSt11char_traitsIcESaIcEEE
FNDA:1003,_ZN5Catch12_GLOBAL__N_121enforceNotReservedTagERKNSt7__cxx1112basic_stringIcSt11char_traitsIcESaIcEEERKNS_14SourceLineInfoE
FNDA:1242,_ZN5Catch9StringRefC2EPKc
FNDA:1310,_ZN5Catch14toLowerInPlaceERNSt7__cxx1112basic_stringIcSt11char_traitsIcESaIcEEE
FNDA:1310,_ZN5Catch7toLowerERKNSt7__cxx1112basic_stringIcSt11char_traitsIcESaIcEEE
FNDA:3009,_ZN5Catch12_GLOBAL__N_115parseSpecialTagERKNSt7__cxx1112basic_stringIcSt11char_traitsIcESaIcEEE
FNDA:27573,_ZN5Catch12_GLOBAL__N_19toLowerChEc
FNF:1487
FNH:311
DA:505,610
DA:506,609
DA:507,609
DA:538,0
DA:572,303
DA:618,160
DA:622,0
DA:623,1242
DA:624,1242
DA:627,1
DA:628,1
DA:629,1
DA:632,926
DA:633,926
DA:642,0
DA:643,0
DA:644,0
DA:648,1
DA:649,1
DA:651,0
DA:652,0
DA:668,0
DA:669,0
DA:673,303
DA:674,303
DA:1388,160
DA:1433,1
DA:1450,0
DA:1451,0
DA:1452,3
DA:1454,0
DA:1466,0
DA:1476,1
DA:1559,0
DA:1560,0
DA:1595,0
DA:1596,0
DA:1619,0
DA:1620,0
DA:1623,0
DA:1624,0
DA:1630,0
DA:1632,0
DA:1644,0
DA:1645,0
DA:1649,0
DA:1650,0
DA:1798,0
DA:1799,0
DA:1800,0
DA:1802,0
DA:2203,0
DA:2204,160
DA:2207,160
DA:2208,0
DA:2209,160
DA:2224,160
DA:2229,0
DA:2231,0
DA:2232,0
DA:2235,160
DA:2239,160
DA:2300,0
DA:2303,0
DA:2304,0
DA:2305,0
DA:2308,0
DA:2310,0
DA:2316,0
DA:2327,96
DA:2331,0
DA:2341,160
DA:2344,0
DA:2345,0
DA:2347,0
DA:2348,0
DA:2352,96
DA:2353,96
DA:2360,0
DA:2361,0
DA:2364,64
DA:2365,64
DA:2368,0
DA:2369,0
DA:2372,0
DA:2373,0
DA:2402,0
DA:2403,0
DA:2416,160
DA:2417,160
DA:2420,0
DA:2421,0
DA:2458,1
DA:2543,160
DA:2560,160
DA:2561,160
DA:2562,0
DA:2567,0
DA:2568,0
DA:2569,0
DA:2599,0
DA:2616,0
DA:2619,0
DA:2620,0
DA:2633,0
DA:2634,0
DA:2635,0
DA:2663,0
DA:2664,0
DA:2665,0
DA:2668,0
DA:2669,0
DA:2670,0
DA:2671,0
DA:2829,128
DA:2842,1
DA:2860,3
DA:2876,64
DA:2894,128
DA:2965,1
DA:2976,1
DA:3015,1
DA:3105,0
DA:3109,0
DA:3110,0
DA:3111,0
DA:3140,0
DA:3141,0
DA:3150,0
DA:3151,0
DA:3152,0
DA:3157,0
DA:3158,0
DA:3159,0
DA:3216,0
DA:3245,0
DA:3262,0
DA:3280,0
DA:3403,0
DA:3404,0
DA:3405,0
DA:3538,0
DA:3556,0
DA:3770,0
DA:3775,0
DA:3776,0
DA:3779,0
DA:3782,0
DA:3783,0
DA:3784,0
DA:3785,0
DA:3786,0
DA:3788,0
DA:3789,0
DA:3845,47
DA:3847,141
DA:3859,47
DA:3877,0
DA:3878,0
DA:3935,77
DA:3936,107
DA:3941,188
DA:3942,47
DA:3953,0
DA:3956,94
DA:3958,320
DA:3959,320
DA:3961,94
DA:3962,94
DA:3986,329
DA:3989,94
DA:3990,94
DA:3992,320
DA:3993,320
DA:3995,94
DA:3996,94
DA:4001,94
DA:4002,94
DA:4010,47
DA:4014,47
DA:4015,47
DA:4016,0
DA:4017,47
DA:4018,47
DA:4019,47
DA:4021,0
DA:4022,0
DA:4025,15
DA:4026,47
DA:4027,47
DA:4028,47
DA:4032,47
DA:4033,47
DA:4034,47
DA:4035,47
DA:4037,320
DA:4038,320
DA:4041,94
DA:4042,94
DA:4045,94
DA:4046,94
DA:4047,94
DA:4049,94
DA:4063,47
DA:4064,47
DA:4067,0
DA:4068,0
DA:4071,47
DA:4072,47
DA:4085,320
DA:4088,320
DA:4089,320
DA:4090,141
DA:4093,320
DA:4094,320
DA:4358,1
DA:4367,1
DA:4381,685
DA:4383,685
DA:4384,1
DA:4386,685
DA:4389,683
DA:4391,1366
DA:4411,3
DA:4419,5
DA:4420,5
DA:4421,2
DA:4431,3
DA:4432,3
DA:4433,6
DA:4434,3
DA:4437,13
DA:4438,3
DA:4439,1
DA:4440,3
DA:4443,0
DA:4444,0
DA:4445,0
DA:4448,0
DA:4449,0
DA:4452,1
DA:4456,1
DA:4457,1
DA:4512,1
DA:4570,0
DA:4667,0
DA:4674,0
DA:4678,0
DA:4680,0
DA:4681,0
DA:4682,0
DA:4683,0
DA:4685,0
DA:4686,0
DA:4689,0
DA:4690,0
DA:4693,0
DA:4694,0
DA:4695,0
DA:4706,0
DA:4708,0
DA:4807,511
DA:4840,1
DA:5091,0
DA:5111,4
DA:5147,4
DA:5155,1
DA:5187,1
DA:5243,0
DA:5244,0
DA:5245,0
DA:5246,0
DA:5247,0
DA:5322,3
DA:5397,0
DA:5481,1
DA:5494,1
DA:5500,5
DA:5501,3
DA:5502,3
DA:5503,3
DA:5506,5
DA:5507,8
DA:5508,5
DA:5513,2
DA:5517,3
DA:5532,0
DA:5548,0
DA:5550,0
DA:5567,0
DA:5586,0
DA:5602,0
DA:5651,1
DA:5652,1
DA:5662,0
DA:5696,4
DA:5703,1
DA:5738,1
DA:5740,0
DA:5742,1
DA:5743,2
DA:5744,0
DA:5745,1
DA:5747,65
DA:5748,65
DA:5751,1
DA:5752,1
DA:5755,1
DA:5757,0
DA:5759,0
DA:5761,1
DA:5762,2
DA:5763,0
DA:5765,1
DA:5766,1
DA:5767,1
DA:5769,1
DA:5770,1
DA:5771,1
DA:5772,128
DA:5773,128
DA:5774,0
DA:5776,128
DA:5777,256
DA:5778,0
DA:5779,1
DA:5780,2
DA:5781,0
DA:5782,1
DA:5783,2
DA:5784,0
DA:5785,1
DA:5786,1
DA:5787,1
DA:5788,1
DA:5789,1
DA:5791,0
DA:5794,0
DA:5811,0
DA:5812,0
DA:5819,0
DA:5820,0
DA:5839,0
DA:5840,0
DA:5841,0
DA:5842,0
DA:5843,0
DA:5855,0
DA:5857,0
DA:5859,0
DA:5860,0
DA:5861,0
DA:5862,0
DA:5863,0
DA:5865,0
DA:5866,0
DA:5869,0
DA:5870,0
DA:5873,0
DA:5874,0
DA:5876,0
DA:5878,0
DA:5879,0
DA:5880,0
DA:5881,0
DA:5882,0
DA:5883,0
DA:5884,0
DA:5887,0
DA:5889,0
DA:5891,0
DA:5892,0
DA:5893,0
DA:5894,0
DA:5897,0
DA:5899,0
DA:5900,0
DA:5901,0
DA:5903,0
DA:5905,0
DA:5906,0
DA:5912,0
DA:5913,0
DA:5914,0
DA:5915,0
DA:5917,0
DA:5918,0
DA:5919,0
DA:5920,0
DA:5921,0
DA:5922,0
DA:5923,0
DA:5924,0
DA:5925,0
DA:5926,0
DA:5927,0
DA:5928,0
DA:5930,0
DA:5931,0
DA:5932,0
DA:5933,0
DA:5934,0
DA:5935,0
DA:5936,0
DA:5937,0
DA:5938,0
DA:5939,0
DA:5940,0
DA:5941,0
DA:5942,0
DA:5943,0
DA:5944,0
DA:5947,0
DA:5965,0
DA:5967,0
DA:5968,0
DA:5969,0
DA:6053,4
DA:6055,1
DA:6056,1
DA:6059,0
DA:6060,0
DA:6066,4
DA:6067,8
DA:6068,4
DA:6120,0
DA:6234,0
DA:6264,0
DA:6265,0
DA:6266,0
DA:6291,0
DA:6292,0
DA:6293,0
DA:6294,0
DA:7478,0
DA:7483,320
DA:7484,320
DA:7485,320
DA:7497,81
DA:7498,162
DA:7502,1248
DA:7503,496
DA:7531,1
DA:7580,256
DA:7581,256
DA:7869,0
DA:7870,0
DA:7878,0
DA:7882,0
DA:7883,0
DA:7885,0
DA:7886,0
DA:7889,0
DA:7890,0
DA:7891,0
DA:7892,0
DA:7895,0
DA:7896,0
DA:7897,0
DA:7898,0
DA:7901,0
DA:7904,0
DA:7905,0
DA:7908,0
DA:7909,0
DA:7912,0
DA:7913,0
DA:7915,0
DA:7916,0
DA:7919,0
DA:7920,0
DA:7925,0
DA:7926,0
DA:7928,0
DA:7929,0
DA:7933,0
DA:7934,0
DA:8024,64
DA:8025,64
DA:8026,64
DA:8027,64
DA:8028,64
DA:8030,64
DA:8031,64
DA:8032,64
DA:8033,128
DA:8034,64
DA:8041,64
DA:8042,64
DA:8043,64
DA:8045,64
DA:8046,0
DA:8190,0
DA:8191,0
DA:8192,0
DA:8196,0
DA:8197,0
DA:8198,0
DA:8200,0
DA:8202,0
DA:8203,0
DA:8206,0
DA:8207,0
DA:8208,0
DA:8210,0
DA:8211,0
DA:8212,0
DA:8214,0
DA:8217,0
DA:8219,0
DA:8222,160
DA:8226,160
DA:8228,160
DA:8229,160
DA:8231,160
DA:8232,160
DA:8233,0
DA:8234,0
DA:8235,0
DA:8236,0
DA:8238,0
DA:8239,0
DA:8242,160
DA:8243,160
DA:8244,160
DA:8250,0
DA:8252,160
DA:8254,0
DA:8259,160
DA:8260,160
DA:8261,160
DA:8262,0
DA:8264,0
DA:8265,0
DA:8266,0
DA:8268,0
DA:8269,0
DA:8270,0
DA:8271,0
DA:8272,0
DA:8273,0
DA:8275,0
DA:8276,0
DA:8277,0
DA:8279,0
DA:8280,0
DA:8281,0
DA:8285,0
DA:8286,0
DA:8287,0
DA:8294,0
DA:8296,0
DA:8298,0
DA:8300,0
DA:8301,0
DA:8302,0
DA:8303,0
DA:8304,0
DA:8307,0
DA:8310,0
DA:8312,0
DA:8313,0
DA:8316,0
DA:8317,0
DA:8321,0
DA:8322,0
DA:8325,0
DA:8326,0
DA:8329,0
DA:8330,0
DA:8333,0
DA:8334,0
DA:8337,0
DA:8339,0
DA:8340,0
DA:8341,0
DA:8343,0
DA:8344,0
DA:8345,0
DA:8347,0
DA:8350,0
DA:8351,0
DA:8352,0
DA:8353,0
DA:8355,0
DA:8356,0
DA:8357,0
DA:8358,0
DA:8359,0
DA:8361,0
DA:8364,0
DA:8365,0
DA:8368,0
DA:8369,0
DA:8370,0
DA:8372,0
DA:8375,0
DA:8376,0
DA:8378,0
DA:8379,0
DA:8382,0
DA:8383,0
DA:8397,0
DA:8398,0
DA:8399,0
DA:8400,0
DA:8401,0
DA:8478,0
DA:8479,0
DA:8480,0
DA:8482,0
DA:8483,0
DA:8484,0
DA:8486,0
DA:8487,0
DA:8488,0
DA:8493,0
DA:8511,0
DA:8512,0
DA:8513,0
DA:8515,0
DA:8517,0
DA:8518,0
DA:8519,0
DA:8521,0
DA:8522,0
DA:8523,0
DA:8524,0
DA:8527,0
DA:8528,0
DA:8530,0
DA:8531,0
DA:8532,0
DA:8533,0
DA:8534,0
DA:8536,0
DA:8537,0
DA:8539,0
DA:8540,0
DA:8543,0
DA:8544,0
DA:8545,0
DA:8546,0
DA:8548,0
DA:8549,0
DA:8551,0
DA:8552,0
DA:8555,0
DA:8557,0
DA:8558,0
DA:8559,0
DA:8562,0
DA:8563,0
DA:8573,0
DA:8574,0
DA:8575,0
DA:8576,0
DA:8577,0
DA:8578,0
DA:8579,0
DA:8581,0
DA:8582,0
DA:8583,0
DA:8584,0
DA:8587,0
DA:8588,0
DA:8589,0
DA:8590,0
DA:8592,0
DA:8593,0
DA:8595,0
DA:8596,0
DA:8597,0
DA:8599,0
DA:8600,0
DA:8601,0
DA:8609,0
DA:8610,0
DA:8611,0
DA:8612,0
DA:8613,0
DA:8615,0
DA:8616,0
DA:8621,0
DA:8623,0
DA:8624,0
DA:8625,0
DA:8626,0
DA:8628,0
DA:8629,0
DA:8630,0
DA:8632,0
DA:8633,0
DA:8634,0
DA:8637,0
DA:8638,0
DA:8639,0
DA:8641,0
DA:8642,0
DA:8643,0
DA:8644,0
DA:8647,0
DA:8648,0
DA:8650,0
DA:8662,0
DA:8665,0
DA:8666,0
DA:8667,0
DA:8670,0
DA:8675,0
DA:8683,0
DA:8684,0
DA:8685,0
DA:8686,0
DA:8688,0
DA:8689,0
DA:8690,0
DA:8699,0
DA:8700,0
DA:8701,0
DA:8702,0
DA:8704,0
DA:8705,0
DA:8706,0
DA:8711,0
DA:8712,0
DA:8714,0
DA:8715,0
DA:8717,0
DA:8718,0
DA:8719,0
DA:8720,0
DA:8721,0
DA:8722,0
DA:8723,0
DA:8725,0
DA:8727,0
DA:8730,0
DA:8732,0
DA:8733,0
DA:8734,0
DA:8735,0
DA:8737,0
DA:8747,0
DA:8748,0
DA:8750,0
DA:8751,0
DA:8752,0
DA:8754,0
DA:8755,0
DA:8756,0
DA:8757,0
DA:8760,0
DA:8762,0
DA:8763,0
DA:8764,0
DA:8767,0
DA:8768,0
DA:8770,0
DA:8780,0
DA:8781,0
DA:8782,0
DA:8783,0
DA:8784,0
DA:8832,1
DA:8833,1
DA:8834,1
DA:8841,1
DA:8842,1
DA:8851,544
DA:8856,1
DA:8857,1
DA:8865,36
DA:8871,2
DA:8872,2
DA:8875,1
DA:8876,2
DA:8878,2
DA:8879,1
DA:8880,1
DA:8881,0
DA:8882,0
DA:8883,0
DA:8884,0
DA:8886,0
DA:8887,0
DA:8888,0
DA:8889,0
DA:8890,0
DA:8893,0
DA:8897,1
DA:8900,2
DA:8903,1
DA:8905,1
DA:8906,1
DA:8907,1
DA:8909,37
DA:8910,1
DA:8915,1
DA:8916,1
DA:8917,1
DA:8920,36
DA:8921,0
DA:8922,36
DA:8925,1
DA:8926,1
DA:8927,0
DA:8929,1
DA:8930,1
DA:8931,1
DA:8933,1
DA:8937,36
DA:8944,75
DA:8945,38
DA:8955,75
DA:8956,75
DA:8961,0
DA:8968,39
DA:8969,76
DA:8972,36
DA:8973,36
DA:8974,72
DA:8975,36
DA:8976,36
DA:8977,36
DA:8978,36
DA:8981,2
DA:8982,0
DA:8983,0
DA:8984,2
DA:8992,0
DA:8994,36
DA:8998,38
DA:9001,0
DA:9003,0
DA:9005,0
DA:9006,0
DA:9009,76
DA:9010,36
DA:9011,0
DA:9012,0
DA:9014,75
DA:9015,0
DA:9016,0
DA:9019,75
DA:9023,75
DA:9024,75
DA:9025,75
DA:9026,0
DA:9027,75
DA:9031,0
DA:9033,0
DA:9035,0
DA:9036,0
DA:9038,112
DA:9046,109
DA:9049,37
DA:9050,37
DA:9051,74
DA:9052,36
DA:9054,37
DA:9055,76
DA:9066,0
DA:9072,0
DA:9073,0
DA:9074,0
DA:9075,0
DA:9076,0
DA:9077,0
DA:9079,0
DA:9081,2
DA:9082,4
DA:9083,1
DA:9085,0
DA:9086,0
DA:9087,0
DA:9088,0
DA:9089,0
DA:9090,0
DA:9091,0
DA:9093,0
DA:9094,0
DA:9115,37
DA:9116,11
DA:9117,68
DA:9118,1
DA:9120,31
DA:9123,17
DA:9125,0
DA:9132,9
DA:9134,1
DA:9135,1
DA:9143,2
DA:9145,2
DA:9147,1
DA:9148,1
DA:9149,1
DA:9150,1
DA:9151,1
DA:9152,1
DA:9159,14
DA:9161,0
DA:9162,0
DA:9163,0
DA:9172,0
DA:9173,0
DA:9180,0
DA:9181,0
DA:9182,0
DA:9187,0
DA:9188,0
DA:9189,0
DA:9190,0
DA:9192,0
DA:9196,10
DA:9200,10
DA:9202,0
DA:9203,0
DA:9208,1
DA:9214,2
DA:9216,0
DA:9217,0
DA:9225,37
DA:9228,36
DA:9230,0
DA:9232,1
DA:9233,3
DA:9238,37
DA:9256,16
DA:9260,10
DA:9262,20
DA:9263,10
DA:9266,10
DA:9268,20
DA:9269,10
DA:9271,36
DA:9272,36
DA:9276,1
DA:9277,1
DA:9286,0
DA:9287,0
DA:9290,70
DA:9291,70
DA:9294,68
DA:9297,0
DA:9310,1
DA:9312,1
DA:9313,1
DA:9314,1
DA:9322,0
DA:9323,0
DA:9326,0
DA:9327,1
DA:9329,1
DA:9330,1
DA:9332,2
DA:9334,1
DA:9335,1
DA:9336,1
DA:9338,0
DA:9342,11
DA:9344,2
DA:9346,1
DA:9347,2
DA:9348,1
DA:9349,0
DA:9351,2
DA:9352,2
DA:9353,1
DA:9354,0
DA:9356,1
DA:9357,1
DA:9359,2
DA:9360,1
DA:9361,0
DA:9363,2
DA:9367,0
DA:9373,0
DA:9376,630
DA:9382,4
DA:9384,14
DA:9387,10
DA:9390,9
DA:9392,55
DA:9393,16
DA:9394,4
DA:9397,0
DA:9398,0
DA:9399,0
DA:9400,0
DA:9401,0
DA:9404,0
DA:9405,0
DA:9407,0
DA:9408,0
DA:9409,0
DA:9412,0
DA:9413,0
DA:9414,0
DA:9415,0
DA:9416,0
DA:9423,35
DA:9424,70
DA:9425,35
DA:9426,0
DA:9428,70
DA:9429,35
DA:9430,0
DA:9431,0
DA:9432,0
DA:9433,0
DA:9434,0
DA:9435,0
DA:9436,0
DA:9437,0
DA:9438,0
DA:9440,0
DA:9441,0
DA:9442,0
DA:9443,0
DA:9444,0
DA:9445,0
DA:9446,0
DA:9447,0
DA:9448,0
DA:9449,0
DA:9450,0
DA:9451,0
DA:9453,0
DA:9456,70
DA:9459,35
DA:9460,35
DA:9461,0
DA:9462,90
DA:9463,55
DA:9464,0
DA:9469,55
DA:9470,0
DA:9473,35
DA:9477,0
DA:9478,1
DA:9479,1
DA:9480,0
DA:9481,0
DA:9482,1
DA:9484,1
DA:9485,3
DA:9486,3
DA:9487,1
DA:9488,1
DA:9497,1
DA:9498,1
DA:9499,1
DA:9502,1
DA:9503,1
DA:9504,1
DA:9507,35
DA:9508,35
DA:9509,35
DA:9519,37
DA:9520,37
DA:9529,0
DA:9530,0
DA:9531,0
DA:9532,0
DA:9533,0
DA:9535,0
DA:9538,0
DA:9539,0
DA:9540,0
DA:9541,0
DA:9542,0
DA:9543,0
DA:9546,0
DA:9547,0
DA:9548,0
DA:9551,0
DA:9552,0
DA:9553,0
DA:9555,0
DA:9556,0
DA:9557,0
DA:9558,0
DA:9559,0
DA:9562,0
DA:9563,0
DA:9564,0
DA:9565,0
DA:9566,0
DA:9568,0
DA:9570,0
DA:9571,0
DA:9572,0
DA:9573,0
DA:9574,0
DA:9575,0
DA:9577,0
DA:9579,0
DA:9580,0
DA:9581,0
DA:9584,0
DA:9585,0
DA:9586,0
DA:9587,0
DA:9588,0
DA:9590,0
DA:9591,0
DA:9592,0
DA:9593,0
DA:9595,0
DA:9600,1
DA:9602,1
DA:9606,1
DA:9607,1
DA:9609,1
DA:9611,1
DA:9612,1
DA:9613,36
DA:9614,2
DA:9617,1
DA:9619,2
DA:9620,5
DA:9621,36
DA:9623,36
DA:9624,36
DA:9625,36
DA:9626,108
DA:9627,36
DA:9628,0
DA:9629,36
DA:9630,1
DA:9631,1
DA:9632,1
DA:9637,1
DA:9638,0
DA:9639,1
DA:9640,0
DA:9643,1
DA:9649,1
DA:9650,1
DA:9704,1
DA:9706,1
DA:9708,1
DA:9709,0
DA:9710,0
DA:9713,0
DA:9714,0
DA:9717,0
DA:9719,0
DA:9720,0
DA:9721,0
DA:9722,0
DA:9723,1
DA:9724,1
DA:9725,0
DA:9726,0
DA:9727,0
DA:9729,0
DA:9730,0
DA:9731,0
DA:9732,0
DA:9733,0
DA:9734,0
DA:9735,0
DA:9736,0
DA:9740,0
DA:9741,0
DA:9743,0
DA:9744,1
DA:9745,1
DA:9746,0
DA:9747,0
DA:9748,0
DA:9749,0
DA:9750,0
DA:9751,0
DA:9753,0
DA:9754,0
DA:9755,1
DA:9756,1
DA:9757,0
DA:9758,0
DA:9759,0
DA:9760,0
DA:9761,1
DA:9762,1
DA:9763,0
DA:9765,0
DA:9766,0
DA:9767,0
DA:9768,0
DA:9769,0
DA:9770,0
DA:9772,0
DA:9773,0
DA:9774,1
DA:9775,1
DA:9776,0
DA:9777,0
DA:9778,0
DA:9779,0
DA:9780,0
DA:9781,0
DA:9782,0
DA:9783,0
DA:9784,0
DA:9786,0
DA:9787,0
DA:9788,1
DA:9789,1
DA:9790,0
DA:9791,0
DA:9792,0
DA:9793,0
DA:9794,0
DA:9795,0
DA:9796,0
DA:9798,0
DA:9799,0
DA:9800,1
DA:9801,1
DA:9802,0
DA:9804,0
DA:9805,0
DA:9807,0
DA:9808,0
DA:9810,0
DA:9811,0
DA:9812,1
DA:9814,1
DA:9815,2
DA:9816,3
DA:9817,4
DA:9818,3
DA:9819,3
DA:9820,4
DA:9821,3
DA:9822,3
DA:9823,4
DA:9824,3
DA:9825,3
DA:9826,4
DA:9827,3
DA:9828,3
DA:9829,4
DA:9830,3
DA:9831,3
DA:9832,4
DA:9833,3
DA:9834,3
DA:9835,4
DA:9836,3
DA:9837,3
DA:9838,5
DA:9839,3
DA:9840,3
DA:9841,4
DA:9842,3
DA:9843,3
DA:9844,4
DA:9845,3
DA:9846,3
DA:9847,4
DA:9848,3
DA:9849,3
DA:9850,5
DA:9851,3
DA:9852,3
DA:9853,4
DA:9854,3
DA:9855,3
DA:9856,4
DA:9857,3
DA:9858,3
DA:9859,5
DA:9860,3
DA:9861,3
DA:9862,4
DA:9863,4
DA:9864,3
DA:9865,4
DA:9866,3
DA:9867,3
DA:9868,6
DA:9869,3
DA:9870,3
DA:9871,4
DA:9872,2
DA:9873,3
DA:9874,4
DA:9875,2
DA:9876,3
DA:9877,5
DA:9878,2
DA:9879,3
DA:9880,5
DA:9881,2
DA:9882,3
DA:9883,5
DA:9884,2
DA:9885,3
DA:9886,4
DA:9887,2
DA:9888,3
DA:9889,6
DA:9890,2
DA:9891,3
DA:9892,4
DA:9893,2
DA:9894,3
DA:9895,4
DA:9896,2
DA:9897,3
DA:9898,5
DA:9899,2
DA:9900,3
DA:9901,4
DA:9902,2
DA:9903,3
DA:9904,5
DA:9905,2
DA:9906,3
DA:9907,2
DA:9908,4
DA:9910,1
DA:9922,496
DA:9923,496
DA:9925,0
DA:9928,0
DA:9931,0
DA:9935,0
DA:9937,0
DA:9940,0
DA:9941,0
DA:9944,436
DA:9945,435
DA:9953,1
DA:9955,1
DA:9961,4
DA:9962,3
DA:9964,1
DA:9965,0
DA:9968,0
DA:9969,1
DA:9970,1
DA:9971,4
DA:9972,3
DA:9975,3
DA:9976,1
DA:9978,0
DA:9979,0
DA:9982,1
DA:9983,1
DA:9984,1
DA:9985,1
DA:9987,0
DA:9988,1
DA:9990,1
DA:9991,1
DA:9993,4
DA:9994,0
DA:9996,0
DA:9999,0
DA:10000,11
DA:10001,3
DA:10002,1
DA:10003,0
DA:10004,1
DA:10005,256
DA:10006,128
DA:10007,3
DA:10008,65
DA:10009,1
DA:10010,0
DA:10011,67
DA:10012,0
DA:10013,1
DA:10015,1
DA:10016,0
DA:10017,0
DA:10018,0
DA:10019,0
DA:10021,1
DA:10022,1
DA:10090,0
DA:10092,0
DA:10093,0
DA:10094,0
DA:10187,10
DA:10188,10
DA:10189,5
DA:10190,5
DA:10191,0
DA:10192,0
DA:10193,0
DA:10194,0
DA:10195,0
DA:10196,0
DA:10198,0
DA:10199,1
DA:10200,2
DA:10201,0
DA:10202,2
DA:10204,0
DA:10205,0
DA:10208,1
DA:10209,1
DA:10210,1
DA:10214,10
DA:10215,10
DA:10216,10
DA:10217,10
DA:10220,1
DA:10221,1
DA:10226,1
DA:10232,1
DA:10233,2
DA:10234,1
DA:10235,1
DA:10236,1
DA:10237,1
DA:10238,1
DA:10239,1
DA:10240,1
DA:10242,0
DA:10243,1
DA:10244,1
DA:10262,0
DA:10263,0
DA:10264,0
DA:10265,0
DA:10266,0
DA:10267,0
DA:10268,0
DA:10269,0
DA:10270,0
DA:10273,1
DA:10275,10
DA:10276,10
DA:10281,10
DA:10282,10
DA:10284,10
DA:10286,4
DA:10287,4
DA:10301,1
DA:10304,672
DA:10305,672
DA:10307,0
DA:10308,0
DA:10311,11
DA:10312,11
DA:10318,1
DA:10319,1
DA:10320,1
DA:10321,1
DA:10322,1
DA:10323,1
DA:10324,2
DA:10325,2
DA:10326,2
DA:10338,1
DA:10340,1
DA:10341,1
DA:10343,2
DA:10344,1
DA:10345,2
DA:10346,0
DA:10347,1
DA:10348,1
DA:10349,2
DA:10351,0
DA:10352,0
DA:10353,0
DA:10389,0
DA:10391,0
DA:10392,0
DA:10470,0
DA:10473,0
DA:10474,0
DA:10475,0
DA:10476,0
DA:10477,0
DA:10481,0
DA:10485,0
DA:10512,160
DA:10514,0
DA:10515,0
DA:10516,0
DA:10517,0
DA:10518,0
DA:10520,0
DA:10521,0
DA:10539,0
DA:10540,0
DA:10544,0
DA:10545,0
DA:10549,0
DA:10550,0
DA:10567,1
DA:10587,0
DA:10594,0
DA:10596,0
DA:10597,0
DA:10600,0
DA:10604,0
DA:10605,0
DA:10606,0
DA:10607,0
DA:10608,0
DA:10609,0
DA:10611,0
DA:10614,0
DA:10616,0
DA:10617,0
DA:10618,0
DA:10619,0
DA:10621,0
DA:10624,0
DA:10625,0
DA:10626,0
DA:10627,0
DA:10629,0
DA:10630,0
DA:10632,0
DA:10633,0
DA:10635,0
DA:10638,0
DA:10639,0
DA:10640,0
DA:10652,1
DA:10653,1
DA:10666,1
DA:10685,0
DA:10686,0
DA:10688,0
DA:10689,0
DA:10690,0
DA:10693,0
DA:10694,0
DA:10712,0
DA:10713,0
DA:10715,0
DA:10718,0
DA:10719,0
DA:10721,0
DA:10722,0
DA:10724,0
DA:10725,0
DA:10727,0
DA:10728,0
DA:10730,0
DA:10731,0
DA:10735,0
DA:10736,0
DA:10737,0
DA:10739,0
DA:10782,0
DA:10783,0
DA:10784,0
DA:10895,64
DA:10900,448
DA:10901,384
DA:10904,64
DA:10905,64
DA:10907,0
DA:10908,0
DA:10909,0
DA:10910,0
DA:10911,0
DA:10912,0
DA:10918,0
DA:10919,0
DA:10920,0
DA:10921,0
DA:10923,1
DA:10924,1
DA:10925,1
DA:10926,2
DA:10928,32769
DA:10929,1
DA:10931,2
DA:10932,1
DA:10935,1
DA:10936,0
DA:10938,64
DA:10939,64
DA:10940,64
DA:10941,64
DA:10942,64
DA:10943,64
DA:10944,64
DA:10946,64
DA:10947,64
DA:10948,448
DA:10949,384
DA:10951,64
DA:10957,64
DA:10958,64
DA:10959,0
DA:10972,47
DA:10974,0
DA:10975,0
DA:10980,188
DA:10982,320
DA:10983,320
DA:10992,1
DA:10998,1
DA:11004,0
DA:11005,0
DA:11011,0
DA:11012,0
DA:11073,1
DA:11074,1
DA:11076,0
DA:11077,0
DA:11079,2
DA:11080,2
DA:11082,1
DA:11084,2
DA:11086,2
DA:11089,1
DA:11090,0
DA:11092,0
DA:11094,0
DA:11097,0
DA:11099,0
DA:11101,0
DA:11104,0
DA:11105,0
DA:11106,0
DA:11108,0
DA:11110,0
DA:11112,0
DA:11114,128
DA:11117,128
DA:11121,64
DA:11122,0
DA:11124,128
DA:11126,1
DA:11130,1
DA:11135,2
DA:11136,1
DA:11138,1
DA:11140,1
DA:11142,1
DA:11145,1
DA:11146,1
DA:11148,0
DA:11150,0
DA:11151,0
DA:11153,1
DA:11155,1
DA:11157,1
DA:11160,1
DA:11161,1
DA:11163,0
DA:11165,0
DA:11166,0
DA:11168,0
DA:11169,0
DA:11176,1
DA:11182,0
DA:11183,1
DA:11207,0
DA:11211,1
DA:11212,1
DA:11213,1
DA:11227,0
DA:11257,0
DA:11258,0
DA:11259,0
DA:11260,0
DA:11262,0
DA:11265,0
DA:11266,0
DA:11267,0
DA:11268,0
DA:11269,0
DA:11270,0
DA:11272,0
DA:11273,0
DA:11274,0
DA:11275,0
DA:11276,0
DA:11277,0
DA:11278,0
DA:11280,0
DA:11281,0
DA:11284,0
DA:11285,0
DA:11287,0
DA:11288,0
DA:11291,0
DA:11292,0
DA:11293,0
DA:11294,0
DA:11295,0
DA:11296,0
DA:11297,0
DA:11298,0
DA:11300,0
DA:11301,0
DA:11302,0
DA:11303,0
DA:11305,0
DA:11308,0
DA:11309,0
DA:11310,0
DA:11311,0
DA:11313,0
DA:11314,0
DA:11315,0
DA:11317,0
DA:11320,0
DA:11321,0
DA:11322,0
DA:11323,0
DA:11324,0
DA:11326,0
DA:11329,0
DA:11330,0
DA:11331,0
DA:11332,0
DA:11334,0
DA:11337,0
DA:11339,0
DA:11340,0
DA:11341,0
DA:11342,0
DA:11343,0
DA:11344,0
DA:11345,0
DA:11346,0
DA:11350,0
DA:11351,0
DA:11352,0
DA:11353,0
DA:11354,0
DA:11355,0
DA:11356,0
DA:11357,0
DA:11358,0
DA:11360,0
DA:11361,0
DA:11364,0
DA:11365,0
DA:11366,0
DA:11367,0
DA:11368,0
DA:11369,0
DA:11371,0
DA:11372,0
DA:11373,0
DA:11374,0
DA:11375,0
DA:11376,0
DA:11377,0
DA:11378,0
DA:11379,0
DA:11380,0
DA:11382,0
DA:11383,0
DA:11386,1
DA:11387,1
DA:11388,3
DA:11389,1
DA:11390,0
DA:11391,1
DA:11392,0
DA:11393,1
DA:11394,0
DA:11395,1
DA:11396,0
DA:11397,1
DA:11408,0
DA:11409,0
DA:11410,0
DA:11411,0
DA:11414,0
DA:11430,0
DA:11431,0
DA:11434,0
DA:11435,0
DA:11439,0
DA:11440,0
DA:11488,0
DA:11489,0
DA:11490,0
DA:11491,0
DA:11492,0
DA:11495,0
DA:11496,0
DA:11497,0
DA:11498,0
DA:11499,0
DA:11503,0
DA:11506,0
DA:11510,0
DA:11511,0
DA:11513,0
DA:11515,0
DA:11519,0
DA:11520,0
DA:11536,0
DA:11537,0
DA:11541,0
DA:11549,0
DA:11550,0
DA:11554,0
DA:11555,0
DA:11556,0
DA:11557,0
DA:11558,0
DA:11570,0
DA:11571,0
DA:11572,0
DA:11574,0
DA:11578,0
DA:11579,0
DA:11582,0
DA:11583,0
DA:11586,0
DA:11587,0
DA:11588,0
DA:11591,0
DA:11599,0
DA:11600,0
DA:11601,0
DA:11602,0
DA:11603,0
DA:11604,0
DA:11605,0
DA:11606,0
DA:11614,0
DA:11615,0
DA:11617,0
DA:11619,0
DA:11620,0
DA:11621,0
DA:11623,0
DA:11626,0
DA:11627,0
DA:11628,0
DA:11629,0
DA:11630,0
DA:11633,0
DA:11634,0
DA:11635,0
DA:11637,0
DA:11639,0
DA:11642,0
DA:11644,0
DA:11645,0
DA:11646,0
DA:11647,0
DA:11649,0
DA:11650,0
DA:11651,0
DA:11652,0
DA:11655,0
DA:11656,0
DA:11657,0
DA:11658,0
DA:11663,0
DA:11664,0
DA:11667,0
DA:11668,0
DA:11671,0
DA:11672,0
DA:11675,0
DA:11676,0
DA:11679,0
DA:11680,0
DA:11683,0
DA:11684,0
DA:11687,0
DA:11688,0
DA:11696,0
DA:11697,0
DA:11698,0
DA:11700,0
DA:11713,0
DA:11715,0
DA:11716,0
DA:11717,0
DA:11718,0
DA:11720,0
DA:11722,0
DA:11723,0
DA:11725,0
DA:11728,0
DA:11730,0
DA:11731,0
DA:11733,0
DA:11734,0
DA:11735,0
DA:11736,0
DA:11737,0
DA:11738,0
DA:11739,0
DA:11740,0
DA:11741,0
DA:11742,0
DA:11745,0
DA:11747,0
DA:11748,0
DA:11751,0
DA:11753,0
DA:11754,0
DA:11757,0
DA:11759,0
DA:11760,0
DA:11763,0
DA:11765,0
DA:11766,0
DA:11769,0
DA:11771,0
DA:11772,0
DA:11773,0
DA:11774,0
DA:11776,0
DA:11777,0
DA:11780,0
DA:11781,0
DA:11786,0
DA:11787,0
DA:11789,0
DA:11790,0
DA:11792,0
DA:11793,0
DA:11795,0
DA:11796,0
DA:11799,0
DA:11800,0
DA:11820,0
DA:11822,0
DA:11826,0
DA:11827,0
DA:11829,0
DA:11830,0
DA:11833,0
DA:11834,0
DA:11842,0
DA:11844,0
DA:11845,0
DA:11849,0
DA:11850,0
DA:11852,0
DA:11853,0
DA:11854,0
DA:11856,0
DA:11857,0
DA:11859,0
DA:11860,0
DA:11862,0
DA:11863,0
DA:11864,0
DA:11866,0
DA:11868,0
DA:11869,0
DA:11870,0
DA:11871,0
DA:11873,0
DA:11874,0
DA:11876,0
DA:11877,0
DA:11878,0
DA:11879,0
DA:11880,0
DA:11881,0
DA:11882,0
DA:11883,0
DA:11885,0
DA:11886,0
DA:11888,0
DA:11889,0
DA:11890,0
DA:11891,0
DA:11892,0
DA:11893,0
DA:11894,0
DA:11895,0
DA:11899,0
DA:11901,0
DA:11902,0
DA:11903,0
DA:11905,0
DA:11907,0
DA:11908,0
DA:11909,0
DA:11911,0
DA:11912,0
DA:11913,0
DA:11914,0
DA:11915,0
DA:11920,0
DA:11921,0
DA:11922,0
DA:11923,0
DA:11924,0
DA:11925,0
DA:11926,0
DA:11927,0
DA:11928,0
DA:11929,0
DA:11931,0
DA:11933,0
DA:11934,0
DA:11935,0
DA:11936,0
DA:11937,0
DA:11938,0
DA:12070,0
DA:12073,0
DA:12075,0
DA:12076,0
DA:12078,0
DA:12079,0
DA:12080,0
DA:12082,0
DA:12083,0
DA:12085,0
DA:12087,0
DA:12088,0
DA:12089,0
DA:12091,0
DA:12093,0
DA:12094,0
DA:12096,0
DA:12097,0
DA:12098,0
DA:12099,0
DA:12194,0
DA:12195,0
DA:12197,0
DA:12198,0
DA:12223,0
DA:12224,0
DA:12225,0
DA:12226,0
DA:12235,0
DA:12236,0
DA:12237,0
DA:12239,0
DA:12240,0
DA:12241,0
DA:12242,0
DA:12243,0
DA:12244,0
DA:12246,0
DA:12249,0
DA:12250,0
DA:12252,0
DA:12254,0
DA:12256,0
DA:12257,0
DA:12260,0
DA:12262,0
DA:12265,0
DA:12266,0
DA:12269,0
DA:12270,0
DA:12300,1
DA:12338,1
DA:12367,0
DA:12381,1
DA:12402,1
DA:12419,2
DA:12427,4
DA:12429,315
DA:12431,315
DA:12432,2
DA:12433,2
DA:12435,315
DA:12439,5
DA:12440,0
DA:12442,310
DA:12443,4
DA:12458,1
DA:12459,2
DA:12460,2
DA:12462,1
DA:12463,1
DA:12465,0
DA:12466,0
DA:12468,1
DA:12469,1
DA:12471,1
DA:12472,1
DA:12476,4
DA:12477,8
DA:12478,4
DA:12479,0
DA:12480,0
DA:12481,0
DA:12482,303
DA:12483,303
DA:12484,303
DA:12485,0
DA:12486,0
DA:12487,0
DA:12488,0
DA:12489,0
DA:12490,0
DA:12491,0
DA:12493,0
DA:12497,0
DA:12498,0
DA:12499,0
DA:12514,5
DA:12515,0
DA:12517,307
DA:12518,4
DA:12520,2
DA:12521,2
DA:12522,2
DA:12523,2
DA:12524,0
DA:12525,0
DA:12534,0
DA:12536,1
DA:12537,1
DA:12538,1
DA:12539,1
DA:12540,2
DA:12543,4
DA:12544,4
DA:12545,0
DA:12546,0
DA:12547,0
DA:12548,0
DA:12550,0
DA:12551,0
DA:12553,1
DA:12554,1
DA:12563,0
DA:12564,0
DA:12566,0
DA:12567,0
DA:12570,0
DA:12571,0
DA:12574,0
DA:12575,0
DA:12591,47
DA:12592,47
DA:12596,320
DA:12597,640
DA:12599,320
DA:12611,320
DA:12612,0
DA:12613,0
DA:12614,0
DA:12615,0
DA:12616,640
DA:12617,273
DA:12618,273
DA:12619,546
DA:12621,47
DA:12622,141
DA:12625,320
DA:12626,320
DA:12629,640
DA:12633,273
DA:12634,320
DA:12635,320
DA:12637,320
DA:12638,320
DA:12646,640
DA:12648,320
DA:12652,512
DA:12655,256
DA:12656,256
DA:12657,256
DA:12664,0
DA:12667,0
DA:12668,0
DA:12670,0
DA:12673,0
DA:12675,0
DA:12677,0
DA:12681,0
DA:12682,0
DA:12683,0
DA:12685,0
DA:12686,0
DA:12687,0
DA:12688,0
DA:12692,320
DA:12698,320
DA:12699,414
DA:12700,94
DA:12701,47
DA:12702,47
DA:12704,320
DA:12707,320
DA:12708,320
DA:12710,47
DA:12711,47
DA:12712,47
DA:12714,94
DA:12717,1
DA:12718,2
DA:12721,1
DA:12723,4
DA:12725,1
DA:12726,1
DA:12727,1
DA:12728,1
DA:12729,1
DA:12731,5
DA:12732,2
DA:12733,1
DA:12735,1
DA:12736,1
DA:12737,1
DA:12739,1
DA:12740,3
DA:12741,1
DA:12743,1
DA:12744,1
DA:12746,1
DA:12747,1
DA:12749,1
DA:12751,1
DA:12753,1
DA:12755,1
DA:12756,1
DA:12757,1
DA:12758,64
DA:12759,64
DA:12760,64
DA:12761,64
DA:12762,64
DA:12764,1
DA:12765,0
DA:12766,0
DA:12767,0
DA:12768,0
DA:12770,1
DA:12771,1
DA:12775,2
DA:12777,1
DA:12778,1
DA:12780,2
DA:12783,0
DA:12784,0
DA:12787,0
DA:12788,0
DA:12791,0
DA:12792,0
DA:12793,0
DA:12794,0
DA:12795,0
DA:12796,0
DA:12797,0
DA:12798,0
DA:12800,0
DA:12803,0
DA:12808,0
DA:12810,0
DA:12811,0
DA:12814,0
DA:12815,0
DA:12816,0
DA:12817,160
DA:12818,160
DA:12819,0
DA:12820,0
DA:12822,128
DA:12823,128
DA:12824,128
DA:12826,64
DA:12828,64
DA:12830,64
DA:12832,64
DA:12834,64
DA:12836,320
DA:12837,320
DA:12838,320
DA:12839,320
DA:12840,320
DA:12841,320
DA:12844,128
DA:12845,128
DA:12847,0
DA:12849,0
DA:12851,0
DA:12852,0
DA:12853,0
DA:12856,64
DA:12857,64
DA:12858,128
DA:12860,64
DA:12861,64
DA:12862,64
DA:12865,64
DA:12866,64
DA:12867,64
DA:12868,64
DA:12870,0
DA:12871,0
DA:12872,0
DA:12874,0
DA:12875,0
DA:12877,0
DA:12878,0
DA:12895,0
DA:12896,0
DA:12897,0
DA:12899,0
DA:12900,0
DA:12901,0
DA:12903,0
DA:12904,0
DA:12905,0
DA:12907,0
DA:12908,0
DA:12909,0
DA:12910,0
DA:12913,0
DA:12914,0
DA:12917,0
DA:12918,0
DA:12919,0
DA:12921,0
DA:12923,0
DA:12927,0
DA:12928,0
DA:12929,0
DA:12931,0
DA:12933,0
DA:12936,0
DA:12937,0
DA:12939,0
DA:12940,0
DA:12941,0
DA:12942,0
DA:12944,0
DA:12946,0
DA:12947,0
DA:12948,0
DA:12949,0
DA:12951,0
DA:12952,0
DA:12953,0
DA:12954,0
DA:12955,0
DA:12956,0
DA:12957,0
DA:12959,0
DA:12960,0
DA:12963,160
DA:12964,160
DA:12965,160
DA:12966,160
DA:12967,160
DA:12968,160
DA:12970,67
DA:12971,66
DA:12974,64
DA:12975,64
DA:12976,0
DA:12977,64
DA:12978,64
DA:12979,64
DA:12980,64
DA:12981,64
DA:12983,64
DA:12985,64
DA:12986,64
DA:12987,64
DA:12989,0
DA:12991,0
DA:12992,0
DA:12999,128
DA:13000,64
DA:13002,128
DA:13003,0
DA:13005,0
DA:13008,0
DA:13009,0
DA:13010,0
DA:13013,64
DA:13014,128
DA:13016,64
DA:13017,64
DA:13018,64
DA:13019,64
DA:13021,128
DA:13022,64
DA:13023,64
DA:13025,64
DA:13026,64
DA:13027,64
DA:13028,64
DA:13030,64
DA:13033,64
DA:13034,64
DA:13035,64
DA:13036,64
DA:13037,0
DA:13038,64
DA:13039,64
DA:13041,160
DA:13046,160
DA:13048,160
DA:13049,160
DA:13051,160
DA:13052,160
DA:13053,160
DA:13056,0
DA:13060,0
DA:13061,0
DA:13063,160
DA:13064,0
DA:13070,0
DA:13071,0
DA:13073,0
DA:13074,0
DA:13076,0
DA:13077,0
DA:13079,0
DA:13085,0
DA:13087,0
DA:13089,0
DA:13090,0
DA:13091,0
DA:13092,0
DA:13093,0
DA:13094,0
DA:13095,0
DA:13096,0
DA:13100,0
DA:13101,0
DA:13103,0
DA:13108,0
DA:13110,0
DA:13111,0
DA:13112,0
DA:13113,0
DA:13114,0
DA:13115,0
DA:13117,0
DA:13118,0
DA:13119,0
DA:13120,0
DA:13122,0
DA:13125,0
DA:13127,0
DA:13128,0
DA:13129,0
DA:13130,0
DA:13131,0
DA:13132,0
DA:13137,0
DA:13139,0
DA:13140,0
DA:13141,0
DA:13143,0
DA:13144,0
DA:13145,0
DA:13147,672
DA:13148,672
DA:13149,672
DA:13151,0
DA:13154,65
DA:13155,65
DA:13156,0
DA:13157,0
DA:13159,65
DA:13161,0
DA:13162,0
DA:13171,128
DA:13173,128
DA:13175,256
DA:13176,128
DA:13178,128
DA:13179,128
DA:13180,128
DA:13181,64
DA:13182,0
DA:13184,64
DA:13186,128
DA:13189,128
DA:13190,128
DA:13199,192
DA:13201,192
DA:13203,192
DA:13204,128
DA:13301,1
DA:13302,1
DA:13303,1
DA:13305,1
DA:13308,1
DA:13309,1
DA:13310,3
DA:13318,1
DA:13319,0
DA:13320,0
DA:13321,0
DA:13322,0
DA:13324,0
DA:13325,0
DA:13330,1
DA:13331,1
DA:13332,5
DA:13334,1
DA:13335,1
DA:13336,1
DA:13338,0
DA:13339,0
DA:13340,0
DA:13341,0
DA:13343,2
DA:13344,2
DA:13346,1
DA:13348,1
DA:13349,1
DA:13350,1
DA:13351,1
DA:13352,2
DA:13353,1
DA:13354,1
DA:13356,0
DA:13359,2
DA:13360,1
DA:13361,0
DA:13362,0
DA:13366,1
DA:13367,0
DA:13368,0
DA:13371,1
DA:13372,1
DA:13384,0
DA:13385,0
DA:13386,0
DA:13387,0
DA:13389,0
DA:13390,0
DA:13391,0
DA:13392,0
DA:13393,0
DA:13397,0
DA:13400,0
DA:13401,0
DA:13402,0
DA:13405,0
DA:13406,0
DA:13408,0
DA:13412,1
DA:13413,1
DA:13414,1
DA:13415,0
DA:13416,0
DA:13421,1
DA:13422,1
DA:13423,0
DA:13424,0
DA:13426,0
DA:13427,0
DA:13428,0
DA:13430,0
DA:13431,0
DA:13432,0
DA:13433,0
DA:13434,0
DA:13440,1
DA:13441,1
DA:13442,1
DA:13443,2
DA:13444,1
DA:13445,1
DA:13447,0
DA:13448,0
DA:13449,0
DA:13450,0
DA:13451,0
DA:13452,0
DA:13453,0
DA:13454,0
DA:13455,0
DA:13456,0
DA:13457,0
DA:13458,0
DA:13459,0
DA:13461,1
DA:13462,1
DA:13465,1
DA:13466,1
DA:13467,0
DA:13468,0
DA:13469,0
DA:13470,0
DA:13471,0
DA:13472,0
DA:13473,0
DA:13474,1
DA:13478,1
DA:13479,0
DA:13480,1
DA:13481,0
DA:13482,1
DA:13510,1
DA:13511,1
DA:13512,1
DA:13513,1
DA:13515,1
DA:13516,1
DA:13517,0
DA:13518,0
DA:13520,1
DA:13521,1
DA:13522,0
DA:13523,0
DA:13525,1
DA:13528,1
DA:13529,1
DA:13531,1
DA:13532,1
DA:13533,1
DA:13534,1
DA:13535,1
DA:13537,1
DA:13538,1
DA:13539,1
DA:13540,1
DA:13543,1
DA:13544,1
DA:13547,1
DA:13551,1
DA:13552,1
DA:13554,1
DA:13556,1
DA:13557,0
DA:13560,1
DA:13561,0
DA:13563,2
DA:13564,1
DA:13566,1
DA:13572,2
DA:13575,0
DA:13576,0
DA:13577,0
DA:13591,4
DA:13592,4
DA:13593,4
DA:13594,2
DA:13595,4
DA:13599,0
DA:13601,2
DA:13602,2
DA:13603,0
DA:13604,2
DA:13605,2
DA:13606,4
DA:13607,2
DA:13608,4
DA:13609,2
DA:13610,2
DA:13618,0
DA:13619,0
DA:13620,0
DA:13621,0
DA:13623,0
DA:13625,0
DA:13627,1
DA:13628,1
DA:13645,1
DA:13654,0
DA:13655,0
DA:13658,0
DA:13659,0
DA:13660,0
DA:13663,0
DA:13664,0
DA:13666,0
DA:13667,0
DA:13668,0
DA:13670,0
DA:13672,0
DA:13675,0
DA:13676,0
DA:13677,0
DA:13678,0
DA:13680,0
DA:13688,0
DA:13689,0
DA:13690,0
DA:13698,0
DA:13699,0
DA:13700,0
DA:13701,0
DA:13702,0
DA:13704,0
DA:13705,0
DA:13716,1
DA:13717,1
DA:13720,11
DA:13729,0
DA:13730,0
DA:13731,0
DA:13732,0
DA:13734,0
DA:13737,0
DA:13744,1
DA:13745,1
DA:13746,1
DA:13747,0
DA:13748,0
DA:13749,0
DA:13751,0
DA:13754,0
DA:13763,1
DA:13764,1
DA:13765,1
DA:13766,1
DA:13769,0
DA:13770,0
DA:13771,0
DA:13775,1
DA:13776,1
DA:13777,1
DA:13778,1
DA:13781,1
DA:13782,1
DA:13783,2
DA:13784,1
DA:13786,2
DA:13787,1
DA:13788,1
DA:13789,1
DA:13790,1
DA:13792,1
DA:13793,1
DA:13799,1
DA:13800,0
DA:13801,0
DA:13816,27573
DA:13817,27573
DA:13821,3
DA:13822,3
DA:13824,4316
DA:13825,4013
DA:13827,0
DA:13828,0
DA:13830,1
DA:13831,1
DA:13833,0
DA:13834,0
DA:13836,1310
DA:13837,1310
DA:13838,1310
DA:13839,1310
DA:13840,1310
DA:13841,1310
DA:13842,1310
DA:13844,341
DA:13845,341
DA:13846,341
DA:13847,341
DA:13849,341
DA:13852,0
DA:13853,0
DA:13854,0
DA:13856,0
DA:13857,0
DA:13858,0
DA:13859,0
DA:13861,0
DA:13864,0
DA:13865,0
DA:13866,0
DA:13867,0
DA:13868,0
DA:13869,0
DA:13870,0
DA:13871,0
DA:13875,0
DA:13878,0
DA:13879,0
DA:13880,0
DA:13881,0
DA:13882,0
DA:13883,0
DA:13884,0
DA:13885,0
DA:13888,0
DA:13889,0
DA:13890,0
DA:13893,2
DA:13895,2
DA:13896,2
DA:13898,2
DA:13899,2
DA:13900,2
DA:13901,1
DA:13902,2
DA:13915,1242
DA:13916,0
DA:13917,1242
DA:13919,0
DA:13920,0
DA:13921,0
DA:13923,0
DA:13924,0
DA:13927,0
DA:13928,0
DA:13929,0
DA:13931,0
DA:13934,0
DA:13935,0
DA:13936,0
DA:13939,0
DA:13940,0
DA:13943,0
DA:13944,0
DA:13945,0
DA:13953,0
DA:13960,0
DA:13961,0
DA:13962,0
DA:13963,0
DA:13965,0
DA:13967,0
DA:13977,0
DA:13979,0
DA:13980,0
DA:13981,0
DA:13982,0
DA:13987,3
DA:13988,3
DA:13989,3
DA:13990,0
DA:13991,0
DA:13992,0
DA:13993,0
DA:13994,0
DA:13997,3
DA:14000,0
DA:14001,0
DA:14004,0
DA:14008,0
DA:14010,0
DA:14012,1
DA:14013,1
DA:14028,3009
DA:14029,6018
DA:14030,3009
DA:14031,0
DA:14032,3009
DA:14034,3009
DA:14036,3009
DA:14038,3009
DA:14040,3009
DA:14043,3009
DA:14045,1003
DA:14046,1003
DA:14048,1003
DA:14049,1003
DA:14053,1003
DA:14056,303
DA:14061,303
DA:14064,303
DA:14065,606
DA:14066,303
DA:14067,21298
DA:14068,20995
DA:14069,1102
DA:14072,99
DA:14075,19893
DA:14076,1003
DA:14077,1003
DA:14079,1003
DA:14080,1003
DA:14085,1003
DA:14086,0
DA:14088,1003
DA:14089,1003
DA:14090,1003
DA:14093,39885
DA:14096,303
DA:14098,0
DA:14101,909
DA:14102,606
DA:14105,303
DA:14106,303
DA:14107,303
DA:14108,303
DA:14110,1306
DA:14111,2006
DA:14112,1003
DA:14113,1003
DA:14115,303
DA:14116,303
DA:14118,303
DA:14122,303
DA:14127,909
DA:14129,303
DA:14130,303
DA:14132,0
DA:14133,0
DA:14135,303
DA:14136,303
DA:14138,0
DA:14139,0
DA:14141,1
DA:14142,1
DA:14145,0
DA:14146,0
DA:14148,0
DA:14149,0
DA:14150,0
DA:14152,0
DA:14153,0
DA:14154,0
DA:14155,0
DA:14156,0
DA:14159,0
DA:14162,606
DA:14164,0
DA:14165,0
DA:14166,0
DA:14167,0
DA:14170,64
DA:14171,64
DA:14172,64
DA:14174,0
DA:14175,0
DA:14176,0
DA:14177,0
DA:14180,2986
DA:14181,2986
DA:14184,368
DA:14186,65
DA:14202,0
DA:14203,0
DA:14205,0
DA:14207,0
DA:14208,0
DA:14209,0
DA:14210,0
DA:14211,0
DA:14213,0
DA:14214,0
DA:14215,0
DA:14216,0
DA:14217,0
DA:14225,1
DA:14226,1
DA:14231,0
DA:14232,0
DA:14233,0
DA:14234,0
DA:14237,0
DA:14238,0
DA:14239,0
DA:14241,0
DA:14242,0
DA:14243,0
DA:14245,0
DA:14246,0
DA:14249,0
DA:14250,0
DA:14251,0
DA:14252,0
DA:14254,0
DA:14257,0
DA:14258,0
DA:14260,0
DA:14261,0
DA:14264,0
DA:14267,1
DA:14270,303
DA:14271,0
DA:14274,0
DA:14275,0
DA:14278,1
DA:14279,1
DA:14280,304
DA:14281,303
DA:14282,303
DA:14287,1
DA:14289,0
DA:14290,0
DA:14291,0
DA:14292,0
DA:14293,0
DA:14294,0
DA:14295,0
DA:14298,0
DA:14300,1
DA:14301,1
DA:14304,303
DA:14305,606
DA:14306,303
DA:14307,0
DA:14308,0
DA:14309,0
DA:14311,303
DA:14314,0
DA:14315,0
DA:14317,1
DA:14318,1
DA:14319,1
DA:14321,1
DA:14322,1
DA:14323,1
DA:14325,1
DA:14329,303
DA:14331,64
DA:14332,64
DA:14333,64
DA:14335,303
DA:14336,303
DA:14337,303
DA:14339,0
DA:14340,0
DA:14341,0
DA:14342,0
DA:14343,0
DA:14345,303
DA:14366,513
DA:14368,513
DA:14369,0
DA:14371,0
DA:14373,1
DA:14374,2
DA:14375,1
DA:14376,1
DA:14377,1
DA:14380,0
DA:14381,0
DA:14382,0
DA:14383,0
DA:14384,0
DA:14386,64
DA:14387,64
DA:14388,64
DA:14389,0
DA:14390,448
DA:14391,448
DA:14392,0
DA:14394,192
DA:14395,192
DA:14397,1600
DA:14398,320
DA:14400,896
DA:14401,896
DA:14402,0
DA:14404,81
DA:14407,81
DA:14408,81
DA:14410,1008
DA:14411,1008
DA:14413,64
DA:14414,64
DA:14416,128
DA:14417,128
DA:14419,0
DA:14420,0
DA:14423,80
DA:14424,80
DA:14425,80
DA:14427,512
DA:14428,512
DA:14429,496
DA:14430,496
DA:14431,496
DA:14432,432
DA:14433,512
DA:14434,512
DA:14435,432
DA:14436,512
DA:14438,128
DA:14439,128
DA:14440,128
DA:14443,832
DA:14444,832
DA:14445,385
DA:14446,385
DA:14447,384
DA:14449,832
DA:14451,128
DA:14452,0
DA:14454,448
DA:14455,448
DA:14456,448
DA:14457,448
DA:14458,448
DA:14459,0
DA:14461,448
DA:14464,768
DA:14465,320
DA:14467,448
DA:14471,64
DA:14472,64
DA:14473,64
DA:14474,384
DA:14475,816
DA:14476,63
DA:14479,0
DA:14480,0
DA:14481,0
DA:14482,0
DA:14484,0
DA:14485,0
DA:14487,896
DA:14488,448
DA:14489,448
DA:14490,0
DA:14491,0
DA:14492,0
DA:14493,0
DA:14494,0
DA:14495,0
DA:14496,0
DA:14497,0
DA:14498,0
DA:14499,0
DA:14501,448
DA:14502,448
DA:14503,448
DA:14504,0
DA:14505,448
DA:14506,320
DA:14507,0
DA:14509,34
DA:14511,34
DA:14513,34
DA:14514,161
DA:14515,128
DA:14517,33
DA:14518,33
DA:14520,34
DA:14522,368
DA:14523,368
DA:14525,368
DA:14526,0
DA:14527,368
DA:14528,368
DA:14530,368
DA:14533,193
DA:14535,192
DA:14536,384
DA:14538,192
DA:14539,192
DA:14540,159
DA:14541,159
DA:14542,318
DA:14545,33
DA:14546,99
DA:14548,192
DA:14549,160
DA:14550,384
DA:14553,160
DA:14554,160
DA:14555,128
DA:14556,160
DA:14558,1
DA:14559,1
DA:14560,0
DA:14561,0
DA:14562,0
DA:14563,0
DA:14565,1
DA:14566,33
DA:14567,33
DA:14568,0
DA:14569,33
DA:14571,0
DA:14572,0
DA:14575,0
DA:14576,0
DA:14595,303
DA:14596,303
DA:14599,303
DA:14601,303
DA:14602,303
DA:14603,303
DA:14604,303
DA:14605,606
DA:14607,303
DA:14609,303
DA:14610,0
DA:14612,0
DA:14614,303
DA:14616,303
DA:14628,5
DA:14629,0
DA:14630,0
DA:14632,0
DA:14634,5
DA:14635,5
DA:14638,1
DA:14640,1
DA:14641,1
DA:14643,303
DA:14644,303
DA:14647,2
DA:14649,2
DA:14650,2
DA:14652,2
DA:14653,4
DA:14654,2
DA:14655,2
DA:14658,2
DA:14660,2
DA:14661,2
DA:14663,2
DA:14664,2
DA:14667,303
DA:14668,305
DA:14671,1
DA:14672,1
DA:14673,4
DA:14674,6
DA:14675,1
DA:14678,1
DA:14679,0
DA:14682,0
DA:14683,0
DA:14686,1
DA:14688,1
DA:14689,2
DA:14690,1
DA:14691,304
DA:14692,304
DA:14693,1
DA:14694,2
DA:14695,1
DA:14696,1
DA:14699,2
DA:14700,2
DA:14709,1
DA:14711,3
DA:14712,3
DA:14713,3
DA:14714,3
DA:14715,3
DA:14716,3
DA:14717,3
DA:14718,3
DA:14720,32
DA:14722,29
DA:14723,0
DA:14724,0
DA:14726,3
DA:14727,3
DA:14729,1
DA:14730,1
DA:14731,1
DA:14733,29
DA:14734,29
DA:14735,0
DA:14736,0
DA:14737,0
DA:14738,29
DA:14739,0
DA:14742,29
DA:14743,5
DA:14744,39
DA:14747,6
DA:14748,6
DA:14749,6
DA:14750,0
DA:14751,0
DA:14752,0
DA:14753,0
DA:14754,18
DA:14755,18
DA:14756,18
DA:14757,18
DA:14762,27
DA:14763,27
DA:14764,23
DA:14765,23
DA:14771,5
DA:14772,5
DA:14775,2
DA:14776,2
DA:14777,2
DA:14778,2
DA:14779,2
DA:14780,2
DA:14781,0
DA:14782,0
DA:14783,0
DA:14784,1
DA:14785,1
DA:14786,1
DA:14789,6
DA:14790,6
DA:14791,0
DA:14792,0
DA:14794,0
DA:14795,6
DA:14797,6
DA:14798,18
DA:14799,18
DA:14801,2
DA:14802,2
DA:14803,2
DA:14805,5
DA:14806,3
DA:14807,0
DA:14808,5
DA:14809,5
DA:14810,1
DA:14811,1
DA:14812,1
DA:14813,2
DA:14814,2
DA:14815,0
DA:14816,5
DA:14818,2
DA:14819,2
DA:14820,2
DA:14823,0
DA:14824,0
DA:14825,0
DA:14826,0
DA:14827,0
DA:14828,45
DA:14829,45
DA:14832,2
DA:14833,2
DA:14834,7
DA:14835,7
DA:14836,0
DA:14837,0
DA:14838,0
DA:14839,0
DA:14840,36
DA:14841,36
DA:14845,1
DA:14846,1
DA:14847,1
DA:14848,1
DA:14850,1
DA:14852,0
DA:14853,0
DA:14854,0
DA:14856,0
DA:14857,0
DA:14858,0
DA:14860,0
DA:14861,0
DA:14863,0
DA:14864,0
DA:14865,0
DA:14866,0
DA:14867,0
DA:14868,0
DA:14870,0
DA:14871,0
DA:14872,0
DA:14875,3
DA:14876,3
DA:14877,3
DA:14878,0
DA:14879,3
DA:14880,3
DA:14881,0
DA:14882,0
DA:14885,3
DA:14886,3
DA:14888,3
DA:14891,1
DA:14892,1
DA:14894,1
DA:14895,2
DA:14896,1
DA:14897,0
DA:14898,1
DA:14900,1
DA:14901,1
DA:14902,1
DA:14903,1
DA:14905,2
DA:14906,2
DA:14908,2
DA:14911,2
DA:14912,0
DA:14913,0
DA:14914,0
DA:14915,0
DA:14917,0
DA:14920,4
DA:14922,2
DA:14923,4
DA:14925,2
DA:14927,2
DA:14928,2
DA:14929,2
DA:14930,2
DA:14932,0
DA:14933,0
DA:14946,320
DA:14947,320
DA:14951,0
DA:14952,0
DA:14953,0
DA:14955,0
DA:14957,0
DA:14959,0
DA:14960,0
DA:14961,0
DA:14962,0
DA:14963,0
DA:14965,0
DA:14966,0
DA:14971,0
DA:14972,0
DA:14978,0
DA:14981,0
DA:14982,0
DA:14983,0
DA:14986,192
DA:14987,192
DA:14988,0
DA:14989,128
DA:14990,0
DA:14992,128
DA:14993,0
DA:14995,0
DA:14996,0
DA:14998,128
DA:14999,128
DA:15032,0
DA:15033,0
DA:15036,0
DA:15037,0
DA:15042,0
DA:15044,0
DA:15045,0
DA:15046,0
DA:15047,0
DA:15050,0
DA:15051,0
DA:15052,0
DA:15053,0
DA:15054,0
DA:15055,0
DA:15060,0
DA:15061,0
DA:15062,0
DA:15065,0
DA:15066,0
DA:15068,0
DA:15069,0
DA:15078,0
DA:15087,0
DA:15088,0
DA:15089,0
DA:15092,0
DA:15093,0
DA:15094,0
DA:15095,0
DA:15096,0
DA:15098,0
DA:15099,0
DA:15101,0
DA:15102,0
DA:15106,0
DA:15107,0
DA:15116,0
DA:15117,0
DA:15118,0
DA:15120,0
DA:15123,0
DA:15124,0
DA:15125,0
DA:15127,0
DA:15132,0
DA:15133,0
DA:15134,0
DA:15135,0
DA:15136,0
DA:15138,0
DA:15147,0
DA:15148,0
DA:15149,0
DA:15151,0
DA:15154,0
DA:15155,0
DA:15156,0
DA:15158,0
DA:15170,0
DA:15171,0
DA:15173,0
DA:15174,0
DA:15176,0
DA:15177,0
DA:15178,0
DA:15179,0
DA:15180,0
DA:15182,0
DA:15185,0
DA:15186,0
DA:15188,0
DA:15189,0
DA:15191,0
DA:15192,0
DA:15193,0
DA:15194,0
DA:15195,0
DA:15197,0
DA:15200,0
DA:15201,0
DA:15204,0
DA:15205,0
DA:15206,0
DA:15207,0
DA:15208,0
DA:15209,0
DA:15210,0
DA:15211,0
DA:15212,0
DA:15213,0
DA:15214,0
DA:15216,0
DA:15217,0
DA:15218,0
DA:15221,0
DA:15222,0
DA:15224,0
DA:15225,0
DA:15228,0
DA:15229,0
DA:15234,0
DA:15235,0
DA:15240,0
DA:15241,0
DA:15244,0
DA:15245,0
DA:15246,0
DA:15247,0
DA:15248,0
DA:15249,0
DA:15262,129
DA:15263,129
DA:15264,129
DA:15265,129
DA:15266,129
DA:15267,128
DA:15270,2
DA:15271,2
DA:15272,2
DA:15273,2
DA:15274,1
DA:15277,134
DA:15278,128
DA:15280,2
DA:15281,2
DA:15283,0
DA:15284,0
DA:15287,1
DA:15288,1
DA:15289,1
DA:15290,1
DA:15291,1
DA:15294,1
DA:15295,1
DA:15296,1
DA:15297,1
DA:15300,1
DA:15301,1
DA:15302,1
DA:15303,0
DA:15304,1
DA:15305,0
DA:15307,1
DA:15308,1
DA:15353,64
DA:15359,64
DA:15370,0
DA:15375,0
DA:15380,0
DA:15381,0
DA:15383,0
DA:15384,0
DA:15385,0
DA:15386,0
DA:15388,0
DA:15389,0
DA:15390,0
DA:15392,0
DA:15395,0
DA:15396,0
DA:15397,0
DA:15406,1
DA:15407,1
DA:15409,1
DA:15411,1
DA:15412,0
DA:15413,0
DA:15415,1
DA:15416,0
DA:15417,0
DA:15419,1
DA:15421,303
DA:15422,303
DA:15423,303
DA:15424,563
DA:15425,0
DA:15426,0
DA:15427,0
DA:15428,0
DA:15429,0
DA:15430,0
DA:15431,0
DA:15432,0
DA:15436,304
DA:15437,608
DA:15450,0
DA:15451,0
DA:15454,0
DA:15457,0
DA:15460,0
DA:15463,0
DA:15464,0
DA:15465,0
DA:15467,0
DA:15468,0
DA:15470,0
DA:15471,0
DA:15473,0
DA:15476,0
DA:15477,0
DA:15478,0
DA:15479,0
DA:15480,0
DA:15481,0
DA:15482,0
DA:15484,0
DA:15485,0
DA:15488,0
DA:15489,0
DA:15494,0
DA:15495,0
DA:15498,0
DA:15501,0
DA:15502,0
DA:15505,0
DA:15508,0
DA:15510,0
DA:15511,0
DA:15513,0
DA:15517,0
DA:15518,0
DA:15519,0
DA:15520,0
DA:15521,0
DA:15523,0
DA:15525,0
DA:15526,0
DA:15528,0
DA:15531,0
DA:15532,0
DA:15533,0
DA:15535,0
DA:15538,0
DA:15543,0
DA:15544,0
DA:15545,0
DA:15549,0
DA:15550,0
DA:15560,0
DA:15562,0
DA:15563,0
DA:15566,0
DA:15568,0
DA:15569,0
DA:15570,0
DA:15575,0
DA:15576,0
DA:15577,0
DA:15578,0
DA:15579,0
DA:15580,0
DA:15583,0
DA:15585,0
DA:15587,0
DA:15588,0
DA:15589,0
DA:15593,0
DA:15594,0
DA:15598,0
DA:15599,0
DA:15605,0
DA:15607,0
DA:15608,0
DA:15609,0
DA:15612,0
DA:15614,0
DA:15615,0
DA:15617,0
DA:15618,0
DA:15619,0
DA:15621,0
DA:15622,0
DA:15623,0
DA:15624,0
DA:15625,0
DA:15626,0
DA:15628,0
DA:15629,0
DA:15630,0
DA:15631,0
DA:15632,0
DA:15635,0
DA:15636,0
DA:15637,0
DA:15639,0
DA:15641,0
DA:15642,0
DA:15643,0
DA:15646,0
DA:15648,0
DA:15649,0
DA:15651,0
DA:15652,0
DA:15653,0
DA:15655,0
DA:15656,0
DA:15658,0
DA:15659,0
DA:15660,0
DA:15661,0
DA:15662,0
DA:15663,0
DA:15665,0
DA:15666,0
DA:15667,0
DA:15668,0
DA:15669,0
DA:15672,0
DA:15673,0
DA:15674,0
DA:15675,0
DA:15678,0
DA:15679,0
DA:15681,0
DA:15682,0
DA:15683,0
DA:15685,0
DA:15686,0
DA:15687,0
DA:15689,0
DA:15691,0
DA:15692,0
DA:15693,0
DA:15694,0
DA:15697,0
DA:15698,0
DA:15699,0
DA:15700,0
DA:15703,0
DA:15704,0
DA:15705,0
DA:15708,0
DA:15709,0
DA:15710,0
DA:15711,0
DA:15712,0
DA:15713,0
DA:15715,0
DA:15716,0
DA:15718,0
DA:15721,0
DA:15722,0
DA:15723,0
DA:15724,0
DA:15726,0
DA:15727,0
DA:15728,0
DA:15731,0
DA:15732,0
DA:15733,0
DA:15735,0
DA:15736,0
DA:15737,0
DA:15738,0
DA:15741,0
DA:15742,0
DA:15743,0
DA:15744,0
DA:15745,0
DA:15747,0
DA:15749,0
DA:15750,0
DA:15751,0
DA:15753,0
DA:15754,0
DA:15755,0
DA:15757,0
DA:15758,0
DA:15759,0
DA:15760,0
DA:15762,0
DA:15774,0
DA:15775,0
DA:15776,0
DA:15780,0
DA:15785,0
DA:15786,0
DA:15789,0
DA:15793,0
DA:15795,0
DA:15798,128
DA:15799,128
DA:15802,128
DA:15805,128
DA:15806,128
DA:15809,1
DA:15810,1
DA:15811,1
DA:15812,4
DA:15814,3
DA:15815,2
DA:15819,6
DA:15821,2
DA:15824,0
DA:15825,0
DA:15827,0
DA:15828,0
DA:15831,0
DA:15833,0
DA:15834,0
DA:15847,0
DA:15848,0
DA:15852,0
DA:15854,0
DA:15855,0
DA:15856,0
DA:15869,0
DA:15870,0
DA:15871,0
DA:15872,0
DA:15873,0
DA:15874,0
DA:15875,0
DA:15876,0
DA:15877,0
DA:15878,0
DA:15879,0
DA:15880,0
DA:15881,0
DA:15882,0
DA:15883,0
DA:15884,0
DA:15885,0
DA:15886,0
DA:15887,0
DA:15888,0
DA:15889,0
DA:15890,0
DA:15891,0
DA:15893,0
DA:15894,0
DA:15895,0
DA:15896,0
DA:15897,0
DA:15899,0
DA:15902,0
DA:15906,0
DA:15907,0
DA:15908,0
DA:15909,0
DA:15910,0
DA:15911,0
DA:15913,0
DA:15914,0
DA:15916,0
DA:15918,0
DA:15919,0
DA:15920,0
DA:15921,0
DA:15922,0
DA:15923,0
DA:15924,0
DA:15926,0
DA:15928,0
DA:15929,0
DA:15930,0
DA:15932,0
DA:15933,0
DA:15934,0
DA:15935,0
DA:15936,0
DA:15937,0
DA:15938,0
DA:15939,0
DA:15940,0
DA:15941,0
DA:15942,0
DA:15943,0
DA:15944,0
DA:15945,0
DA:15946,0
DA:15947,0
DA:15948,0
DA:15949,0
DA:15950,0
DA:15951,0
DA:15952,0
DA:15953,0
DA:15954,0
DA:15955,0
DA:15956,0
DA:15957,0
DA:15958,0
DA:15959,0
DA:15960,0
DA:15961,0
DA:15962,0
DA:15963,0
DA:15964,0
DA:15965,0
DA:15966,0
DA:15967,0
DA:15968,0
DA:15969,0
DA:15970,0
DA:15971,0
DA:15973,0
DA:15974,0
DA:15975,0
DA:15976,0
DA:15977,0
DA:15979,0
DA:15982,0
DA:15983,0
DA:15984,0
DA:15985,0
DA:15987,0
DA:15988,0
DA:15989,0
DA:15990,0
DA:15991,0
DA:15993,0
DA:15995,0
DA:15997,0
DA:15998,0
DA:15999,0
DA:16001,0
DA:16002,0
DA:16003,0
DA:16004,0
DA:16005,0
DA:16006,0
DA:16008,0
DA:16010,0
DA:16012,0
DA:16013,0
DA:16014,0
DA:16016,0
DA:16018,0
DA:16019,0
DA:16020,0
DA:16021,0
DA:16022,0
DA:16024,0
DA:16026,0
DA:16028,0
DA:16029,0
DA:16030,0
DA:16031,0
DA:16033,0
DA:16035,0
DA:16036,0
DA:16037,0
DA:16039,0
DA:16040,0
DA:16042,0
DA:16043,0
DA:16044,0
DA:16047,0
DA:16049,0
DA:16050,0
DA:16051,0
DA:16052,0
DA:16053,0
DA:16055,0
DA:16057,0
DA:16071,0
DA:16072,0
DA:16075,0
DA:16076,0
DA:16077,0
DA:16079,0
DA:16081,0
DA:16082,0
DA:16084,0
DA:16087,0
DA:16088,0
DA:16093,0
DA:16094,0
DA:16096,0
DA:16097,0
DA:16100,0
DA:16101,0
DA:16102,0
DA:16103,0
DA:16105,0
DA:16107,0
DA:16108,0
DA:16109,0
DA:16110,0
DA:16111,0
DA:16113,0
DA:16145,0
DA:16146,0
DA:16148,0
DA:16150,0
DA:16151,0
DA:16152,0
DA:16153,0
DA:16154,0
DA:16155,0
DA:16156,0
DA:16158,0
DA:16159,0
DA:16160,0
DA:16161,0
DA:16163,0
DA:16164,0
DA:16165,0
DA:16166,0
DA:16168,0
DA:16169,0
DA:16171,0
DA:16172,0
DA:16173,0
DA:16174,0
DA:16176,0
DA:16177,0
DA:16178,0
DA:16179,0
DA:16180,0
DA:16181,0
DA:16182,0
DA:16183,0
DA:16185,0
DA:16186,0
DA:16187,0
DA:16188,0
DA:16190,0
DA:16191,0
DA:16192,0
DA:16193,0
DA:16195,0
DA:16196,0
DA:16198,0
DA:16199,0
DA:16201,0
DA:16202,0
DA:16203,0
DA:16204,0
DA:16205,0
DA:16206,0
DA:16207,0
DA:16210,0
DA:16211,0
DA:16212,0
DA:16213,0
DA:16214,0
DA:16215,0
DA:16217,0
DA:16219,0
DA:16220,0
DA:16221,0
DA:16222,0
DA:16223,0
DA:16224,0
DA:16226,0
DA:16228,0
DA:16229,0
DA:16232,0
DA:16233,0
DA:16234,0
DA:16235,0
DA:16237,0
DA:16238,0
DA:16239,0
DA:16240,0
DA:16241,0
DA:16242,0
DA:16243,0
DA:16245,0
DA:16246,0
DA:16247,0
DA:16248,0
DA:16249,0
DA:16250,0
DA:16252,0
DA:16253,0
DA:16254,0
DA:16255,0
DA:16256,0
DA:16258,0
DA:16259,0
DA:16261,0
DA:16262,0
DA:16263,0
DA:16264,0
DA:16265,0
DA:16278,3
DA:16279,3
DA:16280,3
DA:16283,1
DA:16284,0
DA:16286,1
DA:16289,1
DA:16292,15
DA:16374,1
DA:16382,1
DA:16383,1
DA:16384,1
DA:16406,257
DA:16407,257
DA:16408,0
DA:16409,0
DA:16410,0
DA:16412,257
DA:16442,0
DA:16443,0
DA:16444,0
DA:16445,0
DA:16447,0
DA:16451,1
DA:16453,1
DA:16454,1
DA:16455,3
DA:16457,0
DA:16462,0
DA:16466,1
DA:16471,5
DA:16473,1
DA:16474,3
DA:16476,0
DA:16477,0
DA:16480,0
DA:16481,0
DA:16482,0
DA:16484,0
DA:16485,0
DA:16486,0
DA:16488,160
DA:16490,0
DA:16491,0
DA:16493,0
DA:16496,0
DA:16499,0
DA:16501,0
DA:16502,0
DA:16503,0
DA:16504,0
DA:16507,128
DA:16508,128
DA:16509,128
DA:16510,128
DA:16511,128
DA:16512,128
DA:16513,128
DA:16514,128
DA:16515,0
DA:16516,0
DA:16517,0
DA:16518,0
DA:16520,0
DA:16521,0
DA:16523,128
DA:16524,128
DA:16525,0
DA:16527,128
DA:16528,0
DA:16530,128
DA:16531,128
DA:16581,1
DA:16582,1
DA:16583,1
DA:16584,1
DA:16585,1
DA:16586,1
DA:16587,1
DA:16588,0
DA:16589,0
DA:16590,0
DA:16591,0
DA:16593,1
DA:16594,1
DA:16595,1
DA:16596,1
DA:16597,1
DA:16598,1
DA:16599,1
DA:16600,1
DA:16601,1
DA:16602,1
DA:16603,1
DA:16604,1
DA:16606,0
DA:16608,0
DA:16609,0
DA:16610,0
DA:16612,0
DA:16614,0
DA:16615,0
DA:16616,0
DA:16617,0
DA:16619,0
DA:16620,0
DA:16621,0
DA:16623,0
DA:16624,0
DA:16625,0
DA:16626,0
DA:16627,0
DA:16628,0
DA:16629,0
DA:16631,0
DA:16632,0
DA:16634,0
DA:16635,0
DA:16636,0
DA:16637,0
DA:16638,0
DA:16639,0
DA:16641,0
DA:16642,0
DA:16643,0
DA:16644,0
DA:16646,0
DA:16647,0
DA:16649,0
DA:16650,0
DA:16651,0
DA:16652,0
DA:16653,0
DA:16656,0
DA:16658,0
DA:16659,0
DA:16660,0
DA:16661,0
DA:16662,0
DA:16664,0
DA:16665,0
DA:16666,0
DA:16667,0
DA:16668,0
DA:16669,0
DA:16670,0
DA:16671,0
DA:16672,0
DA:16674,0
DA:16678,0
DA:16679,0
DA:16680,0
DA:16681,0
DA:16684,0
DA:16685,0
DA:16687,0
DA:16689,0
DA:16690,0
DA:16691,0
DA:16692,0
DA:16693,0
DA:16694,0
DA:16695,0
DA:16696,0
DA:16697,0
DA:16698,0
DA:16699,0
DA:16700,0
DA:16702,0
DA:16703,0
DA:16712,1
DA:16713,1
DA:16714,0
DA:16715,1
DA:16716,1
DA:16717,1
DA:16718,3
DA:16719,3
DA:16720,1
DA:16723,0
DA:16724,0
DA:16725,0
DA:16726,0
DA:16727,0
DA:16728,0
DA:16729,0
DA:16730,0
DA:16731,0
DA:16732,0
DA:16733,0
DA:16734,0
DA:16735,0
DA:16737,0
DA:16738,0
DA:16740,1
DA:16741,0
DA:16742,0
DA:16743,0
DA:16744,0
DA:16745,0
DA:16746,0
DA:16747,0
DA:16749,0
DA:16750,0
DA:16751,0
DA:16752,0
DA:16753,0
DA:16756,0
DA:16757,0
DA:16759,1
DA:16760,1
DA:16761,1
DA:16762,1
DA:16763,1
DA:16764,1
DA:16765,0
DA:16766,2
DA:16767,2
DA:16769,1
DA:16770,1
DA:16771,1
DA:16772,2
DA:16774,0
DA:16776,0
DA:16778,1
DA:16779,1
DA:16780,0
DA:16781,0
DA:16782,0
DA:16784,1
DA:16785,1
DA:16786,1
DA:16787,3
DA:16789,1
DA:16814,0
DA:16817,0
DA:16818,0
DA:16819,0
DA:16825,0
DA:16826,0
DA:16829,0
DA:16830,0
DA:16835,0
DA:16837,0
DA:16840,0
DA:16841,0
DA:16843,0
DA:16844,0
DA:16845,0
DA:16846,0
DA:16853,0
DA:16854,0
DA:16855,0
DA:16856,0
DA:16861,0
DA:16863,0
DA:16865,0
DA:16866,0
DA:16867,0
DA:16869,0
DA:16871,0
DA:16872,0
DA:16875,0
DA:16877,0
DA:16878,0
DA:16879,0
DA:16880,0
DA:16882,0
DA:16883,0
DA:16884,0
DA:16885,0
DA:16886,0
DA:16887,0
DA:16888,0
DA:16890,0
DA:16891,0
DA:16892,0
DA:16894,0
DA:16895,0
DA:16896,0
DA:16897,0
DA:16900,0
DA:16901,0
DA:16902,0
DA:16903,0
DA:16904,0
DA:16906,0
DA:16907,0
DA:16908,0
DA:16909,0
DA:16910,0
DA:16912,0
DA:16913,0
DA:16914,0
DA:16916,0
DA:16917,0
DA:16919,0
DA:16920,0
DA:16921,0
DA:16922,0
DA:16923,0
DA:16924,0
DA:16925,0
DA:16926,0
DA:16928,0
DA:16929,0
DA:16932,0
DA:16933,0
DA:16934,0
DA:16935,0
DA:16936,0
DA:16937,0
DA:16939,0
DA:16940,0
DA:16941,0
DA:16942,0
DA:16947,0
DA:16948,0
DA:16950,0
DA:16951,0
DA:16952,0
DA:16954,0
DA:16955,0
DA:16959,0
DA:16960,0
DA:16962,0
DA:16964,0
DA:16965,0
DA:16966,0
DA:16967,0
DA:16970,0
DA:16971,0
DA:16973,0
DA:16974,0
DA:16976,0
DA:16980,0
DA:16981,0
DA:16982,0
DA:16984,0
DA:16985,0
DA:16986,0
DA:16987,0
DA:16988,0
DA:16989,0
DA:16990,0
DA:16993,0
DA:16994,0
DA:16996,0
DA:17001,0
DA:17003,0
DA:17004,0
DA:17005,0
DA:17008,0
DA:17010,0
DA:17011,0
DA:17012,0
DA:17013,0
DA:17015,0
DA:17016,0
DA:17017,0
DA:17019,0
DA:17020,0
DA:17022,0
DA:17023,0
DA:17024,0
DA:17025,0
DA:17027,0
DA:17028,0
DA:17029,0
DA:17030,0
DA:17031,0
DA:17032,0
DA:17033,0
DA:17034,0
DA:17036,0
DA:17037,0
DA:17038,0
DA:17039,0
DA:17043,0
DA:17044,0
DA:17045,0
DA:17046,0
DA:17047,0
DA:17048,0
DA:17049,0
DA:17053,0
DA:17055,0
DA:17056,0
DA:17058,0
DA:17059,0
DA:17060,0
DA:17061,0
DA:17062,0
DA:17063,0
DA:17064,0
DA:17066,0
DA:17067,0
DA:17068,0
DA:17071,0
DA:17074,0
DA:17075,0
DA:17076,0
DA:17077,0
DA:17078,0
DA:17080,0
DA:17081,0
DA:17083,0
DA:17095,0
DA:17097,0
DA:17098,0
DA:17100,0
DA:17101,0
DA:17102,0
DA:17104,0
DA:17105,0
DA:17106,0
DA:17107,0
DA:17108,0
DA:17110,0
DA:17111,0
DA:17114,0
DA:17115,0
DA:17118,0
DA:17119,0
DA:17120,0
DA:17122,0
DA:17123,0
DA:17125,0
DA:17126,0
DA:17127,0
DA:17129,0
DA:17130,0
DA:17160,0
DA:17161,0
DA:17162,0
DA:17164,0
DA:17165,0
DA:17167,0
DA:17168,0
DA:17169,0
DA:17171,0
DA:17172,0
DA:17174,0
DA:17175,0
DA:17176,0
DA:17178,0
DA:17179,0
DA:17181,0
DA:17182,0
DA:17183,0
DA:17185,0
DA:17186,0
DA:17188,0
DA:17189,0
DA:17190,0
DA:17192,0
DA:17193,0
DA:17196,0
DA:17197,0
DA:17198,0
DA:17200,0
DA:17203,0
DA:17204,0
DA:17205,0
DA:17207,0
DA:17208,0
DA:17210,0
DA:17211,0
DA:17212,0
DA:17214,0
DA:17215,0
DA:17217,0
DA:17218,0
DA:17219,0
DA:17221,0
DA:17222,0
DA:17224,0
DA:17225,0
DA:17226,0
DA:17228,0
DA:17229,0
DA:17231,0
DA:17232,0
DA:17233,0
DA:17235,0
DA:17236,0
DA:17238,0
DA:17239,0
DA:17254,0
DA:17256,0
DA:17258,0
DA:17259,0
DA:17260,0
DA:17262,0
DA:17264,0
DA:17265,0
DA:17268,0
DA:17269,0
DA:17272,0
DA:17273,0
DA:17274,0
DA:17275,0
DA:17276,0
DA:17278,0
DA:17279,0
DA:17280,0
DA:17282,0
DA:17283,0
DA:17284,0
DA:17285,0
DA:17286,0
DA:17287,0
DA:17288,0
DA:17289,0
DA:17290,0
DA:17291,0
DA:17292,0
DA:17293,0
DA:17294,0
DA:17295,0
DA:17297,0
DA:17298,0
DA:17299,0
DA:17300,0
DA:17301,0
DA:17303,0
DA:17304,0
DA:17305,0
DA:17306,0
DA:17307,0
DA:17308,0
DA:17310,0
DA:17312,0
DA:17313,0
DA:17314,0
DA:17315,0
DA:17317,0
DA:17318,0
DA:17319,0
DA:17320,0
DA:17321,0
DA:17322,0
DA:17323,0
DA:17325,0
DA:17327,0
DA:17329,0
DA:17331,0
DA:17333,0
DA:17335,0
DA:17337,0
DA:17338,0
DA:17339,0
DA:17340,0
DA:17341,0
DA:17342,0
DA:17343,0
DA:17349,0
DA:17353,0
DA:17354,0
DA:17355,0
DA:17356,0
DA:17358,0
DA:17360,0
DA:17361,0
DA:17362,0
DA:17363,0
DA:17367,0
DA:17368,0
DA:17369,0
DA:17370,0
DA:17371,0
DA:17372,0
DA:17373,0
DA:17374,0
DA:17375,0
DA:17376,0
DA:17377,0
DA:17378,0
DA:17379,0
DA:17380,0
DA:17381,0
DA:17382,0
DA:17383,0
DA:17387,0
DA:17388,0
DA:17389,0
DA:17390,0
DA:17391,0
DA:17392,0
DA:17397,0
DA:17398,0
DA:17403,0
DA:17404,0
DA:17405,0
DA:17406,0
DA:17407,0
DA:17408,0
DA:17409,0
DA:17411,0
DA:17412,0
DA:17414,0
DA:17416,0
DA:17418,0
DA:17419,0
DA:17420,0
DA:17421,0
DA:17423,0
DA:17424,0
DA:17426,0
DA:17427,0
DA:17428,0
DA:17429,0
DA:17431,0
DA:17432,0
DA:17434,0
DA:17435,0
DA:17437,0
DA:17438,0
DA:17439,0
DA:17440,0
DA:17441,0
DA:17442,0
DA:17443,0
DA:17444,0
DA:17445,0
DA:17446,0
DA:17448,0
DA:17449,0
DA:17450,0
DA:17451,0
DA:17452,0
DA:17453,0
DA:17454,0
DA:17455,0
DA:17456,0
DA:17457,0
DA:17458,0
DA:17459,0
LF:4745
LH:1605
end_of_record
TN:
SF:/root/mfem/tests/unit/fem/test_1d_bilininteg.cpp
FN:20,_ZN13bilininteg_1d2f1ERKN4mfem6VectorE
FN:21,_ZN13bilininteg_1d3df1ERKN4mfem6VectorE
FN:23,_ZN13bilininteg_1d2v1ERKN4mfem6VectorE
FN:24,_ZN13bilininteg_1d3dv1ERKN4mfem6VectorE
FN:26,_ZN13bilininteg_1d3vf1ERKN4mfem6VectorE
FN:27,_ZN13bilininteg_1d4vdf1ERKN4mfem6VectorE
FN:28,_ZN13bilininteg_1d4dvf1ERKN4mfem6VectorE
FN:30,_ZN13bilininteg_1d4ddf1ERKN4mfem6VectorE
FN:31,_ZN13bilininteg_1d5dvdf1ERKN4mfem6VectorE
FN:33,_ZN13bilininteg_1d11MapTypeNameB5cxx11EN4mfem13FiniteElement7MapTypeE
FN:50,_ZN13bilininteg_1dL19C_A_T_C_H_T_E_S_T_0Ev
FN:298,_ZN13bilininteg_1dL20C_A_T_C_H_T_E_S_T_16Ev
FN:409,_ZN13bilininteg_1dL20C_A_T_C_H_T_E_S_T_25Ev
FN:584,_ZN13bilininteg_1dL20C_A_T_C_H_T_E_S_T_35Ev
FNDA:0,_ZN13bilininteg_1d11MapTypeNameB5cxx11EN4mfem13FiniteElement7MapTypeE
FNDA:0,_ZN13bilininteg_1d2f1ERKN4mfem6VectorE
FNDA:0,_ZN13bilininteg_1d2v1ERKN4mfem6VectorE
FNDA:0,_ZN13bilininteg_1d3df1ERKN4mfem6VectorE
FNDA:0,_ZN13bilininteg_1d3dv1ERKN4mfem6VectorE
FNDA:0,_ZN13bilininteg_1d3vf1ERKN4mfem6VectorE
FNDA:0,_ZN13bilininteg_1d4ddf1ERKN4mfem6VectorE
FNDA:0,_ZN13bilininteg_1d4dvf1ERKN4mfem6VectorE
FNDA:0,_ZN13bilininteg_1d4vdf1ERKN4mfem6VectorE
FNDA:0,_ZN13bilininteg_1d5dvdf1ERKN4mfem6VectorE
FNDA:0,_ZN13bilininteg_1dL19C_A_T_C_H_T_E_S_T_0Ev
FNDA:0,_ZN13bilininteg_1dL20C_A_T_C_H_T_E_S_T_16Ev
FNDA:0,_ZN13bilininteg_1dL20C_A_T_C_H_T_E_S_T_25Ev
FNDA:0,_ZN13bilininteg_1dL20C_A_T_C_H_T_E_S_T_35Ev
FNF:14
FNH:0
DA:20,0
DA:21,0
DA:23,0
DA:24,0
DA:26,0
DA:27,0
DA:28,0
DA:30,0
DA:31,0
DA:33,0
DA:35,0
DA:37,0
DA:38,0
DA:39,0
DA:40,0
DA:41,0
DA:42,0
DA:43,0
DA:44,0
DA:45,0
DA:46,0
DA:50,0
DA:56,0
DA:57,0
DA:58,0
DA:60,0
DA:62,0
DA:63,0
DA:64,0
DA:66,0
DA:67,0
DA:68,0
DA:69,0
DA:71,0
DA:73,0
DA:74,0
DA:76,0
DA:78,0
DA:79,0
DA:81,0
DA:82,0
DA:84,0
DA:85,0
DA:86,0
DA:87,0
DA:89,0
DA:91,0
DA:93,0
DA:94,0
DA:95,0
DA:96,0
DA:97,0
DA:98,0
DA:100,0
DA:101,0
DA:103,0
DA:105,0
DA:106,0
DA:107,0
DA:108,0
DA:110,0
DA:111,0
DA:112,0
DA:114,0
DA:115,0
DA:116,0
DA:117,0
DA:118,0
DA:119,0
DA:121,0
DA:122,0
DA:124,0
DA:126,0
DA:127,0
DA:128,0
DA:129,0
DA:131,0
DA:132,0
DA:133,0
DA:137,0
DA:138,0
DA:139,0
DA:140,0
DA:141,0
DA:142,0
DA:144,0
DA:146,0
DA:148,0
DA:149,0
DA:150,0
DA:151,0
DA:152,0
DA:153,0
DA:155,0
DA:156,0
DA:158,0
DA:160,0
DA:161,0
DA:162,0
DA:163,0
DA:164,0
DA:165,0
DA:167,0
DA:168,0
DA:170,0
DA:174,0
DA:175,0
DA:177,0
DA:179,0
DA:180,0
DA:182,0
DA:183,0
DA:185,0
DA:187,0
DA:188,0
DA:190,0
DA:194,0
DA:195,0
DA:197,0
DA:198,0
DA:200,0
DA:201,0
DA:202,0
DA:203,0
DA:205,0
DA:207,0
DA:209,0
DA:210,0
DA:211,0
DA:212,0
DA:213,0
DA:214,0
DA:216,0
DA:217,0
DA:219,0
DA:221,0
DA:222,0
DA:223,0
DA:224,0
DA:225,0
DA:226,0
DA:228,0
DA:229,0
DA:231,0
DA:235,0
DA:238,0
DA:239,0
DA:240,0
DA:242,0
DA:243,0
DA:244,0
DA:245,0
DA:247,0
DA:249,0
DA:251,0
DA:252,0
DA:253,0
DA:254,0
DA:255,0
DA:256,0
DA:258,0
DA:259,0
DA:261,0
DA:263,0
DA:264,0
DA:265,0
DA:266,0
DA:268,0
DA:269,0
DA:270,0
DA:272,0
DA:273,0
DA:274,0
DA:275,0
DA:276,0
DA:277,0
DA:279,0
DA:280,0
DA:282,0
DA:284,0
DA:285,0
DA:286,0
DA:287,0
DA:289,0
DA:290,0
DA:291,0
DA:296,0
DA:298,0
DA:304,0
DA:305,0
DA:306,0
DA:308,0
DA:310,0
DA:311,0
DA:312,0
DA:313,0
DA:315,0
DA:316,0
DA:317,0
DA:318,0
DA:320,0
DA:322,0
DA:323,0
DA:325,0
DA:327,0
DA:328,0
DA:330,0
DA:331,0
DA:333,0
DA:334,0
DA:335,0
DA:336,0
DA:338,0
DA:340,0
DA:342,0
DA:343,0
DA:344,0
DA:345,0
DA:346,0
DA:347,0
DA:349,0
DA:350,0
DA:352,0
DA:354,0
DA:355,0
DA:356,0
DA:357,0
DA:358,0
DA:359,0
DA:360,0
DA:362,0
DA:363,0
DA:365,0
DA:369,0
DA:370,0
DA:371,0
DA:372,0
DA:373,0
DA:374,0
DA:376,0
DA:378,0
DA:380,0
DA:381,0
DA:382,0
DA:383,0
DA:384,0
DA:385,0
DA:387,0
DA:388,0
DA:390,0
DA:392,0
DA:393,0
DA:394,0
DA:395,0
DA:396,0
DA:397,0
DA:398,0
DA:400,0
DA:401,0
DA:403,0
DA:407,0
DA:409,0
DA:415,0
DA:416,0
DA:417,0
DA:419,0
DA:421,0
DA:422,0
DA:423,0
DA:424,0
DA:425,0
DA:427,0
DA:428,0
DA:429,0
DA:430,0
DA:432,0
DA:434,0
DA:435,0
DA:436,0
DA:437,0
DA:438,0
DA:439,0
DA:441,0
DA:443,0
DA:445,0
DA:446,0
DA:447,0
DA:448,0
DA:449,0
DA:450,0
DA:452,0
DA:453,0
DA:454,0
DA:456,0
DA:457,0
DA:459,0
DA:461,0
DA:462,0
DA:463,0
DA:464,0
DA:466,0
DA:467,0
DA:468,0
DA:470,0
DA:471,0
DA:472,0
DA:473,0
DA:474,0
DA:475,0
DA:476,0
DA:478,0
DA:479,0
DA:480,0
DA:482,0
DA:483,0
DA:485,0
DA:487,0
DA:488,0
DA:489,0
DA:490,0
DA:491,0
DA:493,0
DA:494,0
DA:495,0
DA:499,0
DA:500,0
DA:502,0
DA:504,0
DA:505,0
DA:507,0
DA:508,0
DA:510,0
DA:512,0
DA:514,0
DA:515,0
DA:516,0
DA:518,0
DA:519,0
DA:520,0
DA:521,0
DA:523,0
DA:525,0
DA:527,0
DA:528,0
DA:529,0
DA:530,0
DA:531,0
DA:532,0
DA:534,0
DA:535,0
DA:536,0
DA:538,0
DA:539,0
DA:541,0
DA:543,0
DA:544,0
DA:545,0
DA:546,0
DA:548,0
DA:549,0
DA:550,0
DA:552,0
DA:553,0
DA:554,0
DA:555,0
DA:556,0
DA:557,0
DA:558,0
DA:560,0
DA:561,0
DA:562,0
DA:564,0
DA:565,0
DA:567,0
DA:569,0
DA:570,0
DA:571,0
DA:572,0
DA:573,0
DA:575,0
DA:576,0
DA:577,0
DA:582,0
DA:584,0
DA:589,0
DA:590,0
DA:591,0
DA:593,0
DA:595,0
DA:596,0
DA:598,0
DA:599,0
DA:600,0
DA:601,0
DA:603,0
DA:604,0
DA:605,0
DA:606,0
DA:607,0
DA:608,0
DA:610,0
DA:611,0
DA:613,0
DA:615,0
DA:616,0
DA:617,0
DA:618,0
DA:619,0
DA:620,0
DA:622,0
DA:623,0
DA:624,0
DA:625,0
DA:627,0
DA:628,0
DA:630,0
DA:632,0
DA:633,0
DA:634,0
DA:635,0
DA:636,0
DA:637,0
DA:639,0
DA:640,0
DA:641,0
DA:642,0
DA:644,0
DA:645,0
DA:647,0
DA:649,0
LF:430
LH:0
end_of_record
TN:
SF:/root/mfem/tests/unit/fem/test_2d_bilininteg.cpp
FN:20,_ZN13bilininteg_2d2f2ERKN4mfem6VectorE
FN:21,_ZN13bilininteg_2d2F2ERKN4mfem6VectorERS1_
FN:28,_ZN13bilininteg_2d2q2ERKN4mfem6VectorE
FN:29,_ZN13bilininteg_2d2V2ERKN4mfem6VectorERS1_
FN:35,_ZN13bilininteg_2d2M2ERKN4mfem6VectorERNS0_11DenseMatrixE
FN:45,_ZN13bilininteg_2d3MT2ERKN4mfem6VectorERNS0_11DenseMatrixE
FN:50,_ZN13bilininteg_2d3qf2ERKN4mfem6VectorE
FN:51,_ZN13bilininteg_2d3qF2ERKN4mfem6VectorERS1_
FN:52,_ZN13bilininteg_2d3MF2ERKN4mfem6VectorERS1_
FN:58,_ZN13bilininteg_2d3DF2ERKN4mfem6VectorERS1_
FN:65,_ZN13bilininteg_2d7Grad_f2ERKN4mfem6VectorERS1_
FN:72,_ZN13bilininteg_2d8Curl_zf2ERKN4mfem6VectorERS1_
FN:80,_ZN13bilininteg_2d8qCurl_f2ERKN4mfem6VectorERS1_
FN:89,_ZN13bilininteg_2d6CurlF2ERKN4mfem6VectorE
FN:90,_ZN13bilininteg_2d5DivF2ERKN4mfem6VectorE
FN:92,_ZN13bilininteg_2d7Grad_F2ERKN4mfem6VectorERNS0_11DenseMatrixE
FN:99,_ZN13bilininteg_2d7Grad_V2ERKN4mfem6VectorERNS0_11DenseMatrixE
FN:106,_ZN13bilininteg_2d8qGrad_f2ERKN4mfem6VectorERS1_
FN:112,_ZN13bilininteg_2d8DGrad_f2ERKN4mfem6VectorERS1_
FN:117,_ZN13bilininteg_2d8MGrad_f2ERKN4mfem6VectorERS1_
FN:124,_ZN13bilininteg_2d7qCurlF2ERKN4mfem6VectorE
FN:129,_ZN13bilininteg_2d6qDivF2ERKN4mfem6VectorE
FN:134,_ZN13bilininteg_2d3Vf2ERKN4mfem6VectorERS1_
FN:136,_ZN13bilininteg_2d6VdotF2ERKN4mfem6VectorE
FN:145,_ZN13bilininteg_2d11VdotGrad_f2ERKN4mfem6VectorE
FN:152,_ZN13bilininteg_2d9Vcross_f2ERKN4mfem6VectorERS1_
FN:159,_ZN13bilininteg_2d8VcrossF2ERKN4mfem6VectorE
FN:166,_ZN13bilininteg_2d13VcrossGrad_f2ERKN4mfem6VectorE
FN:173,_ZN13bilininteg_2d12VcrossCurlF2ERKN4mfem6VectorERS1_
FN:180,_ZN13bilininteg_2d6VDivF2ERKN4mfem6VectorERS1_
FN:185,_ZN13bilininteg_2d10GradVdotF2ERKN4mfem6VectorERS1_
FN:199,_ZN13bilininteg_2d11MapTypeNameB5cxx11EN4mfem13FiniteElement7MapTypeE
FN:216,_ZN13bilininteg_2dL19C_A_T_C_H_T_E_S_T_0Ev
FN:464,_ZN13bilininteg_2dL20C_A_T_C_H_T_E_S_T_16Ev
FN:1085,_ZN13bilininteg_2dL20C_A_T_C_H_T_E_S_T_40Ev
FN:1334,_ZN13bilininteg_2dL20C_A_T_C_H_T_E_S_T_59Ev
FN:1475,_ZN13bilininteg_2dL20C_A_T_C_H_T_E_S_T_70Ev
FN:1561,_ZN13bilininteg_2dL20C_A_T_C_H_T_E_S_T_77Ev
FN:1675,_ZN13bilininteg_2dL20C_A_T_C_H_T_E_S_T_86Ev
FN:1754,_ZN13bilininteg_2dL20C_A_T_C_H_T_E_S_T_93Ev
FN:1961,_ZN13bilininteg_2dL21C_A_T_C_H_T_E_S_T_105Ev
FN:2121,_ZN13bilininteg_2dL21C_A_T_C_H_T_E_S_T_117Ev
FN:2332,_ZN13bilininteg_2dL21C_A_T_C_H_T_E_S_T_129Ev
FN:2467,_ZN13bilininteg_2dL21C_A_T_C_H_T_E_S_T_139Ev
FN:2602,_ZN13bilininteg_2dL21C_A_T_C_H_T_E_S_T_149Ev
FN:2689,_ZN13bilininteg_2dL21C_A_T_C_H_T_E_S_T_156Ev
FN:2778,_ZN13bilininteg_2dL21C_A_T_C_H_T_E_S_T_164Ev
FN:2997,_ZN13bilininteg_2dL21C_A_T_C_H_T_E_S_T_178Ev
FN:3157,_ZN13bilininteg_2dL21C_A_T_C_H_T_E_S_T_190Ev
FN:3287,_ZN13bilininteg_2dL21C_A_T_C_H_T_E_S_T_198Ev
FN:3366,_ZN13bilininteg_2dL21C_A_T_C_H_T_E_S_T_205Ev
FNDA:0,_ZN13bilininteg_2d10GradVdotF2ERKN4mfem6VectorERS1_
FNDA:0,_ZN13bilininteg_2d11MapTypeNameB5cxx11EN4mfem13FiniteElement7MapTypeE
FNDA:0,_ZN13bilininteg_2d11VdotGrad_f2ERKN4mfem6VectorE
FNDA:0,_ZN13bilininteg_2d12VcrossCurlF2ERKN4mfem6VectorERS1_
FNDA:0,_ZN13bilininteg_2d13VcrossGrad_f2ERKN4mfem6VectorE
FNDA:0,_ZN13bilininteg_2d2F2ERKN4mfem6VectorERS1_
FNDA:0,_ZN13bilininteg_2d2M2ERKN4mfem6VectorERNS0_11DenseMatrixE
FNDA:0,_ZN13bilininteg_2d2V2ERKN4mfem6VectorERS1_
FNDA:0,_ZN13bilininteg_2d2f2ERKN4mfem6VectorE
FNDA:0,_ZN13bilininteg_2d2q2ERKN4mfem6VectorE
FNDA:0,_ZN13bilininteg_2d3DF2ERKN4mfem6VectorERS1_
FNDA:0,_ZN13bilininteg_2d3MF2ERKN4mfem6VectorERS1_
FNDA:0,_ZN13bilininteg_2d3MT2ERKN4mfem6VectorERNS0_11DenseMatrixE
FNDA:0,_ZN13bilininteg_2d3Vf2ERKN4mfem6VectorERS1_
FNDA:0,_ZN13bilininteg_2d3qF2ERKN4mfem6VectorERS1_
FNDA:0,_ZN13bilininteg_2d3qf2ERKN4mfem6VectorE
FNDA:0,_ZN13bilininteg_2d5DivF2ERKN4mfem6VectorE
FNDA:0,_ZN13bilininteg_2d6CurlF2ERKN4mfem6VectorE
FNDA:0,_ZN13bilininteg_2d6VDivF2ERKN4mfem6VectorERS1_
FNDA:0,_ZN13bilininteg_2d6VdotF2ERKN4mfem6VectorE
FNDA:0,_ZN13bilininteg_2d6qDivF2ERKN4mfem6VectorE
FNDA:0,_ZN13bilininteg_2d7Grad_F2ERKN4mfem6VectorERNS0_11DenseMatrixE
FNDA:0,_ZN13bilininteg_2d7Grad_V2ERKN4mfem6VectorERNS0_11DenseMatrixE
FNDA:0,_ZN13bilininteg_2d7Grad_f2ERKN4mfem6VectorERS1_
FNDA:0,_ZN13bilininteg_2d7qCurlF2ERKN4mfem6VectorE
FNDA:0,_ZN13bilininteg_2d8Curl_zf2ERKN4mfem6VectorERS1_
FNDA:0,_ZN13bilininteg_2d8DGrad_f2ERKN4mfem6VectorERS1_
FNDA:0,_ZN13bilininteg_2d8MGrad_f2ERKN4mfem6VectorERS1_
FNDA:0,_ZN13bilininteg_2d8VcrossF2ERKN4mfem6VectorE
FNDA:0,_ZN13bilininteg_2d8qCurl_f2ERKN4mfem6VectorERS1_
FNDA:0,_ZN13bilininteg_2d8qGrad_f2ERKN4mfem6VectorERS1_
FNDA:0,_ZN13bilininteg_2d9Vcross_f2ERKN4mfem6VectorERS1_
FNDA:0,_ZN13bilininteg_2dL19C_A_T_C_H_T_E_S_T_0Ev
FNDA:0,_ZN13bilininteg_2dL20C_A_T_C_H_T_E_S_T_16Ev
FNDA:0,_ZN13bilininteg_2dL20C_A_T_C_H_T_E_S_T_40Ev
FNDA:0,_ZN13bilininteg_2dL20C_A_T_C_H_T_E_S_T_59Ev
FNDA:0,_ZN13bilininteg_2dL20C_A_T_C_H_T_E_S_T_70Ev
FNDA:0,_ZN13bilininteg_2dL20C_A_T_C_H_T_E_S_T_77Ev
FNDA:0,_ZN13bilininteg_2dL20C_A_T_C_H_T_E_S_T_86Ev
FNDA:0,_ZN13bilininteg_2dL20C_A_T_C_H_T_E_S_T_93Ev
FNDA:0,_ZN13bilininteg_2dL21C_A_T_C_H_T_E_S_T_105Ev
FNDA:0,_ZN13bilininteg_2dL21C_A_T_C_H_T_E_S_T_117Ev
FNDA:0,_ZN13bilininteg_2dL21C_A_T_C_H_T_E_S_T_129Ev
FNDA:0,_ZN13bilininteg_2dL21C_A_T_C_H_T_E_S_T_139Ev
FNDA:0,_ZN13bilininteg_2dL21C_A_T_C_H_T_E_S_T_149Ev
FNDA:0,_ZN13bilininteg_2dL21C_A_T_C_H_T_E_S_T_156Ev
FNDA:0,_ZN13bilininteg_2dL21C_A_T_C_H_T_E_S_T_164Ev
FNDA:0,_ZN13bilininteg_2dL21C_A_T_C_H_T_E_S_T_178Ev
FNDA:0,_ZN13bilininteg_2dL21C_A_T_C_H_T_E_S_T_190Ev
FNDA:0,_ZN13bilininteg_2dL21C_A_T_C_H_T_E_S_T_198Ev
FNDA:0,_ZN13bilininteg_2dL21C_A_T_C_H_T_E_S_T_205Ev
FNF:51
FNH:0
DA:20,0
DA:21,0
DA:23,0
DA:24,0
DA:25,0
DA:26,0
DA:28,0
DA:29,0
DA:31,0
DA:32,0
DA:33,0
DA:34,0
DA:35,0
DA:37,0
DA:39,0
DA:40,0
DA:42,0
DA:43,0
DA:44,0
DA:45,0
DA:47,0
DA:48,0
DA:50,0
DA:51,0
DA:52,0
DA:54,0
DA:55,0
DA:56,0
DA:57,0
DA:58,0
DA:60,0
DA:61,0
DA:62,0
DA:63,0
DA:65,0
DA:67,0
DA:68,0
DA:69,0
DA:70,0
DA:72,0
DA:74,0
DA:75,0
DA:76,0
DA:77,0
DA:78,0
DA:80,0
DA:82,0
DA:83,0
DA:84,0
DA:85,0
DA:86,0
DA:87,0
DA:89,0
DA:90,0
DA:92,0
DA:94,0
DA:95,0
DA:96,0
DA:97,0
DA:99,0
DA:101,0
DA:102,0
DA:103,0
DA:104,0
DA:106,0
DA:108,0
DA:109,0
DA:110,0
DA:112,0
DA:114,0
DA:115,0
DA:116,0
DA:117,0
DA:119,0
DA:120,0
DA:121,0
DA:122,0
DA:124,0
DA:126,0
DA:129,0
DA:131,0
DA:134,0
DA:136,0
DA:138,0
DA:139,0
DA:140,0
DA:141,0
DA:142,0
DA:145,0
DA:147,0
DA:148,0
DA:149,0
DA:152,0
DA:154,0
DA:155,0
DA:156,0
DA:157,0
DA:159,0
DA:161,0
DA:162,0
DA:163,0
DA:166,0
DA:168,0
DA:169,0
DA:170,0
DA:173,0
DA:175,0
DA:176,0
DA:177,0
DA:178,0
DA:180,0
DA:182,0
DA:183,0
DA:185,0
DA:187,0
DA:188,0
DA:189,0
DA:190,0
DA:191,0
DA:192,0
DA:194,0
DA:195,0
DA:196,0
DA:197,0
DA:199,0
DA:201,0
DA:203,0
DA:204,0
DA:205,0
DA:206,0
DA:207,0
DA:208,0
DA:209,0
DA:210,0
DA:211,0
DA:212,0
DA:216,0
DA:222,0
DA:223,0
DA:224,0
DA:226,0
DA:228,0
DA:229,0
DA:230,0
DA:232,0
DA:233,0
DA:234,0
DA:235,0
DA:237,0
DA:239,0
DA:240,0
DA:242,0
DA:244,0
DA:245,0
DA:247,0
DA:248,0
DA:250,0
DA:251,0
DA:252,0
DA:253,0
DA:255,0
DA:257,0
DA:259,0
DA:260,0
DA:261,0
DA:262,0
DA:263,0
DA:264,0
DA:266,0
DA:267,0
DA:269,0
DA:271,0
DA:272,0
DA:273,0
DA:274,0
DA:276,0
DA:277,0
DA:278,0
DA:280,0
DA:281,0
DA:282,0
DA:283,0
DA:284,0
DA:285,0
DA:287,0
DA:288,0
DA:290,0
DA:292,0
DA:293,0
DA:294,0
DA:295,0
DA:297,0
DA:298,0
DA:299,0
DA:303,0
DA:304,0
DA:305,0
DA:306,0
DA:307,0
DA:308,0
DA:310,0
DA:312,0
DA:314,0
DA:315,0
DA:316,0
DA:317,0
DA:318,0
DA:319,0
DA:321,0
DA:322,0
DA:324,0
DA:326,0
DA:327,0
DA:328,0
DA:329,0
DA:330,0
DA:331,0
DA:333,0
DA:334,0
DA:336,0
DA:340,0
DA:341,0
DA:343,0
DA:345,0
DA:346,0
DA:348,0
DA:349,0
DA:351,0
DA:353,0
DA:354,0
DA:356,0
DA:360,0
DA:361,0
DA:363,0
DA:364,0
DA:366,0
DA:367,0
DA:368,0
DA:369,0
DA:371,0
DA:373,0
DA:375,0
DA:376,0
DA:377,0
DA:378,0
DA:379,0
DA:380,0
DA:382,0
DA:383,0
DA:385,0
DA:387,0
DA:388,0
DA:389,0
DA:390,0
DA:391,0
DA:392,0
DA:394,0
DA:395,0
DA:397,0
DA:401,0
DA:404,0
DA:405,0
DA:406,0
DA:408,0
DA:409,0
DA:410,0
DA:411,0
DA:413,0
DA:415,0
DA:417,0
DA:418,0
DA:419,0
DA:420,0
DA:421,0
DA:422,0
DA:424,0
DA:425,0
DA:427,0
DA:429,0
DA:430,0
DA:431,0
DA:432,0
DA:434,0
DA:435,0
DA:436,0
DA:438,0
DA:439,0
DA:440,0
DA:441,0
DA:442,0
DA:443,0
DA:445,0
DA:446,0
DA:448,0
DA:450,0
DA:451,0
DA:452,0
DA:453,0
DA:455,0
DA:456,0
DA:457,0
DA:462,0
DA:464,0
DA:470,0
DA:471,0
DA:472,0
DA:474,0
DA:476,0
DA:477,0
DA:478,0
DA:479,0
DA:480,0
DA:481,0
DA:482,0
DA:483,0
DA:485,0
DA:486,0
DA:487,0
DA:488,0
DA:490,0
DA:492,0
DA:493,0
DA:494,0
DA:497,0
DA:498,0
DA:500,0
DA:501,0
DA:502,0
DA:503,0
DA:505,0
DA:507,0
DA:509,0
DA:510,0
DA:511,0
DA:512,0
DA:513,0
DA:514,0
DA:516,0
DA:517,0
DA:519,0
DA:521,0
DA:522,0
DA:523,0
DA:524,0
DA:526,0
DA:527,0
DA:529,0
DA:531,0
DA:532,0
DA:534,0
DA:535,0
DA:536,0
DA:537,0
DA:539,0
DA:541,0
DA:543,0
DA:546,0
DA:548,0
DA:549,0
DA:551,0
DA:552,0
DA:553,0
DA:554,0
DA:556,0
DA:558,0
DA:560,0
DA:561,0
DA:562,0
DA:563,0
DA:564,0
DA:565,0
DA:567,0
DA:568,0
DA:570,0
DA:572,0
DA:573,0
DA:574,0
DA:575,0
DA:577,0
DA:578,0
DA:580,0
DA:582,0
DA:583,0
DA:585,0
DA:586,0
DA:587,0
DA:588,0
DA:589,0
DA:590,0
DA:592,0
DA:593,0
DA:595,0
DA:597,0
DA:598,0
DA:599,0
DA:600,0
DA:601,0
DA:603,0
DA:604,0
DA:606,0
DA:608,0
DA:609,0
DA:611,0
DA:612,0
DA:613,0
DA:614,0
DA:615,0
DA:616,0
DA:618,0
DA:619,0
DA:621,0
DA:623,0
DA:624,0
DA:625,0
DA:626,0
DA:627,0
DA:629,0
DA:630,0
DA:632,0
DA:634,0
DA:635,0
DA:639,0
DA:640,0
DA:641,0
DA:644,0
DA:645,0
DA:646,0
DA:647,0
DA:649,0
DA:651,0
DA:653,0
DA:654,0
DA:655,0
DA:656,0
DA:657,0
DA:658,0
DA:660,0
DA:661,0
DA:663,0
DA:665,0
DA:666,0
DA:667,0
DA:668,0
DA:670,0
DA:671,0
DA:673,0
DA:675,0
DA:676,0
DA:678,0
DA:679,0
DA:680,0
DA:681,0
DA:683,0
DA:685,0
DA:687,0
DA:690,0
DA:692,0
DA:693,0
DA:695,0
DA:696,0
DA:697,0
DA:698,0
DA:700,0
DA:702,0
DA:704,0
DA:705,0
DA:706,0
DA:707,0
DA:708,0
DA:709,0
DA:711,0
DA:712,0
DA:714,0
DA:716,0
DA:717,0
DA:718,0
DA:719,0
DA:721,0
DA:722,0
DA:724,0
DA:726,0
DA:727,0
DA:729,0
DA:730,0
DA:731,0
DA:732,0
DA:733,0
DA:734,0
DA:736,0
DA:737,0
DA:739,0
DA:741,0
DA:742,0
DA:743,0
DA:744,0
DA:745,0
DA:747,0
DA:748,0
DA:750,0
DA:752,0
DA:753,0
DA:755,0
DA:756,0
DA:757,0
DA:758,0
DA:759,0
DA:760,0
DA:762,0
DA:763,0
DA:765,0
DA:767,0
DA:768,0
DA:769,0
DA:770,0
DA:771,0
DA:773,0
DA:774,0
DA:776,0
DA:778,0
DA:779,0
DA:784,0
DA:785,0
DA:786,0
DA:787,0
DA:789,0
DA:791,0
DA:792,0
DA:793,0
DA:796,0
DA:797,0
DA:799,0
DA:800,0
DA:801,0
DA:802,0
DA:804,0
DA:806,0
DA:808,0
DA:809,0
DA:810,0
DA:811,0
DA:812,0
DA:813,0
DA:815,0
DA:816,0
DA:818,0
DA:820,0
DA:821,0
DA:822,0
DA:823,0
DA:825,0
DA:826,0
DA:828,0
DA:830,0
DA:831,0
DA:833,0
DA:834,0
DA:835,0
DA:836,0
DA:838,0
DA:840,0
DA:842,0
DA:845,0
DA:847,0
DA:848,0
DA:850,0
DA:851,0
DA:852,0
DA:853,0
DA:855,0
DA:857,0
DA:859,0
DA:860,0
DA:861,0
DA:862,0
DA:863,0
DA:864,0
DA:866,0
DA:867,0
DA:869,0
DA:871,0
DA:872,0
DA:873,0
DA:874,0
DA:876,0
DA:877,0
DA:879,0
DA:881,0
DA:882,0
DA:884,0
DA:885,0
DA:886,0
DA:887,0
DA:888,0
DA:889,0
DA:891,0
DA:892,0
DA:894,0
DA:896,0
DA:897,0
DA:898,0
DA:899,0
DA:900,0
DA:902,0
DA:903,0
DA:905,0
DA:907,0
DA:908,0
DA:910,0
DA:911,0
DA:912,0
DA:913,0
DA:914,0
DA:915,0
DA:917,0
DA:918,0
DA:920,0
DA:922,0
DA:923,0
DA:924,0
DA:925,0
DA:926,0
DA:928,0
DA:929,0
DA:931,0
DA:933,0
DA:934,0
DA:938,0
DA:939,0
DA:940,0
DA:943,0
DA:944,0
DA:945,0
DA:946,0
DA:948,0
DA:950,0
DA:952,0
DA:953,0
DA:954,0
DA:955,0
DA:956,0
DA:957,0
DA:959,0
DA:960,0
DA:962,0
DA:964,0
DA:965,0
DA:966,0
DA:967,0
DA:969,0
DA:970,0
DA:972,0
DA:974,0
DA:975,0
DA:977,0
DA:978,0
DA:979,0
DA:980,0
DA:982,0
DA:984,0
DA:986,0
DA:989,0
DA:991,0
DA:992,0
DA:994,0
DA:995,0
DA:996,0
DA:997,0
DA:999,0
DA:1001,0
DA:1003,0
DA:1004,0
DA:1005,0
DA:1006,0
DA:1007,0
DA:1008,0
DA:1010,0
DA:1011,0
DA:1013,0
DA:1015,0
DA:1016,0
DA:1017,0
DA:1018,0
DA:1020,0
DA:1021,0
DA:1023,0
DA:1025,0
DA:1026,0
DA:1028,0
DA:1029,0
DA:1030,0
DA:1031,0
DA:1032,0
DA:1033,0
DA:1035,0
DA:1036,0
DA:1038,0
DA:1040,0
DA:1041,0
DA:1042,0
DA:1043,0
DA:1044,0
DA:1046,0
DA:1047,0
DA:1049,0
DA:1051,0
DA:1052,0
DA:1054,0
DA:1055,0
DA:1056,0
DA:1057,0
DA:1058,0
DA:1059,0
DA:1061,0
DA:1062,0
DA:1064,0
DA:1066,0
DA:1067,0
DA:1068,0
DA:1069,0
DA:1070,0
DA:1072,0
DA:1073,0
DA:1075,0
DA:1077,0
DA:1078,0
DA:1083,0
DA:1085,0
DA:1092,0
DA:1093,0
DA:1094,0
DA:1096,0
DA:1098,0
DA:1099,0
DA:1100,0
DA:1101,0
DA:1102,0
DA:1103,0
DA:1104,0
DA:1105,0
DA:1106,0
DA:1107,0
DA:1109,0
DA:1110,0
DA:1111,0
DA:1112,0
DA:1114,0
DA:1116,0
DA:1117,0
DA:1118,0
DA:1119,0
DA:1121,0
DA:1122,0
DA:1123,0
DA:1124,0
DA:1126,0
DA:1128,0
DA:1130,0
DA:1131,0
DA:1132,0
DA:1133,0
DA:1134,0
DA:1135,0
DA:1136,0
DA:1138,0
DA:1139,0
DA:1141,0
DA:1143,0
DA:1144,0
DA:1145,0
DA:1146,0
DA:1147,0
DA:1148,0
DA:1149,0
DA:1151,0
DA:1152,0
DA:1154,0
DA:1156,0
DA:1157,0
DA:1158,0
DA:1159,0
DA:1160,0
DA:1161,0
DA:1162,0
DA:1164,0
DA:1165,0
DA:1167,0
DA:1169,0
DA:1170,0
DA:1171,0
DA:1172,0
DA:1173,0
DA:1174,0
DA:1175,0
DA:1177,0
DA:1178,0
DA:1180,0
DA:1183,0
DA:1184,0
DA:1185,0
DA:1186,0
DA:1188,0
DA:1189,0
DA:1190,0
DA:1191,0
DA:1193,0
DA:1195,0
DA:1197,0
DA:1198,0
DA:1199,0
DA:1200,0
DA:1201,0
DA:1202,0
DA:1204,0
DA:1205,0
DA:1207,0
DA:1209,0
DA:1210,0
DA:1211,0
DA:1212,0
DA:1213,0
DA:1214,0
DA:1215,0
DA:1217,0
DA:1218,0
DA:1220,0
DA:1222,0
DA:1223,0
DA:1224,0
DA:1225,0
DA:1226,0
DA:1227,0
DA:1228,0
DA:1230,0
DA:1231,0
DA:1233,0
DA:1235,0
DA:1236,0
DA:1237,0
DA:1238,0
DA:1239,0
DA:1240,0
DA:1241,0
DA:1243,0
DA:1244,0
DA:1246,0
DA:1249,0
DA:1250,0
DA:1251,0
DA:1252,0
DA:1254,0
DA:1255,0
DA:1256,0
DA:1257,0
DA:1259,0
DA:1261,0
DA:1263,0
DA:1264,0
DA:1265,0
DA:1266,0
DA:1267,0
DA:1268,0
DA:1269,0
DA:1271,0
DA:1272,0
DA:1274,0
DA:1276,0
DA:1277,0
DA:1278,0
DA:1279,0
DA:1280,0
DA:1281,0
DA:1282,0
DA:1284,0
DA:1285,0
DA:1287,0
DA:1290,0
DA:1291,0
DA:1292,0
DA:1293,0
DA:1295,0
DA:1296,0
DA:1297,0
DA:1298,0
DA:1300,0
DA:1302,0
DA:1304,0
DA:1305,0
DA:1306,0
DA:1307,0
DA:1308,0
DA:1309,0
DA:1310,0
DA:1312,0
DA:1313,0
DA:1315,0
DA:1317,0
DA:1318,0
DA:1319,0
DA:1320,0
DA:1321,0
DA:1322,0
DA:1323,0
DA:1325,0
DA:1326,0
DA:1328,0
DA:1332,0
DA:1334,0
DA:1341,0
DA:1342,0
DA:1343,0
DA:1345,0
DA:1347,0
DA:1348,0
DA:1349,0
DA:1350,0
DA:1352,0
DA:1353,0
DA:1354,0
DA:1355,0
DA:1357,0
DA:1359,0
DA:1360,0
DA:1362,0
DA:1364,0
DA:1365,0
DA:1367,0
DA:1368,0
DA:1370,0
DA:1371,0
DA:1372,0
DA:1373,0
DA:1375,0
DA:1377,0
DA:1379,0
DA:1380,0
DA:1381,0
DA:1382,0
DA:1383,0
DA:1384,0
DA:1386,0
DA:1387,0
DA:1389,0
DA:1391,0
DA:1392,0
DA:1393,0
DA:1394,0
DA:1395,0
DA:1396,0
DA:1397,0
DA:1399,0
DA:1400,0
DA:1402,0
DA:1404,0
DA:1405,0
DA:1406,0
DA:1407,0
DA:1408,0
DA:1409,0
DA:1410,0
DA:1412,0
DA:1413,0
DA:1415,0
DA:1419,0
DA:1420,0
DA:1421,0
DA:1422,0
DA:1424,0
DA:1425,0
DA:1426,0
DA:1427,0
DA:1429,0
DA:1431,0
DA:1433,0
DA:1434,0
DA:1435,0
DA:1436,0
DA:1437,0
DA:1438,0
DA:1440,0
DA:1441,0
DA:1443,0
DA:1445,0
DA:1446,0
DA:1447,0
DA:1448,0
DA:1449,0
DA:1450,0
DA:1451,0
DA:1453,0
DA:1454,0
DA:1456,0
DA:1458,0
DA:1459,0
DA:1460,0
DA:1461,0
DA:1462,0
DA:1463,0
DA:1464,0
DA:1466,0
DA:1467,0
DA:1469,0
DA:1473,0
DA:1475,0
DA:1481,0
DA:1482,0
DA:1483,0
DA:1485,0
DA:1487,0
DA:1488,0
DA:1489,0
DA:1491,0
DA:1492,0
DA:1493,0
DA:1494,0
DA:1496,0
DA:1498,0
DA:1499,0
DA:1501,0
DA:1503,0
DA:1504,0
DA:1506,0
DA:1507,0
DA:1509,0
DA:1510,0
DA:1511,0
DA:1512,0
DA:1514,0
DA:1516,0
DA:1518,0
DA:1519,0
DA:1520,0
DA:1521,0
DA:1522,0
DA:1523,0
DA:1524,0
DA:1526,0
DA:1527,0
DA:1529,0
DA:1533,0
DA:1534,0
DA:1535,0
DA:1536,0
DA:1537,0
DA:1538,0
DA:1540,0
DA:1542,0
DA:1544,0
DA:1545,0
DA:1546,0
DA:1547,0
DA:1548,0
DA:1549,0
DA:1550,0
DA:1552,0
DA:1553,0
DA:1555,0
DA:1559,0
DA:1561,0
DA:1567,0
DA:1568,0
DA:1569,0
DA:1571,0
DA:1573,0
DA:1574,0
DA:1575,0
DA:1576,0
DA:1578,0
DA:1579,0
DA:1580,0
DA:1581,0
DA:1583,0
DA:1585,0
DA:1586,0
DA:1588,0
DA:1590,0
DA:1591,0
DA:1593,0
DA:1594,0
DA:1596,0
DA:1597,0
DA:1598,0
DA:1599,0
DA:1601,0
DA:1603,0
DA:1605,0
DA:1606,0
DA:1607,0
DA:1608,0
DA:1609,0
DA:1610,0
DA:1612,0
DA:1613,0
DA:1615,0
DA:1617,0
DA:1618,0
DA:1619,0
DA:1620,0
DA:1621,0
DA:1622,0
DA:1623,0
DA:1625,0
DA:1626,0
DA:1628,0
DA:1632,0
DA:1633,0
DA:1634,0
DA:1635,0
DA:1637,0
DA:1638,0
DA:1639,0
DA:1640,0
DA:1642,0
DA:1644,0
DA:1646,0
DA:1647,0
DA:1648,0
DA:1649,0
DA:1650,0
DA:1651,0
DA:1653,0
DA:1654,0
DA:1656,0
DA:1658,0
DA:1659,0
DA:1660,0
DA:1661,0
DA:1662,0
DA:1663,0
DA:1664,0
DA:1666,0
DA:1667,0
DA:1669,0
DA:1673,0
DA:1675,0
DA:1681,0
DA:1682,0
DA:1683,0
DA:1685,0
DA:1687,0
DA:1688,0
DA:1689,0
DA:1691,0
DA:1692,0
DA:1693,0
DA:1694,0
DA:1696,0
DA:1698,0
DA:1699,0
DA:1700,0
DA:1701,0
DA:1702,0
DA:1703,0
DA:1705,0
DA:1707,0
DA:1709,0
DA:1710,0
DA:1711,0
DA:1712,0
DA:1713,0
DA:1714,0
DA:1715,0
DA:1717,0
DA:1718,0
DA:1720,0
DA:1723,0
DA:1724,0
DA:1725,0
DA:1726,0
DA:1728,0
DA:1729,0
DA:1730,0
DA:1731,0
DA:1733,0
DA:1735,0
DA:1737,0
DA:1738,0
DA:1739,0
DA:1740,0
DA:1741,0
DA:1742,0
DA:1743,0
DA:1745,0
DA:1746,0
DA:1748,0
DA:1752,0
DA:1754,0
DA:1760,0
DA:1761,0
DA:1762,0
DA:1764,0
DA:1766,0
DA:1767,0
DA:1768,0
DA:1770,0
DA:1771,0
DA:1772,0
DA:1773,0
DA:1775,0
DA:1777,0
DA:1778,0
DA:1779,0
DA:1780,0
DA:1782,0
DA:1783,0
DA:1784,0
DA:1785,0
DA:1787,0
DA:1789,0
DA:1791,0
DA:1792,0
DA:1793,0
DA:1794,0
DA:1795,0
DA:1796,0
DA:1798,0
DA:1799,0
DA:1801,0
DA:1803,0
DA:1804,0
DA:1805,0
DA:1806,0
DA:1807,0
DA:1809,0
DA:1810,0
DA:1812,0
DA:1814,0
DA:1815,0
DA:1818,0
DA:1819,0
DA:1820,0
DA:1821,0
DA:1823,0
DA:1824,0
DA:1825,0
DA:1826,0
DA:1828,0
DA:1830,0
DA:1832,0
DA:1833,0
DA:1834,0
DA:1835,0
DA:1836,0
DA:1837,0
DA:1839,0
DA:1840,0
DA:1842,0
DA:1844,0
DA:1845,0
DA:1846,0
DA:1847,0
DA:1848,0
DA:1850,0
DA:1851,0
DA:1853,0
DA:1855,0
DA:1856,0
DA:1860,0
DA:1861,0
DA:1863,0
DA:1865,0
DA:1866,0
DA:1868,0
DA:1869,0
DA:1871,0
DA:1873,0
DA:1875,0
DA:1876,0
DA:1877,0
DA:1879,0
DA:1880,0
DA:1881,0
DA:1882,0
DA:1884,0
DA:1886,0
DA:1888,0
DA:1889,0
DA:1890,0
DA:1891,0
DA:1892,0
DA:1893,0
DA:1895,0
DA:1896,0
DA:1898,0
DA:1900,0
DA:1901,0
DA:1902,0
DA:1903,0
DA:1904,0
DA:1906,0
DA:1907,0
DA:1909,0
DA:1911,0
DA:1912,0
DA:1915,0
DA:1917,0
DA:1918,0
DA:1919,0
DA:1921,0
DA:1922,0
DA:1923,0
DA:1924,0
DA:1926,0
DA:1928,0
DA:1930,0
DA:1931,0
DA:1932,0
DA:1933,0
DA:1934,0
DA:1935,0
DA:1937,0
DA:1938,0
DA:1940,0
DA:1942,0
DA:1943,0
DA:1944,0
DA:1945,0
DA:1946,0
DA:1948,0
DA:1949,0
DA:1951,0
DA:1953,0
DA:1954,0
DA:1959,0
DA:1961,0
DA:1967,0
DA:1968,0
DA:1969,0
DA:1971,0
DA:1973,0
DA:1974,0
DA:1975,0
DA:1977,0
DA:1978,0
DA:1979,0
DA:1980,0
DA:1982,0
DA:1984,0
DA:1985,0
DA:1986,0
DA:1987,0
DA:1989,0
DA:1990,0
DA:1991,0
DA:1992,0
DA:1994,0
DA:1996,0
DA:1998,0
DA:1999,0
DA:2000,0
DA:2001,0
DA:2002,0
DA:2003,0
DA:2004,0
DA:2006,0
DA:2007,0
DA:2009,0
DA:2012,0
DA:2013,0
DA:2015,0
DA:2017,0
DA:2018,0
DA:2020,0
DA:2021,0
DA:2023,0
DA:2024,0
DA:2025,0
DA:2026,0
DA:2028,0
DA:2030,0
DA:2032,0
DA:2033,0
DA:2034,0
DA:2035,0
DA:2036,0
DA:2037,0
DA:2038,0
DA:2040,0
DA:2041,0
DA:2043,0
DA:2048,0
DA:2049,0
DA:2050,0
DA:2051,0
DA:2053,0
DA:2055,0
DA:2056,0
DA:2057,0
DA:2058,0
DA:2060,0
DA:2061,0
DA:2062,0
DA:2063,0
DA:2065,0
DA:2067,0
DA:2069,0
DA:2070,0
DA:2071,0
DA:2072,0
DA:2073,0
DA:2074,0
DA:2075,0
DA:2077,0
DA:2078,0
DA:2080,0
DA:2083,0
DA:2084,0
DA:2086,0
DA:2088,0
DA:2089,0
DA:2091,0
DA:2092,0
DA:2094,0
DA:2095,0
DA:2096,0
DA:2097,0
DA:2099,0
DA:2101,0
DA:2103,0
DA:2104,0
DA:2105,0
DA:2106,0
DA:2107,0
DA:2108,0
DA:2109,0
DA:2111,0
DA:2112,0
DA:2114,0
DA:2119,0
DA:2121,0
DA:2127,0
DA:2128,0
DA:2129,0
DA:2131,0
DA:2133,0
DA:2134,0
DA:2135,0
DA:2137,0
DA:2138,0
DA:2139,0
DA:2140,0
DA:2142,0
DA:2144,0
DA:2145,0
DA:2146,0
DA:2147,0
DA:2149,0
DA:2150,0
DA:2151,0
DA:2152,0
DA:2154,0
DA:2156,0
DA:2158,0
DA:2159,0
DA:2160,0
DA:2161,0
DA:2162,0
DA:2163,0
DA:2164,0
DA:2166,0
DA:2167,0
DA:2169,0
DA:2171,0
DA:2172,0
DA:2173,0
DA:2174,0
DA:2175,0
DA:2177,0
DA:2178,0
DA:2180,0
DA:2182,0
DA:2183,0
DA:2186,0
DA:2187,0
DA:2188,0
DA:2189,0
DA:2191,0
DA:2192,0
DA:2193,0
DA:2194,0
DA:2196,0
DA:2198,0
DA:2200,0
DA:2201,0
DA:2202,0
DA:2203,0
DA:2204,0
DA:2205,0
DA:2206,0
DA:2208,0
DA:2209,0
DA:2211,0
DA:2213,0
DA:2214,0
DA:2215,0
DA:2216,0
DA:2217,0
DA:2219,0
DA:2220,0
DA:2222,0
DA:2224,0
DA:2225,0
DA:2229,0
DA:2230,0
DA:2232,0
DA:2234,0
DA:2235,0
DA:2237,0
DA:2238,0
DA:2240,0
DA:2242,0
DA:2244,0
DA:2245,0
DA:2246,0
DA:2248,0
DA:2249,0
DA:2250,0
DA:2251,0
DA:2253,0
DA:2255,0
DA:2257,0
DA:2258,0
DA:2259,0
DA:2260,0
DA:2261,0
DA:2262,0
DA:2263,0
DA:2265,0
DA:2266,0
DA:2268,0
DA:2270,0
DA:2271,0
DA:2272,0
DA:2273,0
DA:2274,0
DA:2276,0
DA:2277,0
DA:2279,0
DA:2281,0
DA:2282,0
DA:2285,0
DA:2287,0
DA:2288,0
DA:2289,0
DA:2291,0
DA:2292,0
DA:2293,0
DA:2294,0
DA:2296,0
DA:2298,0
DA:2300,0
DA:2301,0
DA:2302,0
DA:2303,0
DA:2304,0
DA:2305,0
DA:2306,0
DA:2308,0
DA:2309,0
DA:2311,0
DA:2313,0
DA:2314,0
DA:2315,0
DA:2316,0
DA:2317,0
DA:2319,0
DA:2320,0
DA:2322,0
DA:2324,0
DA:2325,0
DA:2330,0
DA:2332,0
DA:2338,0
DA:2339,0
DA:2341,0
DA:2343,0
DA:2345,0
DA:2346,0
DA:2347,0
DA:2348,0
DA:2350,0
DA:2351,0
DA:2352,0
DA:2353,0
DA:2355,0
DA:2356,0
DA:2357,0
DA:2358,0
DA:2359,0
DA:2360,0
DA:2361,0
DA:2363,0
DA:2364,0
DA:2365,0
DA:2366,0
DA:2367,0
DA:2369,0
DA:2370,0
DA:2372,0
DA:2374,0
DA:2375,0
DA:2377,0
DA:2378,0
DA:2379,0
DA:2380,0
DA:2381,0
DA:2382,0
DA:2383,0
DA:2385,0
DA:2386,0
DA:2387,0
DA:2388,0
DA:2389,0
DA:2391,0
DA:2392,0
DA:2394,0
DA:2396,0
DA:2397,0
DA:2401,0
DA:2402,0
DA:2404,0
DA:2406,0
DA:2407,0
DA:2409,0
DA:2410,0
DA:2412,0
DA:2414,0
DA:2415,0
DA:2416,0
DA:2418,0
DA:2419,0
DA:2420,0
DA:2421,0
DA:2422,0
DA:2423,0
DA:2424,0
DA:2426,0
DA:2427,0
DA:2428,0
DA:2429,0
DA:2430,0
DA:2432,0
DA:2433,0
DA:2435,0
DA:2437,0
DA:2438,0
DA:2440,0
DA:2441,0
DA:2442,0
DA:2443,0
DA:2444,0
DA:2445,0
DA:2446,0
DA:2448,0
DA:2449,0
DA:2450,0
DA:2451,0
DA:2452,0
DA:2454,0
DA:2455,0
DA:2457,0
DA:2459,0
DA:2460,0
DA:2465,0
DA:2467,0
DA:2473,0
DA:2474,0
DA:2476,0
DA:2478,0
DA:2480,0
DA:2481,0
DA:2482,0
DA:2483,0
DA:2485,0
DA:2486,0
DA:2487,0
DA:2488,0
DA:2490,0
DA:2491,0
DA:2492,0
DA:2493,0
DA:2494,0
DA:2495,0
DA:2496,0
DA:2498,0
DA:2499,0
DA:2500,0
DA:2501,0
DA:2502,0
DA:2504,0
DA:2505,0
DA:2507,0
DA:2509,0
DA:2510,0
DA:2512,0
DA:2513,0
DA:2514,0
DA:2515,0
DA:2516,0
DA:2517,0
DA:2518,0
DA:2520,0
DA:2521,0
DA:2522,0
DA:2523,0
DA:2524,0
DA:2526,0
DA:2527,0
DA:2529,0
DA:2531,0
DA:2532,0
DA:2536,0
DA:2537,0
DA:2539,0
DA:2541,0
DA:2542,0
DA:2544,0
DA:2545,0
DA:2547,0
DA:2549,0
DA:2550,0
DA:2551,0
DA:2553,0
DA:2554,0
DA:2555,0
DA:2556,0
DA:2557,0
DA:2558,0
DA:2559,0
DA:2561,0
DA:2562,0
DA:2563,0
DA:2564,0
DA:2565,0
DA:2567,0
DA:2568,0
DA:2570,0
DA:2572,0
DA:2573,0
DA:2575,0
DA:2576,0
DA:2577,0
DA:2578,0
DA:2579,0
DA:2580,0
DA:2581,0
DA:2583,0
DA:2584,0
DA:2585,0
DA:2586,0
DA:2587,0
DA:2589,0
DA:2590,0
DA:2592,0
DA:2594,0
DA:2595,0
DA:2600,0
DA:2602,0
DA:2608,0
DA:2609,0
DA:2610,0
DA:2612,0
DA:2614,0
DA:2615,0
DA:2616,0
DA:2618,0
DA:2619,0
DA:2620,0
DA:2621,0
DA:2623,0
DA:2625,0
DA:2626,0
DA:2627,0
DA:2628,0
DA:2629,0
DA:2630,0
DA:2632,0
DA:2634,0
DA:2636,0
DA:2637,0
DA:2638,0
DA:2639,0
DA:2640,0
DA:2641,0
DA:2642,0
DA:2644,0
DA:2645,0
DA:2647,0
DA:2650,0
DA:2651,0
DA:2653,0
DA:2655,0
DA:2656,0
DA:2658,0
DA:2659,0
DA:2661,0
DA:2662,0
DA:2663,0
DA:2664,0
DA:2666,0
DA:2668,0
DA:2670,0
DA:2671,0
DA:2672,0
DA:2673,0
DA:2674,0
DA:2675,0
DA:2676,0
DA:2678,0
DA:2679,0
DA:2681,0
DA:2686,0
DA:2689,0
DA:2695,0
DA:2696,0
DA:2698,0
DA:2700,0
DA:2702,0
DA:2703,0
DA:2704,0
DA:2705,0
DA:2707,0
DA:2708,0
DA:2709,0
DA:2710,0
DA:2711,0
DA:2712,0
DA:2713,0
DA:2714,0
DA:2715,0
DA:2717,0
DA:2718,0
DA:2719,0
DA:2720,0
DA:2721,0
DA:2723,0
DA:2724,0
DA:2726,0
DA:2728,0
DA:2729,0
DA:2733,0
DA:2734,0
DA:2736,0
DA:2738,0
DA:2739,0
DA:2741,0
DA:2742,0
DA:2744,0
DA:2746,0
DA:2747,0
DA:2748,0
DA:2750,0
DA:2751,0
DA:2752,0
DA:2753,0
DA:2754,0
DA:2755,0
DA:2756,0
DA:2758,0
DA:2759,0
DA:2760,0
DA:2761,0
DA:2762,0
DA:2764,0
DA:2765,0
DA:2767,0
DA:2769,0
DA:2770,0
DA:2775,0
DA:2778,0
DA:2784,0
DA:2785,0
DA:2787,0
DA:2789,0
DA:2790,0
DA:2791,0
DA:2792,0
DA:2794,0
DA:2795,0
DA:2796,0
DA:2797,0
DA:2799,0
DA:2800,0
DA:2801,0
DA:2802,0
DA:2804,0
DA:2805,0
DA:2806,0
DA:2807,0
DA:2808,0
DA:2809,0
DA:2810,0
DA:2812,0
DA:2813,0
DA:2814,0
DA:2815,0
DA:2816,0
DA:2818,0
DA:2819,0
DA:2821,0
DA:2823,0
DA:2824,0
DA:2826,0
DA:2827,0
DA:2828,0
DA:2829,0
DA:2830,0
DA:2831,0
DA:2832,0
DA:2834,0
DA:2835,0
DA:2836,0
DA:2837,0
DA:2838,0
DA:2840,0
DA:2841,0
DA:2843,0
DA:2845,0
DA:2846,0
DA:2848,0
DA:2849,0
DA:2850,0
DA:2851,0
DA:2852,0
DA:2853,0
DA:2854,0
DA:2856,0
DA:2857,0
DA:2858,0
DA:2859,0
DA:2860,0
DA:2862,0
DA:2863,0
DA:2865,0
DA:2867,0
DA:2868,0
DA:2870,0
DA:2871,0
DA:2872,0
DA:2873,0
DA:2874,0
DA:2875,0
DA:2876,0
DA:2878,0
DA:2879,0
DA:2880,0
DA:2881,0
DA:2882,0
DA:2884,0
DA:2885,0
DA:2887,0
DA:2889,0
DA:2890,0
DA:2894,0
DA:2895,0
DA:2896,0
DA:2897,0
DA:2899,0
DA:2900,0
DA:2901,0
DA:2902,0
DA:2904,0
DA:2905,0
DA:2906,0
DA:2907,0
DA:2908,0
DA:2909,0
DA:2910,0
DA:2912,0
DA:2913,0
DA:2914,0
DA:2915,0
DA:2916,0
DA:2918,0
DA:2919,0
DA:2921,0
DA:2923,0
DA:2924,0
DA:2926,0
DA:2927,0
DA:2928,0
DA:2929,0
DA:2930,0
DA:2931,0
DA:2932,0
DA:2934,0
DA:2935,0
DA:2936,0
DA:2937,0
DA:2938,0
DA:2940,0
DA:2941,0
DA:2943,0
DA:2945,0
DA:2946,0
DA:2948,0
DA:2949,0
DA:2950,0
DA:2951,0
DA:2952,0
DA:2953,0
DA:2954,0
DA:2956,0
DA:2957,0
DA:2958,0
DA:2959,0
DA:2960,0
DA:2962,0
DA:2963,0
DA:2965,0
DA:2967,0
DA:2968,0
DA:2970,0
DA:2971,0
DA:2972,0
DA:2973,0
DA:2974,0
DA:2975,0
DA:2976,0
DA:2978,0
DA:2979,0
DA:2980,0
DA:2981,0
DA:2982,0
DA:2984,0
DA:2985,0
DA:2987,0
DA:2989,0
DA:2990,0
DA:2994,0
DA:2997,0
DA:3003,0
DA:3004,0
DA:3005,0
DA:3007,0
DA:3009,0
DA:3010,0
DA:3011,0
DA:3013,0
DA:3014,0
DA:3015,0
DA:3016,0
DA:3018,0
DA:3020,0
DA:3021,0
DA:3022,0
DA:3023,0
DA:3025,0
DA:3026,0
DA:3027,0
DA:3028,0
DA:3030,0
DA:3032,0
DA:3034,0
DA:3035,0
DA:3036,0
DA:3037,0
DA:3038,0
DA:3039,0
DA:3040,0
DA:3042,0
DA:3043,0
DA:3045,0
DA:3048,0
DA:3049,0
DA:3051,0
DA:3053,0
DA:3054,0
DA:3056,0
DA:3057,0
DA:3059,0
DA:3060,0
DA:3061,0
DA:3062,0
DA:3064,0
DA:3066,0
DA:3068,0
DA:3069,0
DA:3070,0
DA:3071,0
DA:3072,0
DA:3073,0
DA:3074,0
DA:3076,0
DA:3077,0
DA:3079,0
DA:3084,0
DA:3085,0
DA:3086,0
DA:3087,0
DA:3089,0
DA:3091,0
DA:3092,0
DA:3093,0
DA:3094,0
DA:3096,0
DA:3097,0
DA:3098,0
DA:3099,0
DA:3101,0
DA:3103,0
DA:3105,0
DA:3106,0
DA:3107,0
DA:3108,0
DA:3109,0
DA:3110,0
DA:3111,0
DA:3113,0
DA:3114,0
DA:3116,0
DA:3119,0
DA:3120,0
DA:3122,0
DA:3124,0
DA:3125,0
DA:3127,0
DA:3128,0
DA:3130,0
DA:3131,0
DA:3132,0
DA:3133,0
DA:3135,0
DA:3137,0
DA:3139,0
DA:3140,0
DA:3141,0
DA:3142,0
DA:3143,0
DA:3144,0
DA:3145,0
DA:3147,0
DA:3148,0
DA:3150,0
DA:3155,0
DA:3157,0
DA:3163,0
DA:3164,0
DA:3165,0
DA:3167,0
DA:3168,0
DA:3169,0
DA:3170,0
DA:3172,0
DA:3173,0
DA:3175,0
DA:3177,0
DA:3178,0
DA:3179,0
DA:3180,0
DA:3182,0
DA:3184,0
DA:3185,0
DA:3186,0
DA:3187,0
DA:3189,0
DA:3190,0
DA:3191,0
DA:3192,0
DA:3194,0
DA:3196,0
DA:3198,0
DA:3199,0
DA:3200,0
DA:3201,0
DA:3202,0
DA:3203,0
DA:3204,0
DA:3206,0
DA:3207,0
DA:3208,0
DA:3209,0
DA:3210,0
DA:3212,0
DA:3213,0
DA:3215,0
DA:3217,0
DA:3218,0
DA:3220,0
DA:3221,0
DA:3222,0
DA:3223,0
DA:3225,0
DA:3226,0
DA:3228,0
DA:3232,0
DA:3233,0
DA:3234,0
DA:3235,0
DA:3237,0
DA:3239,0
DA:3240,0
DA:3241,0
DA:3242,0
DA:3243,0
DA:3244,0
DA:3246,0
DA:3248,0
DA:3250,0
DA:3251,0
DA:3252,0
DA:3253,0
DA:3254,0
DA:3255,0
DA:3256,0
DA:3258,0
DA:3259,0
DA:3260,0
DA:3261,0
DA:3262,0
DA:3264,0
DA:3265,0
DA:3267,0
DA:3269,0
DA:3270,0
DA:3272,0
DA:3273,0
DA:3274,0
DA:3275,0
DA:3277,0
DA:3278,0
DA:3280,0
DA:3285,0
DA:3287,0
DA:3293,0
DA:3294,0
DA:3295,0
DA:3297,0
DA:3299,0
DA:3300,0
DA:3301,0
DA:3303,0
DA:3304,0
DA:3305,0
DA:3306,0
DA:3308,0
DA:3310,0
DA:3311,0
DA:3312,0
DA:3313,0
DA:3315,0
DA:3316,0
DA:3317,0
DA:3318,0
DA:3320,0
DA:3322,0
DA:3324,0
DA:3325,0
DA:3326,0
DA:3327,0
DA:3328,0
DA:3329,0
DA:3330,0
DA:3332,0
DA:3333,0
DA:3335,0
DA:3338,0
DA:3339,0
DA:3340,0
DA:3341,0
DA:3342,0
DA:3343,0
DA:3345,0
DA:3347,0
DA:3349,0
DA:3350,0
DA:3351,0
DA:3352,0
DA:3353,0
DA:3354,0
DA:3355,0
DA:3357,0
DA:3358,0
DA:3360,0
DA:3364,0
DA:3366,0
DA:3372,0
DA:3373,0
DA:3375,0
DA:3377,0
DA:3379,0
DA:3380,0
DA:3381,0
DA:3382,0
DA:3384,0
DA:3385,0
DA:3386,0
DA:3387,0
DA:3388,0
DA:3389,0
DA:3390,0
DA:3391,0
DA:3392,0
DA:3394,0
DA:3395,0
DA:3396,0
DA:3397,0
DA:3398,0
DA:3400,0
DA:3401,0
DA:3403,0
DA:3405,0
DA:3406,0
DA:3410,0
DA:3411,0
DA:3412,0
DA:3413,0
DA:3415,0
DA:3416,0
DA:3417,0
DA:3418,0
DA:3420,0
DA:3421,0
DA:3422,0
DA:3423,0
DA:3424,0
DA:3425,0
DA:3426,0
DA:3428,0
DA:3429,0
DA:3430,0
DA:3431,0
DA:3432,0
DA:3434,0
DA:3435,0
DA:3437,0
DA:3439,0
DA:3440,0
DA:3444,0
LF:2328
LH:0
end_of_record
TN:
SF:/root/mfem/tests/unit/fem/test_3d_bilininteg.cpp
FN:20,_ZN13bilininteg_3d5zero3ERKN4mfem6VectorE
FN:21,_ZN13bilininteg_3d5Zero3ERKN4mfem6VectorERS1_
FN:23,_ZN13bilininteg_3d2f3ERKN4mfem6VectorE
FN:25,_ZN13bilininteg_3d2F3ERKN4mfem6VectorERS1_
FN:33,_ZN13bilininteg_3d2q3ERKN4mfem6VectorE
FN:36,_ZN13bilininteg_3d2V3ERKN4mfem6VectorERS1_
FN:43,_ZN13bilininteg_3d2M3ERKN4mfem6VectorERNS0_11DenseMatrixE
FN:59,_ZN13bilininteg_3d3MT3ERKN4mfem6VectorERNS0_11DenseMatrixE
FN:64,_ZN13bilininteg_3d3qf3ERKN4mfem6VectorE
FN:65,_ZN13bilininteg_3d3qF3ERKN4mfem6VectorERS1_
FN:66,_ZN13bilininteg_3d3MF3ERKN4mfem6VectorERS1_
FN:72,_ZN13bilininteg_3d3DF3ERKN4mfem6VectorERS1_
FN:79,_ZN13bilininteg_3d7Grad_f3ERKN4mfem6VectorERS1_
FN:86,_ZN13bilininteg_3d6CurlF3ERKN4mfem6VectorERS1_
FN:93,_ZN13bilininteg_3d5DivF3ERKN4mfem6VectorE
FN:96,_ZN13bilininteg_3d6CurlV3ERKN4mfem6VectorERS1_
FN:104,_ZN13bilininteg_3d8qGrad_f3ERKN4mfem6VectorERS1_
FN:108,_ZN13bilininteg_3d8DGrad_f3ERKN4mfem6VectorERS1_
FN:113,_ZN13bilininteg_3d8MGrad_f3ERKN4mfem6VectorERS1_
FN:120,_ZN13bilininteg_3d7qCurlF3ERKN4mfem6VectorERS1_
FN:124,_ZN13bilininteg_3d7DCurlF3ERKN4mfem6VectorERS1_
FN:129,_ZN13bilininteg_3d7MCurlF3ERKN4mfem6VectorERS1_
FN:136,_ZN13bilininteg_3d6qDivF3ERKN4mfem6VectorE
FN:141,_ZN13bilininteg_3d3Vf3ERKN4mfem6VectorERS1_
FN:146,_ZN13bilininteg_3d8VcrossF3ERKN4mfem6VectorERS1_
FN:156,_ZN13bilininteg_3d6VdotF3ERKN4mfem6VectorE
FN:163,_ZN13bilininteg_3d11VdotGrad_f3ERKN4mfem6VectorE
FN:170,_ZN13bilininteg_3d13VcrossGrad_f3ERKN4mfem6VectorERS1_
FN:180,_ZN13bilininteg_3d12VcrossCurlF3ERKN4mfem6VectorERS1_
FN:190,_ZN13bilininteg_3d6VDivF3ERKN4mfem6VectorERS1_
FN:195,_ZN13bilininteg_3d7Grad_q3ERKN4mfem6VectorERS1_
FN:203,_ZN13bilininteg_3d7Grad_V3ERKN4mfem6VectorERNS0_11DenseMatrixE
FN:211,_ZN13bilininteg_3d5DivV3ERKN4mfem6VectorE
FN:214,_ZN13bilininteg_3d7Grad_F3ERKN4mfem6VectorERNS0_11DenseMatrixE
FN:222,_ZN13bilininteg_3d7Grad_M3ERKN4mfem6VectorERNS0_11DenseTensorE
FN:238,_ZN13bilininteg_3d8Grad_qf3ERKN4mfem6VectorERS1_
FN:247,_ZN13bilininteg_3d10GradVdotF3ERKN4mfem6VectorERS1_
FN:261,_ZN13bilininteg_3d8Curl_qF3ERKN4mfem6VectorERS1_
FN:272,_ZN13bilininteg_3d7Div_qF3ERKN4mfem6VectorE
FN:279,_ZN13bilininteg_3d7Div_Vf3ERKN4mfem6VectorE
FN:286,_ZN13bilininteg_3d12Div_VcrossF3ERKN4mfem6VectorE
FN:295,_ZN13bilininteg_3d7Div_DF3ERKN4mfem6VectorE
FN:305,_ZN13bilininteg_3d7Div_MF3ERKN4mfem6VectorE
FN:320,_ZN13bilininteg_3d13Curl_VcrossF3ERKN4mfem6VectorERS1_
FN:341,_ZN13bilininteg_3d8Curl_DF3ERKN4mfem6VectorERS1_
FN:353,_ZN13bilininteg_3d8Curl_MF3ERKN4mfem6VectorERS1_
FN:374,_ZN13bilininteg_3d12Div_qGrad_f3ERKN4mfem6VectorE
FN:382,_ZN13bilininteg_3d17Div_VcrossGrad_f3ERKN4mfem6VectorE
FN:394,_ZN13bilininteg_3d12Div_DGrad_f3ERKN4mfem6VectorE
FN:403,_ZN13bilininteg_3d12Div_MGrad_f3ERKN4mfem6VectorE
FN:415,_ZN13bilininteg_3d12Curl_qCurlF3ERKN4mfem6VectorERS1_
FN:425,_ZN13bilininteg_3d18Curl_VcrossGrad_f3ERKN4mfem6VectorERS1_
FN:435,_ZN13bilininteg_3d17Curl_VcrossCurlF3ERKN4mfem6VectorERS1_
FN:445,_ZN13bilininteg_3d12Curl_DCurlF3ERKN4mfem6VectorERS1_
FN:456,_ZN13bilininteg_3d12Curl_MCurlF3ERKN4mfem6VectorERS1_
FN:476,_ZN13bilininteg_3d11Grad_qDivF3ERKN4mfem6VectorERS1_
FN:482,_ZN13bilininteg_3d15GradVdotGrad_f3ERKN4mfem6VectorERS1_
FN:490,_ZN13bilininteg_3d9DivVDivF3ERKN4mfem6VectorE
FN:495,_ZN13bilininteg_3d15DivVcrossCurlF3ERKN4mfem6VectorE
FN:503,_ZN13bilininteg_3d11MapTypeNameB5cxx11EN4mfem13FiniteElement7MapTypeE
FN:520,_ZN13bilininteg_3dL19C_A_T_C_H_T_E_S_T_0Ev
FN:790,_ZN13bilininteg_3dL20C_A_T_C_H_T_E_S_T_16Ev
FN:1875,_ZN13bilininteg_3dL20C_A_T_C_H_T_E_S_T_56Ev
FN:2046,_ZN13bilininteg_3dL20C_A_T_C_H_T_E_S_T_69Ev
FN:2269,_ZN13bilininteg_3dL20C_A_T_C_H_T_E_S_T_86Ev
FN:2356,_ZN13bilininteg_3dL20C_A_T_C_H_T_E_S_T_93Ev
FN:2440,_ZN13bilininteg_3dL21C_A_T_C_H_T_E_S_T_100Ev
FN:2559,_ZN13bilininteg_3dL21C_A_T_C_H_T_E_S_T_109Ev
FN:2643,_ZN13bilininteg_3dL21C_A_T_C_H_T_E_S_T_116Ev
FN:2869,_ZN13bilininteg_3dL21C_A_T_C_H_T_E_S_T_128Ev
FN:3086,_ZN13bilininteg_3dL21C_A_T_C_H_T_E_S_T_140Ev
FN:3251,_ZN13bilininteg_3dL21C_A_T_C_H_T_E_S_T_152Ev
FN:3342,_ZN13bilininteg_3dL21C_A_T_C_H_T_E_S_T_159Ev
FN:3553,_ZN13bilininteg_3dL21C_A_T_C_H_T_E_S_T_169Ev
FN:3697,_ZN13bilininteg_3dL21C_A_T_C_H_T_E_S_T_177Ev
FN:4033,_ZN13bilininteg_3dL21C_A_T_C_H_T_E_S_T_191Ev
FN:4366,_ZN13bilininteg_3dL21C_A_T_C_H_T_E_S_T_205Ev
FN:4500,_ZN13bilininteg_3dL21C_A_T_C_H_T_E_S_T_213Ev
FN:4633,_ZN13bilininteg_3dL21C_A_T_C_H_T_E_S_T_221Ev
FN:4766,_ZN13bilininteg_3dL21C_A_T_C_H_T_E_S_T_229Ev
FN:4893,_ZN13bilininteg_3dL21C_A_T_C_H_T_E_S_T_237Ev
FN:5026,_ZN13bilininteg_3dL21C_A_T_C_H_T_E_S_T_244Ev
FN:5194,_ZN13bilininteg_3dL21C_A_T_C_H_T_E_S_T_252Ev
FN:5267,_ZN13bilininteg_3dL21C_A_T_C_H_T_E_S_T_257Ev
FN:5349,_ZN13bilininteg_3dL21C_A_T_C_H_T_E_S_T_262Ev
FN:5487,_ZN13bilininteg_3dL21C_A_T_C_H_T_E_S_T_271Ev
FN:5653,_ZN13bilininteg_3dL21C_A_T_C_H_T_E_S_T_279Ev
FN:5726,_ZN13bilininteg_3dL21C_A_T_C_H_T_E_S_T_284Ev
FN:5807,_ZN13bilininteg_3dL21C_A_T_C_H_T_E_S_T_289Ev
FNDA:0,_ZN13bilininteg_3d10GradVdotF3ERKN4mfem6VectorERS1_
FNDA:0,_ZN13bilininteg_3d11Grad_qDivF3ERKN4mfem6VectorERS1_
FNDA:0,_ZN13bilininteg_3d11MapTypeNameB5cxx11EN4mfem13FiniteElement7MapTypeE
FNDA:0,_ZN13bilininteg_3d11VdotGrad_f3ERKN4mfem6VectorE
FNDA:0,_ZN13bilininteg_3d12Curl_DCurlF3ERKN4mfem6VectorERS1_
FNDA:0,_ZN13bilininteg_3d12Curl_MCurlF3ERKN4mfem6VectorERS1_
FNDA:0,_ZN13bilininteg_3d12Curl_qCurlF3ERKN4mfem6VectorERS1_
FNDA:0,_ZN13bilininteg_3d12Div_DGrad_f3ERKN4mfem6VectorE
FNDA:0,_ZN13bilininteg_3d12Div_MGrad_f3ERKN4mfem6VectorE
FNDA:0,_ZN13bilininteg_3d12Div_VcrossF3ERKN4mfem6VectorE
FNDA:0,_ZN13bilininteg_3d12Div_qGrad_f3ERKN4mfem6VectorE
FNDA:0,_ZN13bilininteg_3d12VcrossCurlF3ERKN4mfem6VectorERS1_
FNDA:0,_ZN13bilininteg_3d13Curl_VcrossF3ERKN4mfem6VectorERS1_
FNDA:0,_ZN13bilininteg_3d13VcrossGrad_f3ERKN4mfem6VectorERS1_
FNDA:0,_ZN13bilininteg_3d15DivVcrossCurlF3ERKN4mfem6VectorE
FNDA:0,_ZN13bilininteg_3d15GradVdotGrad_f3ERKN4mfem6VectorERS1_
FNDA:0,_ZN13bilininteg_3d17Curl_VcrossCurlF3ERKN4mfem6VectorERS1_
FNDA:0,_ZN13bilininteg_3d17Div_VcrossGrad_f3ERKN4mfem6VectorE
FNDA:0,_ZN13bilininteg_3d18Curl_VcrossGrad_f3ERKN4mfem6VectorERS1_
FNDA:0,_ZN13bilininteg_3d2F3ERKN4mfem6VectorERS1_
FNDA:0,_ZN13bilininteg_3d2M3ERKN4mfem6VectorERNS0_11DenseMatrixE
FNDA:0,_ZN13bilininteg_3d2V3ERKN4mfem6VectorERS1_
FNDA:0,_ZN13bilininteg_3d2f3ERKN4mfem6VectorE
FNDA:0,_ZN13bilininteg_3d2q3ERKN4mfem6VectorE
FNDA:0,_ZN13bilininteg_3d3DF3ERKN4mfem6VectorERS1_
FNDA:0,_ZN13bilininteg_3d3MF3ERKN4mfem6VectorERS1_
FNDA:0,_ZN13bilininteg_3d3MT3ERKN4mfem6VectorERNS0_11DenseMatrixE
FNDA:0,_ZN13bilininteg_3d3Vf3ERKN4mfem6VectorERS1_
FNDA:0,_ZN13bilininteg_3d3qF3ERKN4mfem6VectorERS1_
FNDA:0,_ZN13bilininteg_3d3qf3ERKN4mfem6VectorE
FNDA:0,_ZN13bilininteg_3d5DivF3ERKN4mfem6VectorE
FNDA:0,_ZN13bilininteg_3d5DivV3ERKN4mfem6VectorE
FNDA:0,_ZN13bilininteg_3d5Zero3ERKN4mfem6VectorERS1_
FNDA:0,_ZN13bilininteg_3d5zero3ERKN4mfem6VectorE
FNDA:0,_ZN13bilininteg_3d6CurlF3ERKN4mfem6VectorERS1_
FNDA:0,_ZN13bilininteg_3d6CurlV3ERKN4mfem6VectorERS1_
FNDA:0,_ZN13bilininteg_3d6VDivF3ERKN4mfem6VectorERS1_
FNDA:0,_ZN13bilininteg_3d6VdotF3ERKN4mfem6VectorE
FNDA:0,_ZN13bilininteg_3d6qDivF3ERKN4mfem6VectorE
FNDA:0,_ZN13bilininteg_3d7DCurlF3ERKN4mfem6VectorERS1_
FNDA:0,_ZN13bilininteg_3d7Div_DF3ERKN4mfem6VectorE
FNDA:0,_ZN13bilininteg_3d7Div_MF3ERKN4mfem6VectorE
FNDA:0,_ZN13bilininteg_3d7Div_Vf3ERKN4mfem6VectorE
FNDA:0,_ZN13bilininteg_3d7Div_qF3ERKN4mfem6VectorE
FNDA:0,_ZN13bilininteg_3d7Grad_F3ERKN4mfem6VectorERNS0_11DenseMatrixE
FNDA:0,_ZN13bilininteg_3d7Grad_M3ERKN4mfem6VectorERNS0_11DenseTensorE
FNDA:0,_ZN13bilininteg_3d7Grad_V3ERKN4mfem6VectorERNS0_11DenseMatrixE
FNDA:0,_ZN13bilininteg_3d7Grad_f3ERKN4mfem6VectorERS1_
FNDA:0,_ZN13bilininteg_3d7Grad_q3ERKN4mfem6VectorERS1_
FNDA:0,_ZN13bilininteg_3d7MCurlF3ERKN4mfem6VectorERS1_
FNDA:0,_ZN13bilininteg_3d7qCurlF3ERKN4mfem6VectorERS1_
FNDA:0,_ZN13bilininteg_3d8Curl_DF3ERKN4mfem6VectorERS1_
FNDA:0,_ZN13bilininteg_3d8Curl_MF3ERKN4mfem6VectorERS1_
FNDA:0,_ZN13bilininteg_3d8Curl_qF3ERKN4mfem6VectorERS1_
FNDA:0,_ZN13bilininteg_3d8DGrad_f3ERKN4mfem6VectorERS1_
FNDA:0,_ZN13bilininteg_3d8Grad_qf3ERKN4mfem6VectorERS1_
FNDA:0,_ZN13bilininteg_3d8MGrad_f3ERKN4mfem6VectorERS1_
FNDA:0,_ZN13bilininteg_3d8VcrossF3ERKN4mfem6VectorERS1_
FNDA:0,_ZN13bilininteg_3d8qGrad_f3ERKN4mfem6VectorERS1_
FNDA:0,_ZN13bilininteg_3d9DivVDivF3ERKN4mfem6VectorE
FNDA:0,_ZN13bilininteg_3dL19C_A_T_C_H_T_E_S_T_0Ev
FNDA:0,_ZN13bilininteg_3dL20C_A_T_C_H_T_E_S_T_16Ev
FNDA:0,_ZN13bilininteg_3dL20C_A_T_C_H_T_E_S_T_56Ev
FNDA:0,_ZN13bilininteg_3dL20C_A_T_C_H_T_E_S_T_69Ev
FNDA:0,_ZN13bilininteg_3dL20C_A_T_C_H_T_E_S_T_86Ev
FNDA:0,_ZN13bilininteg_3dL20C_A_T_C_H_T_E_S_T_93Ev
FNDA:0,_ZN13bilininteg_3dL21C_A_T_C_H_T_E_S_T_100Ev
FNDA:0,_ZN13bilininteg_3dL21C_A_T_C_H_T_E_S_T_109Ev
FNDA:0,_ZN13bilininteg_3dL21C_A_T_C_H_T_E_S_T_116Ev
FNDA:0,_ZN13bilininteg_3dL21C_A_T_C_H_T_E_S_T_128Ev
FNDA:0,_ZN13bilininteg_3dL21C_A_T_C_H_T_E_S_T_140Ev
FNDA:0,_ZN13bilininteg_3dL21C_A_T_C_H_T_E_S_T_152Ev
FNDA:0,_ZN13bilininteg_3dL21C_A_T_C_H_T_E_S_T_159Ev
FNDA:0,_ZN13bilininteg_3dL21C_A_T_C_H_T_E_S_T_169Ev
FNDA:0,_ZN13bilininteg_3dL21C_A_T_C_H_T_E_S_T_177Ev
FNDA:0,_ZN13bilininteg_3dL21C_A_T_C_H_T_E_S_T_191Ev
FNDA:0,_ZN13bilininteg_3dL21C_A_T_C_H_T_E_S_T_205Ev
FNDA:0,_ZN13bilininteg_3dL21C_A_T_C_H_T_E_S_T_213Ev
FNDA:0,_ZN13bilininteg_3dL21C_A_T_C_H_T_E_S_T_221Ev
FNDA:0,_ZN13bilininteg_3dL21C_A_T_C_H_T_E_S_T_229Ev
FNDA:0,_ZN13bilininteg_3dL21C_A_T_C_H_T_E_S_T_237Ev
FNDA:0,_ZN13bilininteg_3dL21C_A_T_C_H_T_E_S_T_244Ev
FNDA:0,_ZN13bilininteg_3dL21C_A_T_C_H_T_E_S_T_252Ev
FNDA:0,_ZN13bilininteg_3dL21C_A_T_C_H_T_E_S_T_257Ev
FNDA:0,_ZN13bilininteg_3dL21C_A_T_C_H_T_E_S_T_262Ev
FNDA:0,_ZN13bilininteg_3dL21C_A_T_C_H_T_E_S_T_271Ev
FNDA:0,_ZN13bilininteg_3dL21C_A_T_C_H_T_E_S_T_279Ev
FNDA:0,_ZN13bilininteg_3dL21C_A_T_C_H_T_E_S_T_284Ev
FNDA:0,_ZN13bilininteg_3dL21C_A_T_C_H_T_E_S_T_289Ev
FNF:89
FNH:0
DA:20,0
DA:21,0
DA:23,0
DA:24,0
DA:25,0
DA:27,0
DA:28,0
DA:29,0
DA:30,0
DA:31,0
DA:33,0
DA:34,0
DA:36,0
DA:38,0
DA:39,0
DA:40,0
DA:41,0
DA:42,0
DA:43,0
DA:45,0
DA:47,0
DA:48,0
DA:49,0
DA:51,0
DA:52,0
DA:53,0
DA:55,0
DA:56,0
DA:57,0
DA:58,0
DA:59,0
DA:61,0
DA:62,0
DA:64,0
DA:65,0
DA:66,0
DA:68,0
DA:69,0
DA:70,0
DA:71,0
DA:72,0
DA:74,0
DA:75,0
DA:76,0
DA:77,0
DA:79,0
DA:81,0
DA:82,0
DA:83,0
DA:84,0
DA:85,0
DA:86,0
DA:88,0
DA:89,0
DA:90,0
DA:91,0
DA:92,0
DA:93,0
DA:94,0
DA:96,0
DA:98,0
DA:99,0
DA:100,0
DA:101,0
DA:102,0
DA:104,0
DA:106,0
DA:107,0
DA:108,0
DA:110,0
DA:111,0
DA:112,0
DA:113,0
DA:115,0
DA:116,0
DA:117,0
DA:118,0
DA:120,0
DA:122,0
DA:123,0
DA:124,0
DA:126,0
DA:127,0
DA:128,0
DA:129,0
DA:131,0
DA:132,0
DA:133,0
DA:134,0
DA:136,0
DA:138,0
DA:141,0
DA:143,0
DA:144,0
DA:146,0
DA:148,0
DA:149,0
DA:150,0
DA:151,0
DA:152,0
DA:153,0
DA:154,0
DA:156,0
DA:158,0
DA:159,0
DA:160,0
DA:163,0
DA:165,0
DA:166,0
DA:167,0
DA:170,0
DA:172,0
DA:173,0
DA:174,0
DA:175,0
DA:176,0
DA:177,0
DA:178,0
DA:180,0
DA:182,0
DA:183,0
DA:184,0
DA:185,0
DA:186,0
DA:187,0
DA:188,0
DA:190,0
DA:192,0
DA:193,0
DA:195,0
DA:197,0
DA:198,0
DA:199,0
DA:200,0
DA:201,0
DA:203,0
DA:205,0
DA:206,0
DA:207,0
DA:208,0
DA:209,0
DA:211,0
DA:212,0
DA:214,0
DA:216,0
DA:217,0
DA:218,0
DA:219,0
DA:220,0
DA:222,0
DA:224,0
DA:225,0
DA:226,0
DA:227,0
DA:229,0
DA:230,0
DA:231,0
DA:233,0
DA:234,0
DA:235,0
DA:236,0
DA:238,0
DA:240,0
DA:241,0
DA:242,0
DA:243,0
DA:244,0
DA:247,0
DA:249,0
DA:250,0
DA:251,0
DA:252,0
DA:253,0
DA:254,0
DA:256,0
DA:257,0
DA:258,0
DA:259,0
DA:261,0
DA:263,0
DA:264,0
DA:265,0
DA:266,0
DA:267,0
DA:268,0
DA:269,0
DA:270,0
DA:272,0
DA:274,0
DA:275,0
DA:276,0
DA:279,0
DA:281,0
DA:282,0
DA:283,0
DA:286,0
DA:288,0
DA:289,0
DA:290,0
DA:291,0
DA:292,0
DA:295,0
DA:297,0
DA:298,0
DA:299,0
DA:300,0
DA:301,0
DA:302,0
DA:305,0
DA:307,0
DA:308,0
DA:309,0
DA:310,0
DA:311,0
DA:312,0
DA:313,0
DA:314,0
DA:315,0
DA:316,0
DA:317,0
DA:320,0
DA:322,0
DA:323,0
DA:324,0
DA:325,0
DA:326,0
DA:327,0
DA:328,0
DA:329,0
DA:330,0
DA:331,0
DA:332,0
DA:333,0
DA:334,0
DA:335,0
DA:336,0
DA:337,0
DA:338,0
DA:339,0
DA:341,0
DA:343,0
DA:344,0
DA:345,0
DA:346,0
DA:347,0
DA:348,0
DA:349,0
DA:350,0
DA:351,0
DA:353,0
DA:355,0
DA:356,0
DA:357,0
DA:358,0
DA:359,0
DA:360,0
DA:361,0
DA:362,0
DA:363,0
DA:364,0
DA:365,0
DA:366,0
DA:367,0
DA:368,0
DA:369,0
DA:370,0
DA:371,0
DA:372,0
DA:374,0
DA:376,0
DA:377,0
DA:378,0
DA:379,0
DA:382,0
DA:384,0
DA:385,0
DA:386,0
DA:387,0
DA:388,0
DA:389,0
DA:390,0
DA:391,0
DA:394,0
DA:396,0
DA:397,0
DA:398,0
DA:399,0
DA:400,0
DA:403,0
DA:405,0
DA:406,0
DA:407,0
DA:408,0
DA:409,0
DA:410,0
DA:411,0
DA:412,0
DA:415,0
DA:417,0
DA:418,0
DA:419,0
DA:420,0
DA:421,0
DA:422,0
DA:423,0
DA:425,0
DA:427,0
DA:428,0
DA:429,0
DA:430,0
DA:431,0
DA:432,0
DA:433,0
DA:435,0
DA:437,0
DA:438,0
DA:439,0
DA:440,0
DA:441,0
DA:442,0
DA:443,0
DA:445,0
DA:447,0
DA:448,0
DA:449,0
DA:450,0
DA:451,0
DA:452,0
DA:453,0
DA:454,0
DA:456,0
DA:458,0
DA:459,0
DA:460,0
DA:461,0
DA:462,0
DA:463,0
DA:464,0
DA:465,0
DA:466,0
DA:467,0
DA:468,0
DA:469,0
DA:470,0
DA:471,0
DA:472,0
DA:473,0
DA:474,0
DA:476,0
DA:478,0
DA:479,0
DA:480,0
DA:482,0
DA:484,0
DA:485,0
DA:486,0
DA:487,0
DA:488,0
DA:490,0
DA:492,0
DA:495,0
DA:497,0
DA:498,0
DA:500,0
DA:503,0
DA:505,0
DA:507,0
DA:508,0
DA:509,0
DA:510,0
DA:511,0
DA:512,0
DA:513,0
DA:514,0
DA:515,0
DA:516,0
DA:520,0
DA:526,0
DA:527,0
DA:528,0
DA:530,0
DA:531,0
DA:532,0
DA:534,0
DA:535,0
DA:537,0
DA:538,0
DA:540,0
DA:541,0
DA:542,0
DA:543,0
DA:545,0
DA:547,0
DA:548,0
DA:550,0
DA:552,0
DA:553,0
DA:555,0
DA:556,0
DA:558,0
DA:559,0
DA:560,0
DA:561,0
DA:563,0
DA:565,0
DA:567,0
DA:568,0
DA:569,0
DA:570,0
DA:571,0
DA:572,0
DA:574,0
DA:575,0
DA:577,0
DA:579,0
DA:580,0
DA:581,0
DA:582,0
DA:584,0
DA:585,0
DA:587,0
DA:589,0
DA:590,0
DA:592,0
DA:593,0
DA:594,0
DA:595,0
DA:596,0
DA:597,0
DA:599,0
DA:600,0
DA:602,0
DA:604,0
DA:605,0
DA:606,0
DA:607,0
DA:609,0
DA:610,0
DA:612,0
DA:614,0
DA:615,0
DA:619,0
DA:620,0
DA:621,0
DA:622,0
DA:623,0
DA:624,0
DA:626,0
DA:628,0
DA:630,0
DA:631,0
DA:632,0
DA:633,0
DA:634,0
DA:635,0
DA:637,0
DA:638,0
DA:640,0
DA:642,0
DA:643,0
DA:644,0
DA:645,0
DA:646,0
DA:647,0
DA:649,0
DA:650,0
DA:652,0
DA:656,0
DA:657,0
DA:659,0
DA:662,0
DA:663,0
DA:665,0
DA:666,0
DA:668,0
DA:670,0
DA:671,0
DA:673,0
DA:677,0
DA:678,0
DA:680,0
DA:681,0
DA:683,0
DA:684,0
DA:685,0
DA:686,0
DA:688,0
DA:690,0
DA:692,0
DA:693,0
DA:694,0
DA:695,0
DA:696,0
DA:697,0
DA:699,0
DA:700,0
DA:702,0
DA:704,0
DA:705,0
DA:706,0
DA:707,0
DA:708,0
DA:709,0
DA:711,0
DA:712,0
DA:714,0
DA:718,0
DA:721,0
DA:722,0
DA:723,0
DA:725,0
DA:726,0
DA:727,0
DA:728,0
DA:730,0
DA:732,0
DA:734,0
DA:735,0
DA:736,0
DA:737,0
DA:738,0
DA:739,0
DA:741,0
DA:742,0
DA:744,0
DA:746,0
DA:747,0
DA:748,0
DA:749,0
DA:751,0
DA:752,0
DA:754,0
DA:756,0
DA:757,0
DA:759,0
DA:760,0
DA:761,0
DA:762,0
DA:763,0
DA:764,0
DA:766,0
DA:767,0
DA:769,0
DA:771,0
DA:772,0
DA:773,0
DA:774,0
DA:776,0
DA:777,0
DA:779,0
DA:781,0
DA:782,0
DA:788,0
DA:790,0
DA:797,0
DA:798,0
DA:799,0
DA:801,0
DA:802,0
DA:803,0
DA:804,0
DA:805,0
DA:806,0
DA:807,0
DA:808,0
DA:810,0
DA:811,0
DA:813,0
DA:814,0
DA:816,0
DA:817,0
DA:818,0
DA:819,0
DA:821,0
DA:823,0
DA:824,0
DA:825,0
DA:828,0
DA:829,0
DA:831,0
DA:832,0
DA:833,0
DA:834,0
DA:836,0
DA:838,0
DA:840,0
DA:842,0
DA:843,0
DA:844,0
DA:845,0
DA:846,0
DA:847,0
DA:849,0
DA:850,0
DA:852,0
DA:854,0
DA:855,0
DA:856,0
DA:857,0
DA:859,0
DA:860,0
DA:862,0
DA:864,0
DA:865,0
DA:867,0
DA:868,0
DA:869,0
DA:870,0
DA:872,0
DA:874,0
DA:876,0
DA:878,0
DA:879,0
DA:880,0
DA:881,0
DA:882,0
DA:883,0
DA:885,0
DA:886,0
DA:888,0
DA:890,0
DA:891,0
DA:892,0
DA:893,0
DA:895,0
DA:896,0
DA:898,0
DA:900,0
DA:901,0
DA:904,0
DA:906,0
DA:907,0
DA:909,0
DA:910,0
DA:911,0
DA:912,0
DA:914,0
DA:916,0
DA:918,0
DA:920,0
DA:921,0
DA:922,0
DA:923,0
DA:924,0
DA:925,0
DA:926,0
DA:928,0
DA:929,0
DA:931,0
DA:933,0
DA:934,0
DA:935,0
DA:936,0
DA:937,0
DA:939,0
DA:940,0
DA:942,0
DA:944,0
DA:945,0
DA:947,0
DA:948,0
DA:949,0
DA:950,0
DA:951,0
DA:952,0
DA:954,0
DA:955,0
DA:957,0
DA:959,0
DA:960,0
DA:961,0
DA:962,0
DA:964,0
DA:965,0
DA:967,0
DA:969,0
DA:970,0
DA:972,0
DA:973,0
DA:974,0
DA:975,0
DA:976,0
DA:977,0
DA:978,0
DA:980,0
DA:981,0
DA:983,0
DA:985,0
DA:986,0
DA:987,0
DA:988,0
DA:989,0
DA:991,0
DA:992,0
DA:994,0
DA:996,0
DA:997,0
DA:999,0
DA:1000,0
DA:1001,0
DA:1002,0
DA:1003,0
DA:1004,0
DA:1005,0
DA:1007,0
DA:1008,0
DA:1010,0
DA:1012,0
DA:1013,0
DA:1014,0
DA:1015,0
DA:1016,0
DA:1018,0
DA:1019,0
DA:1021,0
DA:1023,0
DA:1024,0
DA:1026,0
DA:1027,0
DA:1028,0
DA:1029,0
DA:1030,0
DA:1031,0
DA:1032,0
DA:1034,0
DA:1035,0
DA:1037,0
DA:1039,0
DA:1040,0
DA:1041,0
DA:1042,0
DA:1043,0
DA:1045,0
DA:1046,0
DA:1048,0
DA:1050,0
DA:1051,0
DA:1053,0
DA:1054,0
DA:1055,0
DA:1056,0
DA:1057,0
DA:1058,0
DA:1060,0
DA:1061,0
DA:1063,0
DA:1065,0
DA:1066,0
DA:1067,0
DA:1068,0
DA:1069,0
DA:1071,0
DA:1072,0
DA:1074,0
DA:1076,0
DA:1077,0
DA:1081,0
DA:1082,0
DA:1083,0
DA:1087,0
DA:1088,0
DA:1089,0
DA:1090,0
DA:1092,0
DA:1094,0
DA:1096,0
DA:1098,0
DA:1099,0
DA:1100,0
DA:1101,0
DA:1102,0
DA:1103,0
DA:1105,0
DA:1106,0
DA:1108,0
DA:1110,0
DA:1111,0
DA:1112,0
DA:1113,0
DA:1115,0
DA:1116,0
DA:1118,0
DA:1120,0
DA:1121,0
DA:1123,0
DA:1124,0
DA:1125,0
DA:1126,0
DA:1128,0
DA:1130,0
DA:1132,0
DA:1134,0
DA:1135,0
DA:1136,0
DA:1137,0
DA:1138,0
DA:1139,0
DA:1141,0
DA:1142,0
DA:1144,0
DA:1146,0
DA:1147,0
DA:1148,0
DA:1149,0
DA:1151,0
DA:1152,0
DA:1154,0
DA:1156,0
DA:1157,0
DA:1160,0
DA:1162,0
DA:1163,0
DA:1165,0
DA:1166,0
DA:1167,0
DA:1168,0
DA:1170,0
DA:1172,0
DA:1174,0
DA:1176,0
DA:1177,0
DA:1178,0
DA:1179,0
DA:1180,0
DA:1181,0
DA:1182,0
DA:1184,0
DA:1185,0
DA:1188,0
DA:1190,0
DA:1191,0
DA:1192,0
DA:1193,0
DA:1194,0
DA:1196,0
DA:1197,0
DA:1199,0
DA:1201,0
DA:1202,0
DA:1204,0
DA:1205,0
DA:1206,0
DA:1207,0
DA:1208,0
DA:1209,0
DA:1211,0
DA:1212,0
DA:1215,0
DA:1217,0
DA:1218,0
DA:1219,0
DA:1220,0
DA:1222,0
DA:1223,0
DA:1225,0
DA:1227,0
DA:1228,0
DA:1230,0
DA:1231,0
DA:1232,0
DA:1233,0
DA:1234,0
DA:1235,0
DA:1236,0
DA:1238,0
DA:1239,0
DA:1242,0
DA:1244,0
DA:1245,0
DA:1246,0
DA:1247,0
DA:1248,0
DA:1250,0
DA:1251,0
DA:1253,0
DA:1255,0
DA:1256,0
DA:1258,0
DA:1259,0
DA:1260,0
DA:1261,0
DA:1262,0
DA:1263,0
DA:1264,0
DA:1266,0
DA:1267,0
DA:1270,0
DA:1272,0
DA:1273,0
DA:1274,0
DA:1275,0
DA:1276,0
DA:1278,0
DA:1279,0
DA:1281,0
DA:1283,0
DA:1284,0
DA:1286,0
DA:1287,0
DA:1288,0
DA:1289,0
DA:1290,0
DA:1291,0
DA:1292,0
DA:1294,0
DA:1295,0
DA:1298,0
DA:1300,0
DA:1301,0
DA:1302,0
DA:1303,0
DA:1304,0
DA:1306,0
DA:1307,0
DA:1309,0
DA:1311,0
DA:1312,0
DA:1314,0
DA:1315,0
DA:1316,0
DA:1317,0
DA:1318,0
DA:1319,0
DA:1321,0
DA:1322,0
DA:1325,0
DA:1327,0
DA:1328,0
DA:1329,0
DA:1330,0
DA:1331,0
DA:1333,0
DA:1334,0
DA:1336,0
DA:1338,0
DA:1339,0
DA:1344,0
DA:1345,0
DA:1346,0
DA:1347,0
DA:1349,0
DA:1351,0
DA:1352,0
DA:1353,0
DA:1356,0
DA:1357,0
DA:1359,0
DA:1360,0
DA:1361,0
DA:1362,0
DA:1364,0
DA:1366,0
DA:1368,0
DA:1370,0
DA:1371,0
DA:1372,0
DA:1373,0
DA:1374,0
DA:1375,0
DA:1377,0
DA:1378,0
DA:1380,0
DA:1382,0
DA:1383,0
DA:1384,0
DA:1385,0
DA:1387,0
DA:1388,0
DA:1390,0
DA:1392,0
DA:1393,0
DA:1395,0
DA:1396,0
DA:1397,0
DA:1398,0
DA:1400,0
DA:1402,0
DA:1404,0
DA:1406,0
DA:1407,0
DA:1408,0
DA:1409,0
DA:1410,0
DA:1411,0
DA:1413,0
DA:1414,0
DA:1416,0
DA:1418,0
DA:1419,0
DA:1420,0
DA:1421,0
DA:1423,0
DA:1424,0
DA:1426,0
DA:1428,0
DA:1429,0
DA:1432,0
DA:1434,0
DA:1435,0
DA:1437,0
DA:1438,0
DA:1439,0
DA:1440,0
DA:1442,0
DA:1444,0
DA:1446,0
DA:1448,0
DA:1449,0
DA:1450,0
DA:1451,0
DA:1452,0
DA:1453,0
DA:1454,0
DA:1456,0
DA:1457,0
DA:1459,0
DA:1461,0
DA:1462,0
DA:1463,0
DA:1464,0
DA:1465,0
DA:1467,0
DA:1468,0
DA:1470,0
DA:1472,0
DA:1473,0
DA:1475,0
DA:1476,0
DA:1477,0
DA:1478,0
DA:1479,0
DA:1480,0
DA:1482,0
DA:1483,0
DA:1485,0
DA:1487,0
DA:1488,0
DA:1489,0
DA:1490,0
DA:1492,0
DA:1493,0
DA:1495,0
DA:1497,0
DA:1498,0
DA:1500,0
DA:1501,0
DA:1502,0
DA:1503,0
DA:1504,0
DA:1505,0
DA:1506,0
DA:1508,0
DA:1509,0
DA:1511,0
DA:1513,0
DA:1514,0
DA:1515,0
DA:1516,0
DA:1517,0
DA:1519,0
DA:1520,0
DA:1522,0
DA:1524,0
DA:1525,0
DA:1527,0
DA:1528,0
DA:1529,0
DA:1530,0
DA:1531,0
DA:1532,0
DA:1533,0
DA:1535,0
DA:1536,0
DA:1538,0
DA:1540,0
DA:1541,0
DA:1542,0
DA:1543,0
DA:1544,0
DA:1546,0
DA:1547,0
DA:1549,0
DA:1551,0
DA:1552,0
DA:1554,0
DA:1555,0
DA:1556,0
DA:1557,0
DA:1558,0
DA:1559,0
DA:1560,0
DA:1562,0
DA:1563,0
DA:1565,0
DA:1567,0
DA:1568,0
DA:1569,0
DA:1570,0
DA:1571,0
DA:1573,0
DA:1574,0
DA:1576,0
DA:1578,0
DA:1579,0
DA:1581,0
DA:1582,0
DA:1583,0
DA:1584,0
DA:1585,0
DA:1586,0
DA:1588,0
DA:1589,0
DA:1591,0
DA:1593,0
DA:1594,0
DA:1595,0
DA:1596,0
DA:1597,0
DA:1599,0
DA:1600,0
DA:1602,0
DA:1604,0
DA:1605,0
DA:1609,0
DA:1610,0
DA:1611,0
DA:1615,0
DA:1616,0
DA:1617,0
DA:1618,0
DA:1620,0
DA:1622,0
DA:1624,0
DA:1626,0
DA:1627,0
DA:1628,0
DA:1629,0
DA:1630,0
DA:1631,0
DA:1633,0
DA:1634,0
DA:1636,0
DA:1638,0
DA:1639,0
DA:1640,0
DA:1641,0
DA:1643,0
DA:1644,0
DA:1646,0
DA:1648,0
DA:1649,0
DA:1651,0
DA:1652,0
DA:1653,0
DA:1654,0
DA:1656,0
DA:1658,0
DA:1660,0
DA:1662,0
DA:1663,0
DA:1664,0
DA:1665,0
DA:1666,0
DA:1667,0
DA:1669,0
DA:1670,0
DA:1672,0
DA:1674,0
DA:1675,0
DA:1676,0
DA:1677,0
DA:1679,0
DA:1680,0
DA:1682,0
DA:1684,0
DA:1685,0
DA:1688,0
DA:1690,0
DA:1691,0
DA:1693,0
DA:1694,0
DA:1695,0
DA:1696,0
DA:1698,0
DA:1700,0
DA:1702,0
DA:1704,0
DA:1705,0
DA:1706,0
DA:1707,0
DA:1708,0
DA:1709,0
DA:1710,0
DA:1712,0
DA:1713,0
DA:1716,0
DA:1718,0
DA:1719,0
DA:1720,0
DA:1721,0
DA:1722,0
DA:1724,0
DA:1725,0
DA:1727,0
DA:1729,0
DA:1730,0
DA:1732,0
DA:1733,0
DA:1734,0
DA:1735,0
DA:1736,0
DA:1737,0
DA:1739,0
DA:1740,0
DA:1743,0
DA:1745,0
DA:1746,0
DA:1747,0
DA:1748,0
DA:1750,0
DA:1751,0
DA:1753,0
DA:1755,0
DA:1756,0
DA:1758,0
DA:1759,0
DA:1760,0
DA:1761,0
DA:1762,0
DA:1763,0
DA:1764,0
DA:1766,0
DA:1767,0
DA:1770,0
DA:1772,0
DA:1773,0
DA:1774,0
DA:1775,0
DA:1776,0
DA:1778,0
DA:1779,0
DA:1781,0
DA:1783,0
DA:1784,0
DA:1786,0
DA:1787,0
DA:1788,0
DA:1789,0
DA:1790,0
DA:1791,0
DA:1792,0
DA:1794,0
DA:1795,0
DA:1798,0
DA:1800,0
DA:1801,0
DA:1802,0
DA:1803,0
DA:1804,0
DA:1806,0
DA:1807,0
DA:1809,0
DA:1811,0
DA:1812,0
DA:1814,0
DA:1815,0
DA:1816,0
DA:1817,0
DA:1818,0
DA:1819,0
DA:1820,0
DA:1822,0
DA:1823,0
DA:1826,0
DA:1828,0
DA:1829,0
DA:1830,0
DA:1831,0
DA:1832,0
DA:1834,0
DA:1835,0
DA:1837,0
DA:1839,0
DA:1840,0
DA:1842,0
DA:1843,0
DA:1844,0
DA:1845,0
DA:1846,0
DA:1847,0
DA:1849,0
DA:1850,0
DA:1853,0
DA:1855,0
DA:1856,0
DA:1857,0
DA:1858,0
DA:1859,0
DA:1861,0
DA:1862,0
DA:1864,0
DA:1866,0
DA:1867,0
DA:1873,0
DA:1875,0
DA:1881,0
DA:1882,0
DA:1883,0
DA:1885,0
DA:1886,0
DA:1887,0
DA:1888,0
DA:1889,0
DA:1890,0
DA:1891,0
DA:1892,0
DA:1894,0
DA:1895,0
DA:1897,0
DA:1898,0
DA:1900,0
DA:1901,0
DA:1902,0
DA:1903,0
DA:1905,0
DA:1907,0
DA:1908,0
DA:1909,0
DA:1910,0
DA:1912,0
DA:1913,0
DA:1914,0
DA:1915,0
DA:1917,0
DA:1919,0
DA:1921,0
DA:1922,0
DA:1923,0
DA:1924,0
DA:1925,0
DA:1926,0
DA:1928,0
DA:1929,0
DA:1931,0
DA:1933,0
DA:1934,0
DA:1935,0
DA:1936,0
DA:1937,0
DA:1938,0
DA:1939,0
DA:1941,0
DA:1942,0
DA:1944,0
DA:1946,0
DA:1947,0
DA:1948,0
DA:1949,0
DA:1950,0
DA:1951,0
DA:1952,0
DA:1954,0
DA:1955,0
DA:1957,0
DA:1959,0
DA:1960,0
DA:1961,0
DA:1962,0
DA:1963,0
DA:1964,0
DA:1965,0
DA:1967,0
DA:1968,0
DA:1970,0
DA:1973,0
DA:1974,0
DA:1978,0
DA:1979,0
DA:1981,0
DA:1982,0
DA:1983,0
DA:1984,0
DA:1986,0
DA:1988,0
DA:1990,0
DA:1991,0
DA:1992,0
DA:1993,0
DA:1994,0
DA:1995,0
DA:1997,0
DA:1998,0
DA:2000,0
DA:2002,0
DA:2003,0
DA:2004,0
DA:2005,0
DA:2006,0
DA:2007,0
DA:2008,0
DA:2010,0
DA:2011,0
DA:2013,0
DA:2015,0
DA:2016,0
DA:2017,0
DA:2018,0
DA:2019,0
DA:2020,0
DA:2021,0
DA:2023,0
DA:2024,0
DA:2026,0
DA:2028,0
DA:2029,0
DA:2030,0
DA:2031,0
DA:2032,0
DA:2033,0
DA:2034,0
DA:2036,0
DA:2037,0
DA:2039,0
DA:2044,0
DA:2046,0
DA:2053,0
DA:2054,0
DA:2055,0
DA:2057,0
DA:2058,0
DA:2060,0
DA:2061,0
DA:2063,0
DA:2064,0
DA:2065,0
DA:2066,0
DA:2067,0
DA:2068,0
DA:2069,0
DA:2070,0
DA:2072,0
DA:2073,0
DA:2074,0
DA:2075,0
DA:2077,0
DA:2079,0
DA:2080,0
DA:2081,0
DA:2082,0
DA:2084,0
DA:2085,0
DA:2086,0
DA:2087,0
DA:2089,0
DA:2091,0
DA:2093,0
DA:2094,0
DA:2095,0
DA:2096,0
DA:2097,0
DA:2098,0
DA:2099,0
DA:2101,0
DA:2102,0
DA:2104,0
DA:2107,0
DA:2108,0
DA:2109,0
DA:2110,0
DA:2112,0
DA:2113,0
DA:2114,0
DA:2115,0
DA:2117,0
DA:2119,0
DA:2121,0
DA:2122,0
DA:2123,0
DA:2124,0
DA:2125,0
DA:2126,0
DA:2127,0
DA:2129,0
DA:2130,0
DA:2132,0
DA:2136,0
DA:2137,0
DA:2138,0
DA:2139,0
DA:2141,0
DA:2142,0
DA:2143,0
DA:2144,0
DA:2146,0
DA:2148,0
DA:2150,0
DA:2151,0
DA:2152,0
DA:2153,0
DA:2154,0
DA:2155,0
DA:2157,0
DA:2158,0
DA:2160,0
DA:2162,0
DA:2163,0
DA:2164,0
DA:2165,0
DA:2166,0
DA:2167,0
DA:2168,0
DA:2170,0
DA:2171,0
DA:2173,0
DA:2175,0
DA:2176,0
DA:2177,0
DA:2178,0
DA:2179,0
DA:2180,0
DA:2181,0
DA:2183,0
DA:2184,0
DA:2186,0
DA:2188,0
DA:2189,0
DA:2190,0
DA:2191,0
DA:2192,0
DA:2193,0
DA:2194,0
DA:2196,0
DA:2197,0
DA:2199,0
DA:2202,0
DA:2203,0
DA:2204,0
DA:2205,0
DA:2206,0
DA:2207,0
DA:2209,0
DA:2211,0
DA:2213,0
DA:2214,0
DA:2215,0
DA:2216,0
DA:2217,0
DA:2218,0
DA:2220,0
DA:2221,0
DA:2223,0
DA:2225,0
DA:2226,0
DA:2227,0
DA:2228,0
DA:2229,0
DA:2230,0
DA:2231,0
DA:2233,0
DA:2234,0
DA:2236,0
DA:2238,0
DA:2239,0
DA:2240,0
DA:2241,0
DA:2242,0
DA:2243,0
DA:2244,0
DA:2246,0
DA:2247,0
DA:2249,0
DA:2251,0
DA:2252,0
DA:2253,0
DA:2254,0
DA:2255,0
DA:2256,0
DA:2257,0
DA:2259,0
DA:2260,0
DA:2262,0
DA:2267,0
DA:2269,0
DA:2275,0
DA:2276,0
DA:2277,0
DA:2279,0
DA:2280,0
DA:2282,0
DA:2283,0
DA:2285,0
DA:2286,0
DA:2287,0
DA:2289,0
DA:2290,0
DA:2291,0
DA:2292,0
DA:2294,0
DA:2296,0
DA:2297,0
DA:2298,0
DA:2299,0
DA:2301,0
DA:2302,0
DA:2303,0
DA:2304,0
DA:2306,0
DA:2308,0
DA:2310,0
DA:2311,0
DA:2312,0
DA:2313,0
DA:2314,0
DA:2315,0
DA:2316,0
DA:2318,0
DA:2319,0
DA:2321,0
DA:2324,0
DA:2325,0
DA:2326,0
DA:2327,0
DA:2329,0
DA:2330,0
DA:2331,0
DA:2332,0
DA:2334,0
DA:2336,0
DA:2338,0
DA:2339,0
DA:2340,0
DA:2341,0
DA:2342,0
DA:2343,0
DA:2344,0
DA:2346,0
DA:2347,0
DA:2349,0
DA:2354,0
DA:2356,0
DA:2362,0
DA:2363,0
DA:2364,0
DA:2366,0
DA:2367,0
DA:2369,0
DA:2370,0
DA:2372,0
DA:2373,0
DA:2374,0
DA:2376,0
DA:2377,0
DA:2378,0
DA:2379,0
DA:2381,0
DA:2383,0
DA:2384,0
DA:2385,0
DA:2386,0
DA:2388,0
DA:2389,0
DA:2390,0
DA:2391,0
DA:2393,0
DA:2395,0
DA:2397,0
DA:2398,0
DA:2399,0
DA:2400,0
DA:2401,0
DA:2402,0
DA:2403,0
DA:2405,0
DA:2406,0
DA:2408,0
DA:2411,0
DA:2412,0
DA:2413,0
DA:2414,0
DA:2415,0
DA:2416,0
DA:2418,0
DA:2420,0
DA:2422,0
DA:2423,0
DA:2424,0
DA:2425,0
DA:2426,0
DA:2427,0
DA:2428,0
DA:2430,0
DA:2431,0
DA:2433,0
DA:2438,0
DA:2440,0
DA:2446,0
DA:2447,0
DA:2448,0
DA:2450,0
DA:2451,0
DA:2453,0
DA:2454,0
DA:2456,0
DA:2457,0
DA:2458,0
DA:2459,0
DA:2461,0
DA:2462,0
DA:2463,0
DA:2464,0
DA:2466,0
DA:2468,0
DA:2469,0
DA:2471,0
DA:2473,0
DA:2474,0
DA:2476,0
DA:2477,0
DA:2479,0
DA:2480,0
DA:2481,0
DA:2482,0
DA:2484,0
DA:2486,0
DA:2488,0
DA:2489,0
DA:2490,0
DA:2491,0
DA:2492,0
DA:2493,0
DA:2495,0
DA:2496,0
DA:2498,0
DA:2500,0
DA:2501,0
DA:2502,0
DA:2503,0
DA:2504,0
DA:2505,0
DA:2506,0
DA:2508,0
DA:2509,0
DA:2511,0
DA:2515,0
DA:2516,0
DA:2517,0
DA:2518,0
DA:2520,0
DA:2521,0
DA:2522,0
DA:2523,0
DA:2525,0
DA:2527,0
DA:2529,0
DA:2530,0
DA:2531,0
DA:2532,0
DA:2533,0
DA:2534,0
DA:2536,0
DA:2537,0
DA:2539,0
DA:2541,0
DA:2542,0
DA:2543,0
DA:2544,0
DA:2545,0
DA:2546,0
DA:2547,0
DA:2549,0
DA:2550,0
DA:2552,0
DA:2557,0
DA:2559,0
DA:2565,0
DA:2566,0
DA:2567,0
DA:2569,0
DA:2570,0
DA:2572,0
DA:2573,0
DA:2575,0
DA:2576,0
DA:2577,0
DA:2579,0
DA:2580,0
DA:2581,0
DA:2582,0
DA:2584,0
DA:2586,0
DA:2587,0
DA:2588,0
DA:2589,0
DA:2590,0
DA:2591,0
DA:2593,0
DA:2595,0
DA:2597,0
DA:2598,0
DA:2599,0
DA:2600,0
DA:2601,0
DA:2602,0
DA:2603,0
DA:2605,0
DA:2606,0
DA:2608,0
DA:2611,0
DA:2612,0
DA:2613,0
DA:2614,0
DA:2616,0
DA:2617,0
DA:2618,0
DA:2619,0
DA:2621,0
DA:2623,0
DA:2625,0
DA:2626,0
DA:2627,0
DA:2628,0
DA:2629,0
DA:2630,0
DA:2631,0
DA:2633,0
DA:2634,0
DA:2636,0
DA:2641,0
DA:2643,0
DA:2649,0
DA:2650,0
DA:2651,0
DA:2653,0
DA:2654,0
DA:2655,0
DA:2657,0
DA:2658,0
DA:2660,0
DA:2661,0
DA:2663,0
DA:2664,0
DA:2665,0
DA:2666,0
DA:2668,0
DA:2670,0
DA:2671,0
DA:2672,0
DA:2673,0
DA:2675,0
DA:2676,0
DA:2677,0
DA:2678,0
DA:2680,0
DA:2682,0
DA:2684,0
DA:2686,0
DA:2687,0
DA:2688,0
DA:2689,0
DA:2690,0
DA:2691,0
DA:2692,0
DA:2694,0
DA:2695,0
DA:2697,0
DA:2699,0
DA:2700,0
DA:2701,0
DA:2702,0
DA:2703,0
DA:2705,0
DA:2706,0
DA:2708,0
DA:2710,0
DA:2711,0
DA:2714,0
DA:2715,0
DA:2716,0
DA:2717,0
DA:2719,0
DA:2720,0
DA:2721,0
DA:2722,0
DA:2724,0
DA:2726,0
DA:2728,0
DA:2730,0
DA:2731,0
DA:2732,0
DA:2733,0
DA:2734,0
DA:2735,0
DA:2736,0
DA:2738,0
DA:2739,0
DA:2741,0
DA:2743,0
DA:2744,0
DA:2745,0
DA:2746,0
DA:2747,0
DA:2749,0
DA:2750,0
DA:2752,0
DA:2754,0
DA:2755,0
DA:2759,0
DA:2760,0
DA:2762,0
DA:2766,0
DA:2767,0
DA:2769,0
DA:2770,0
DA:2772,0
DA:2774,0
DA:2776,0
DA:2777,0
DA:2778,0
DA:2780,0
DA:2781,0
DA:2782,0
DA:2783,0
DA:2785,0
DA:2787,0
DA:2789,0
DA:2791,0
DA:2792,0
DA:2793,0
DA:2794,0
DA:2795,0
DA:2796,0
DA:2797,0
DA:2799,0
DA:2800,0
DA:2802,0
DA:2804,0
DA:2805,0
DA:2806,0
DA:2807,0
DA:2808,0
DA:2810,0
DA:2811,0
DA:2813,0
DA:2815,0
DA:2816,0
DA:2819,0
DA:2821,0
DA:2822,0
DA:2823,0
DA:2825,0
DA:2826,0
DA:2827,0
DA:2828,0
DA:2830,0
DA:2832,0
DA:2834,0
DA:2836,0
DA:2837,0
DA:2838,0
DA:2839,0
DA:2840,0
DA:2841,0
DA:2842,0
DA:2844,0
DA:2845,0
DA:2847,0
DA:2849,0
DA:2850,0
DA:2851,0
DA:2852,0
DA:2853,0
DA:2855,0
DA:2856,0
DA:2858,0
DA:2860,0
DA:2861,0
DA:2867,0
DA:2869,0
DA:2875,0
DA:2876,0
DA:2877,0
DA:2879,0
DA:2880,0
DA:2881,0
DA:2883,0
DA:2884,0
DA:2886,0
DA:2887,0
DA:2889,0
DA:2890,0
DA:2891,0
DA:2892,0
DA:2894,0
DA:2896,0
DA:2897,0
DA:2898,0
DA:2899,0
DA:2901,0
DA:2902,0
DA:2903,0
DA:2904,0
DA:2906,0
DA:2908,0
DA:2910,0
DA:2912,0
DA:2913,0
DA:2914,0
DA:2915,0
DA:2916,0
DA:2917,0
DA:2918,0
DA:2920,0
DA:2921,0
DA:2924,0
DA:2926,0
DA:2927,0
DA:2928,0
DA:2929,0
DA:2930,0
DA:2932,0
DA:2933,0
DA:2935,0
DA:2937,0
DA:2938,0
DA:2941,0
DA:2942,0
DA:2943,0
DA:2944,0
DA:2946,0
DA:2947,0
DA:2948,0
DA:2949,0
DA:2951,0
DA:2953,0
DA:2955,0
DA:2957,0
DA:2958,0
DA:2959,0
DA:2960,0
DA:2961,0
DA:2962,0
DA:2963,0
DA:2965,0
DA:2966,0
DA:2968,0
DA:2970,0
DA:2971,0
DA:2972,0
DA:2973,0
DA:2974,0
DA:2976,0
DA:2977,0
DA:2979,0
DA:2981,0
DA:2982,0
DA:2986,0
DA:2987,0
DA:2988,0
DA:2989,0
DA:2991,0
DA:2993,0
DA:2994,0
DA:2995,0
DA:2996,0
DA:2998,0
DA:2999,0
DA:3000,0
DA:3001,0
DA:3003,0
DA:3005,0
DA:3007,0
DA:3009,0
DA:3010,0
DA:3011,0
DA:3012,0
DA:3013,0
DA:3014,0
DA:3015,0
DA:3017,0
DA:3018,0
DA:3020,0
DA:3022,0
DA:3023,0
DA:3024,0
DA:3025,0
DA:3026,0
DA:3028,0
DA:3029,0
DA:3031,0
DA:3033,0
DA:3034,0
DA:3037,0
DA:3038,0
DA:3039,0
DA:3040,0
DA:3042,0
DA:3043,0
DA:3044,0
DA:3045,0
DA:3047,0
DA:3049,0
DA:3051,0
DA:3053,0
DA:3054,0
DA:3055,0
DA:3056,0
DA:3057,0
DA:3058,0
DA:3059,0
DA:3061,0
DA:3062,0
DA:3065,0
DA:3067,0
DA:3068,0
DA:3069,0
DA:3070,0
DA:3071,0
DA:3073,0
DA:3074,0
DA:3076,0
DA:3078,0
DA:3079,0
DA:3084,0
DA:3086,0
DA:3092,0
DA:3093,0
DA:3094,0
DA:3096,0
DA:3097,0
DA:3098,0
DA:3100,0
DA:3101,0
DA:3103,0
DA:3104,0
DA:3106,0
DA:3107,0
DA:3108,0
DA:3109,0
DA:3111,0
DA:3113,0
DA:3114,0
DA:3115,0
DA:3116,0
DA:3118,0
DA:3119,0
DA:3120,0
DA:3121,0
DA:3123,0
DA:3125,0
DA:3127,0
DA:3128,0
DA:3129,0
DA:3130,0
DA:3131,0
DA:3132,0
DA:3133,0
DA:3135,0
DA:3136,0
DA:3138,0
DA:3141,0
DA:3142,0
DA:3144,0
DA:3146,0
DA:3147,0
DA:3149,0
DA:3150,0
DA:3152,0
DA:3153,0
DA:3154,0
DA:3155,0
DA:3157,0
DA:3159,0
DA:3161,0
DA:3162,0
DA:3163,0
DA:3164,0
DA:3165,0
DA:3166,0
DA:3167,0
DA:3169,0
DA:3170,0
DA:3172,0
DA:3177,0
DA:3178,0
DA:3179,0
DA:3180,0
DA:3182,0
DA:3184,0
DA:3185,0
DA:3186,0
DA:3187,0
DA:3189,0
DA:3190,0
DA:3191,0
DA:3192,0
DA:3194,0
DA:3196,0
DA:3198,0
DA:3199,0
DA:3200,0
DA:3201,0
DA:3202,0
DA:3203,0
DA:3204,0
DA:3206,0
DA:3207,0
DA:3209,0
DA:3212,0
DA:3213,0
DA:3215,0
DA:3217,0
DA:3218,0
DA:3220,0
DA:3221,0
DA:3223,0
DA:3224,0
DA:3225,0
DA:3226,0
DA:3228,0
DA:3230,0
DA:3232,0
DA:3233,0
DA:3234,0
DA:3235,0
DA:3236,0
DA:3237,0
DA:3238,0
DA:3240,0
DA:3241,0
DA:3243,0
DA:3249,0
DA:3251,0
DA:3257,0
DA:3258,0
DA:3259,0
DA:3261,0
DA:3262,0
DA:3263,0
DA:3265,0
DA:3266,0
DA:3268,0
DA:3269,0
DA:3271,0
DA:3272,0
DA:3273,0
DA:3274,0
DA:3276,0
DA:3278,0
DA:3279,0
DA:3280,0
DA:3281,0
DA:3282,0
DA:3283,0
DA:3285,0
DA:3287,0
DA:3289,0
DA:3290,0
DA:3291,0
DA:3292,0
DA:3293,0
DA:3294,0
DA:3295,0
DA:3297,0
DA:3298,0
DA:3300,0
DA:3303,0
DA:3304,0
DA:3306,0
DA:3308,0
DA:3309,0
DA:3311,0
DA:3312,0
DA:3314,0
DA:3315,0
DA:3316,0
DA:3317,0
DA:3319,0
DA:3321,0
DA:3323,0
DA:3324,0
DA:3325,0
DA:3326,0
DA:3327,0
DA:3328,0
DA:3329,0
DA:3331,0
DA:3332,0
DA:3334,0
DA:3340,0
DA:3342,0
DA:3350,0
DA:3351,0
DA:3352,0
DA:3354,0
DA:3355,0
DA:3356,0
DA:3357,0
DA:3358,0
DA:3360,0
DA:3361,0
DA:3363,0
DA:3364,0
DA:3366,0
DA:3367,0
DA:3368,0
DA:3369,0
DA:3371,0
DA:3373,0
DA:3374,0
DA:3375,0
DA:3376,0
DA:3378,0
DA:3379,0
DA:3380,0
DA:3381,0
DA:3383,0
DA:3385,0
DA:3387,0
DA:3388,0
DA:3389,0
DA:3390,0
DA:3391,0
DA:3392,0
DA:3393,0
DA:3395,0
DA:3396,0
DA:3397,0
DA:3398,0
DA:3399,0
DA:3401,0
DA:3402,0
DA:3404,0
DA:3406,0
DA:3407,0
DA:3409,0
DA:3410,0
DA:3411,0
DA:3412,0
DA:3414,0
DA:3415,0
DA:3417,0
DA:3419,0
DA:3420,0
DA:3421,0
DA:3422,0
DA:3423,0
DA:3424,0
DA:3425,0
DA:3427,0
DA:3428,0
DA:3429,0
DA:3430,0
DA:3431,0
DA:3433,0
DA:3434,0
DA:3436,0
DA:3438,0
DA:3439,0
DA:3441,0
DA:3442,0
DA:3443,0
DA:3444,0
DA:3446,0
DA:3447,0
DA:3449,0
DA:3453,0
DA:3454,0
DA:3456,0
DA:3460,0
DA:3461,0
DA:3463,0
DA:3464,0
DA:3466,0
DA:3468,0
DA:3470,0
DA:3471,0
DA:3472,0
DA:3474,0
DA:3475,0
DA:3476,0
DA:3477,0
DA:3479,0
DA:3481,0
DA:3483,0
DA:3484,0
DA:3485,0
DA:3486,0
DA:3487,0
DA:3488,0
DA:3489,0
DA:3491,0
DA:3492,0
DA:3493,0
DA:3494,0
DA:3495,0
DA:3497,0
DA:3498,0
DA:3500,0
DA:3502,0
DA:3503,0
DA:3505,0
DA:3506,0
DA:3507,0
DA:3508,0
DA:3510,0
DA:3511,0
DA:3513,0
DA:3515,0
DA:3516,0
DA:3517,0
DA:3518,0
DA:3519,0
DA:3520,0
DA:3521,0
DA:3523,0
DA:3524,0
DA:3525,0
DA:3526,0
DA:3527,0
DA:3529,0
DA:3530,0
DA:3532,0
DA:3534,0
DA:3535,0
DA:3537,0
DA:3538,0
DA:3539,0
DA:3540,0
DA:3542,0
DA:3543,0
DA:3545,0
DA:3551,0
DA:3553,0
DA:3559,0
DA:3560,0
DA:3561,0
DA:3563,0
DA:3564,0
DA:3565,0
DA:3566,0
DA:3568,0
DA:3569,0
DA:3571,0
DA:3572,0
DA:3574,0
DA:3575,0
DA:3576,0
DA:3577,0
DA:3579,0
DA:3581,0
DA:3582,0
DA:3583,0
DA:3584,0
DA:3586,0
DA:3587,0
DA:3588,0
DA:3589,0
DA:3591,0
DA:3593,0
DA:3595,0
DA:3596,0
DA:3597,0
DA:3598,0
DA:3599,0
DA:3600,0
DA:3601,0
DA:3603,0
DA:3604,0
DA:3605,0
DA:3606,0
DA:3607,0
DA:3609,0
DA:3610,0
DA:3612,0
DA:3614,0
DA:3615,0
DA:3617,0
DA:3618,0
DA:3619,0
DA:3620,0
DA:3622,0
DA:3623,0
DA:3625,0
DA:3629,0
DA:3630,0
DA:3632,0
DA:3636,0
DA:3637,0
DA:3639,0
DA:3640,0
DA:3642,0
DA:3644,0
DA:3646,0
DA:3647,0
DA:3648,0
DA:3650,0
DA:3651,0
DA:3652,0
DA:3653,0
DA:3655,0
DA:3657,0
DA:3659,0
DA:3660,0
DA:3661,0
DA:3662,0
DA:3663,0
DA:3664,0
DA:3665,0
DA:3667,0
DA:3668,0
DA:3669,0
DA:3670,0
DA:3671,0
DA:3673,0
DA:3674,0
DA:3676,0
DA:3678,0
DA:3679,0
DA:3681,0
DA:3682,0
DA:3683,0
DA:3684,0
DA:3686,0
DA:3687,0
DA:3689,0
DA:3695,0
DA:3697,0
DA:3705,0
DA:3706,0
DA:3707,0
DA:3709,0
DA:3710,0
DA:3711,0
DA:3712,0
DA:3713,0
DA:3714,0
DA:3715,0
DA:3716,0
DA:3717,0
DA:3718,0
DA:3719,0
DA:3720,0
DA:3722,0
DA:3723,0
DA:3725,0
DA:3726,0
DA:3728,0
DA:3729,0
DA:3730,0
DA:3731,0
DA:3733,0
DA:3735,0
DA:3736,0
DA:3737,0
DA:3738,0
DA:3740,0
DA:3741,0
DA:3742,0
DA:3743,0
DA:3745,0
DA:3747,0
DA:3749,0
DA:3750,0
DA:3751,0
DA:3752,0
DA:3753,0
DA:3754,0
DA:3755,0
DA:3757,0
DA:3758,0
DA:3759,0
DA:3760,0
DA:3761,0
DA:3763,0
DA:3764,0
DA:3766,0
DA:3768,0
DA:3769,0
DA:3771,0
DA:3772,0
DA:3773,0
DA:3774,0
DA:3776,0
DA:3777,0
DA:3779,0
DA:3781,0
DA:3782,0
DA:3783,0
DA:3784,0
DA:3785,0
DA:3786,0
DA:3787,0
DA:3789,0
DA:3790,0
DA:3791,0
DA:3792,0
DA:3793,0
DA:3795,0
DA:3796,0
DA:3798,0
DA:3800,0
DA:3801,0
DA:3803,0
DA:3804,0
DA:3805,0
DA:3806,0
DA:3808,0
DA:3809,0
DA:3811,0
DA:3813,0
DA:3814,0
DA:3815,0
DA:3816,0
DA:3817,0
DA:3818,0
DA:3819,0
DA:3821,0
DA:3822,0
DA:3823,0
DA:3824,0
DA:3825,0
DA:3827,0
DA:3828,0
DA:3830,0
DA:3832,0
DA:3833,0
DA:3835,0
DA:3836,0
DA:3837,0
DA:3838,0
DA:3840,0
DA:3841,0
DA:3843,0
DA:3845,0
DA:3846,0
DA:3847,0
DA:3848,0
DA:3849,0
DA:3850,0
DA:3851,0
DA:3853,0
DA:3854,0
DA:3855,0
DA:3856,0
DA:3857,0
DA:3859,0
DA:3860,0
DA:3862,0
DA:3864,0
DA:3865,0
DA:3867,0
DA:3868,0
DA:3869,0
DA:3870,0
DA:3872,0
DA:3873,0
DA:3875,0
DA:3879,0
DA:3880,0
DA:3881,0
DA:3882,0
DA:3884,0
DA:3886,0
DA:3887,0
DA:3888,0
DA:3889,0
DA:3891,0
DA:3892,0
DA:3893,0
DA:3894,0
DA:3896,0
DA:3898,0
DA:3900,0
DA:3901,0
DA:3902,0
DA:3903,0
DA:3904,0
DA:3905,0
DA:3906,0
DA:3908,0
DA:3909,0
DA:3910,0
DA:3911,0
DA:3912,0
DA:3914,0
DA:3915,0
DA:3917,0
DA:3919,0
DA:3920,0
DA:3922,0
DA:3923,0
DA:3924,0
DA:3925,0
DA:3927,0
DA:3928,0
DA:3930,0
DA:3932,0
DA:3933,0
DA:3934,0
DA:3935,0
DA:3936,0
DA:3937,0
DA:3938,0
DA:3940,0
DA:3941,0
DA:3942,0
DA:3943,0
DA:3944,0
DA:3946,0
DA:3947,0
DA:3949,0
DA:3951,0
DA:3952,0
DA:3954,0
DA:3955,0
DA:3956,0
DA:3957,0
DA:3959,0
DA:3960,0
DA:3962,0
DA:3964,0
DA:3965,0
DA:3966,0
DA:3967,0
DA:3968,0
DA:3969,0
DA:3970,0
DA:3972,0
DA:3973,0
DA:3974,0
DA:3975,0
DA:3976,0
DA:3978,0
DA:3979,0
DA:3981,0
DA:3983,0
DA:3984,0
DA:3986,0
DA:3987,0
DA:3988,0
DA:3989,0
DA:3991,0
DA:3992,0
DA:3994,0
DA:3996,0
DA:3997,0
DA:3998,0
DA:3999,0
DA:4000,0
DA:4001,0
DA:4002,0
DA:4004,0
DA:4005,0
DA:4006,0
DA:4007,0
DA:4008,0
DA:4010,0
DA:4011,0
DA:4013,0
DA:4015,0
DA:4016,0
DA:4018,0
DA:4019,0
DA:4020,0
DA:4021,0
DA:4023,0
DA:4024,0
DA:4026,0
DA:4031,0
DA:4033,0
DA:4041,0
DA:4042,0
DA:4043,0
DA:4045,0
DA:4046,0
DA:4047,0
DA:4048,0
DA:4049,0
DA:4050,0
DA:4051,0
DA:4052,0
DA:4053,0
DA:4054,0
DA:4055,0
DA:4056,0
DA:4058,0
DA:4059,0
DA:4061,0
DA:4062,0
DA:4064,0
DA:4065,0
DA:4066,0
DA:4067,0
DA:4069,0
DA:4071,0
DA:4072,0
DA:4073,0
DA:4074,0
DA:4075,0
DA:4076,0
DA:4078,0
DA:4080,0
DA:4082,0
DA:4083,0
DA:4084,0
DA:4085,0
DA:4086,0
DA:4087,0
DA:4088,0
DA:4090,0
DA:4091,0
DA:4092,0
DA:4093,0
DA:4094,0
DA:4096,0
DA:4097,0
DA:4099,0
DA:4101,0
DA:4102,0
DA:4104,0
DA:4105,0
DA:4106,0
DA:4107,0
DA:4109,0
DA:4110,0
DA:4112,0
DA:4114,0
DA:4115,0
DA:4116,0
DA:4117,0
DA:4118,0
DA:4119,0
DA:4120,0
DA:4122,0
DA:4123,0
DA:4124,0
DA:4125,0
DA:4126,0
DA:4128,0
DA:4129,0
DA:4131,0
DA:4133,0
DA:4134,0
DA:4136,0
DA:4137,0
DA:4138,0
DA:4139,0
DA:4141,0
DA:4142,0
DA:4144,0
DA:4146,0
DA:4147,0
DA:4148,0
DA:4149,0
DA:4150,0
DA:4151,0
DA:4152,0
DA:4154,0
DA:4155,0
DA:4156,0
DA:4157,0
DA:4158,0
DA:4160,0
DA:4161,0
DA:4163,0
DA:4165,0
DA:4166,0
DA:4168,0
DA:4169,0
DA:4170,0
DA:4171,0
DA:4173,0
DA:4174,0
DA:4176,0
DA:4178,0
DA:4179,0
DA:4180,0
DA:4181,0
DA:4182,0
DA:4183,0
DA:4184,0
DA:4186,0
DA:4187,0
DA:4188,0
DA:4189,0
DA:4190,0
DA:4192,0
DA:4193,0
DA:4195,0
DA:4197,0
DA:4198,0
DA:4200,0
DA:4201,0
DA:4202,0
DA:4203,0
DA:4205,0
DA:4206,0
DA:4208,0
DA:4212,0
DA:4213,0
DA:4214,0
DA:4215,0
DA:4217,0
DA:4219,0
DA:4220,0
DA:4221,0
DA:4222,0
DA:4224,0
DA:4225,0
DA:4226,0
DA:4227,0
DA:4229,0
DA:4231,0
DA:4233,0
DA:4234,0
DA:4235,0
DA:4236,0
DA:4237,0
DA:4238,0
DA:4239,0
DA:4241,0
DA:4242,0
DA:4243,0
DA:4244,0
DA:4245,0
DA:4247,0
DA:4248,0
DA:4250,0
DA:4252,0
DA:4253,0
DA:4255,0
DA:4256,0
DA:4257,0
DA:4258,0
DA:4260,0
DA:4261,0
DA:4263,0
DA:4265,0
DA:4266,0
DA:4267,0
DA:4268,0
DA:4269,0
DA:4270,0
DA:4271,0
DA:4273,0
DA:4274,0
DA:4275,0
DA:4276,0
DA:4277,0
DA:4279,0
DA:4280,0
DA:4282,0
DA:4284,0
DA:4285,0
DA:4287,0
DA:4288,0
DA:4289,0
DA:4290,0
DA:4292,0
DA:4293,0
DA:4295,0
DA:4297,0
DA:4298,0
DA:4299,0
DA:4300,0
DA:4301,0
DA:4302,0
DA:4303,0
DA:4305,0
DA:4306,0
DA:4307,0
DA:4308,0
DA:4309,0
DA:4311,0
DA:4312,0
DA:4314,0
DA:4316,0
DA:4317,0
DA:4319,0
DA:4320,0
DA:4321,0
DA:4322,0
DA:4324,0
DA:4325,0
DA:4327,0
DA:4329,0
DA:4330,0
DA:4331,0
DA:4332,0
DA:4333,0
DA:4334,0
DA:4335,0
DA:4337,0
DA:4338,0
DA:4339,0
DA:4340,0
DA:4341,0
DA:4343,0
DA:4344,0
DA:4346,0
DA:4348,0
DA:4349,0
DA:4351,0
DA:4352,0
DA:4353,0
DA:4354,0
DA:4356,0
DA:4357,0
DA:4359,0
DA:4364,0
DA:4366,0
DA:4372,0
DA:4373,0
DA:4374,0
DA:4376,0
DA:4377,0
DA:4378,0
DA:4379,0
DA:4381,0
DA:4382,0
DA:4384,0
DA:4385,0
DA:4387,0
DA:4388,0
DA:4389,0
DA:4390,0
DA:4392,0
DA:4394,0
DA:4395,0
DA:4396,0
DA:4397,0
DA:4399,0
DA:4400,0
DA:4401,0
DA:4402,0
DA:4404,0
DA:4406,0
DA:4408,0
DA:4409,0
DA:4410,0
DA:4411,0
DA:4412,0
DA:4413,0
DA:4414,0
DA:4416,0
DA:4417,0
DA:4418,0
DA:4419,0
DA:4420,0
DA:4422,0
DA:4423,0
DA:4425,0
DA:4427,0
DA:4428,0
DA:4430,0
DA:4431,0
DA:4432,0
DA:4433,0
DA:4435,0
DA:4436,0
DA:4438,0
DA:4442,0
DA:4443,0
DA:4444,0
DA:4445,0
DA:4447,0
DA:4449,0
DA:4450,0
DA:4451,0
DA:4452,0
DA:4454,0
DA:4455,0
DA:4456,0
DA:4457,0
DA:4459,0
DA:4461,0
DA:4463,0
DA:4464,0
DA:4465,0
DA:4466,0
DA:4467,0
DA:4468,0
DA:4469,0
DA:4471,0
DA:4472,0
DA:4473,0
DA:4474,0
DA:4475,0
DA:4477,0
DA:4478,0
DA:4480,0
DA:4482,0
DA:4483,0
DA:4485,0
DA:4486,0
DA:4487,0
DA:4488,0
DA:4490,0
DA:4491,0
DA:4493,0
DA:4498,0
DA:4500,0
DA:4508,0
DA:4509,0
DA:4510,0
DA:4512,0
DA:4513,0
DA:4514,0
DA:4515,0
DA:4517,0
DA:4518,0
DA:4520,0
DA:4521,0
DA:4523,0
DA:4524,0
DA:4525,0
DA:4526,0
DA:4528,0
DA:4530,0
DA:4531,0
DA:4532,0
DA:4533,0
DA:4534,0
DA:4535,0
DA:4537,0
DA:4539,0
DA:4541,0
DA:4542,0
DA:4543,0
DA:4544,0
DA:4545,0
DA:4546,0
DA:4547,0
DA:4549,0
DA:4550,0
DA:4551,0
DA:4552,0
DA:4553,0
DA:4555,0
DA:4556,0
DA:4558,0
DA:4560,0
DA:4561,0
DA:4563,0
DA:4564,0
DA:4565,0
DA:4566,0
DA:4568,0
DA:4569,0
DA:4571,0
DA:4575,0
DA:4576,0
DA:4577,0
DA:4578,0
DA:4580,0
DA:4582,0
DA:4583,0
DA:4584,0
DA:4585,0
DA:4587,0
DA:4588,0
DA:4589,0
DA:4590,0
DA:4592,0
DA:4594,0
DA:4596,0
DA:4597,0
DA:4598,0
DA:4599,0
DA:4600,0
DA:4601,0
DA:4602,0
DA:4604,0
DA:4605,0
DA:4606,0
DA:4607,0
DA:4608,0
DA:4610,0
DA:4611,0
DA:4613,0
DA:4615,0
DA:4616,0
DA:4618,0
DA:4619,0
DA:4620,0
DA:4621,0
DA:4623,0
DA:4624,0
DA:4626,0
DA:4631,0
DA:4633,0
DA:4641,0
DA:4642,0
DA:4643,0
DA:4645,0
DA:4646,0
DA:4647,0
DA:4648,0
DA:4650,0
DA:4651,0
DA:4653,0
DA:4654,0
DA:4656,0
DA:4657,0
DA:4658,0
DA:4659,0
DA:4661,0
DA:4663,0
DA:4664,0
DA:4665,0
DA:4666,0
DA:4668,0
DA:4669,0
DA:4670,0
DA:4671,0
DA:4673,0
DA:4675,0
DA:4677,0
DA:4678,0
DA:4679,0
DA:4680,0
DA:4681,0
DA:4682,0
DA:4683,0
DA:4685,0
DA:4686,0
DA:4687,0
DA:4688,0
DA:4689,0
DA:4691,0
DA:4692,0
DA:4694,0
DA:4696,0
DA:4697,0
DA:4699,0
DA:4700,0
DA:4701,0
DA:4702,0
DA:4704,0
DA:4705,0
DA:4707,0
DA:4711,0
DA:4712,0
DA:4713,0
DA:4714,0
DA:4716,0
DA:4718,0
DA:4719,0
DA:4720,0
DA:4721,0
DA:4722,0
DA:4723,0
DA:4725,0
DA:4727,0
DA:4729,0
DA:4730,0
DA:4731,0
DA:4732,0
DA:4733,0
DA:4734,0
DA:4735,0
DA:4737,0
DA:4738,0
DA:4739,0
DA:4740,0
DA:4741,0
DA:4743,0
DA:4744,0
DA:4746,0
DA:4748,0
DA:4749,0
DA:4751,0
DA:4752,0
DA:4753,0
DA:4754,0
DA:4756,0
DA:4757,0
DA:4759,0
DA:4764,0
DA:4766,0
DA:4776,0
DA:4777,0
DA:4778,0
DA:4780,0
DA:4781,0
DA:4782,0
DA:4783,0
DA:4784,0
DA:4785,0
DA:4786,0
DA:4788,0
DA:4789,0
DA:4791,0
DA:4792,0
DA:4794,0
DA:4795,0
DA:4796,0
DA:4797,0
DA:4799,0
DA:4801,0
DA:4802,0
DA:4803,0
DA:4804,0
DA:4806,0
DA:4807,0
DA:4808,0
DA:4809,0
DA:4811,0
DA:4813,0
DA:4815,0
DA:4816,0
DA:4817,0
DA:4818,0
DA:4819,0
DA:4820,0
DA:4821,0
DA:4823,0
DA:4824,0
DA:4825,0
DA:4826,0
DA:4827,0
DA:4829,0
DA:4830,0
DA:4832,0
DA:4834,0
DA:4835,0
DA:4837,0
DA:4838,0
DA:4839,0
DA:4840,0
DA:4842,0
DA:4843,0
DA:4845,0
DA:4849,0
DA:4850,0
DA:4851,0
DA:4852,0
DA:4854,0
DA:4856,0
DA:4857,0
DA:4858,0
DA:4859,0
DA:4861,0
DA:4862,0
DA:4863,0
DA:4864,0
DA:4866,0
DA:4868,0
DA:4870,0
DA:4871,0
DA:4872,0
DA:4873,0
DA:4874,0
DA:4875,0
DA:4876,0
DA:4878,0
DA:4879,0
DA:4880,0
DA:4881,0
DA:4883,0
DA:4884,0
DA:4886,0
DA:4891,0
DA:4893,0
DA:4900,0
DA:4901,0
DA:4902,0
DA:4904,0
DA:4905,0
DA:4906,0
DA:4907,0
DA:4908,0
DA:4909,0
DA:4910,0
DA:4911,0
DA:4912,0
DA:4913,0
DA:4915,0
DA:4916,0
DA:4918,0
DA:4919,0
DA:4921,0
DA:4922,0
DA:4923,0
DA:4924,0
DA:4926,0
DA:4928,0
DA:4929,0
DA:4930,0
DA:4931,0
DA:4932,0
DA:4933,0
DA:4935,0
DA:4937,0
DA:4939,0
DA:4940,0
DA:4941,0
DA:4942,0
DA:4943,0
DA:4944,0
DA:4946,0
DA:4947,0
DA:4949,0
DA:4951,0
DA:4952,0
DA:4954,0
DA:4955,0
DA:4956,0
DA:4957,0
DA:4959,0
DA:4960,0
DA:4962,0
DA:4964,0
DA:4965,0
DA:4966,0
DA:4967,0
DA:4968,0
DA:4969,0
DA:4971,0
DA:4972,0
DA:4974,0
DA:4976,0
DA:4977,0
DA:4979,0
DA:4980,0
DA:4981,0
DA:4982,0
DA:4984,0
DA:4985,0
DA:4986,0
DA:4988,0
DA:4990,0
DA:4991,0
DA:4992,0
DA:4993,0
DA:4994,0
DA:4995,0
DA:4997,0
DA:4998,0
DA:4999,0
DA:5000,0
DA:5002,0
DA:5003,0
DA:5005,0
DA:5007,0
DA:5008,0
DA:5010,0
DA:5011,0
DA:5012,0
DA:5013,0
DA:5015,0
DA:5016,0
DA:5017,0
DA:5019,0
DA:5024,0
DA:5026,0
DA:5034,0
DA:5035,0
DA:5036,0
DA:5038,0
DA:5039,0
DA:5040,0
DA:5041,0
DA:5042,0
DA:5043,0
DA:5044,0
DA:5045,0
DA:5046,0
DA:5047,0
DA:5048,0
DA:5049,0
DA:5050,0
DA:5052,0
DA:5053,0
DA:5055,0
DA:5056,0
DA:5058,0
DA:5059,0
DA:5060,0
DA:5061,0
DA:5063,0
DA:5065,0
DA:5066,0
DA:5067,0
DA:5068,0
DA:5069,0
DA:5070,0
DA:5072,0
DA:5074,0
DA:5076,0
DA:5077,0
DA:5078,0
DA:5079,0
DA:5080,0
DA:5081,0
DA:5082,0
DA:5084,0
DA:5085,0
DA:5087,0
DA:5089,0
DA:5090,0
DA:5092,0
DA:5093,0
DA:5094,0
DA:5095,0
DA:5097,0
DA:5098,0
DA:5100,0
DA:5102,0
DA:5103,0
DA:5104,0
DA:5105,0
DA:5106,0
DA:5107,0
DA:5108,0
DA:5110,0
DA:5111,0
DA:5113,0
DA:5115,0
DA:5116,0
DA:5118,0
DA:5119,0
DA:5120,0
DA:5121,0
DA:5123,0
DA:5124,0
DA:5125,0
DA:5127,0
DA:5129,0
DA:5130,0
DA:5131,0
DA:5132,0
DA:5133,0
DA:5134,0
DA:5135,0
DA:5137,0
DA:5138,0
DA:5140,0
DA:5142,0
DA:5143,0
DA:5145,0
DA:5146,0
DA:5147,0
DA:5148,0
DA:5150,0
DA:5151,0
DA:5152,0
DA:5154,0
DA:5156,0
DA:5157,0
DA:5158,0
DA:5159,0
DA:5160,0
DA:5161,0
DA:5162,0
DA:5164,0
DA:5165,0
DA:5166,0
DA:5167,0
DA:5168,0
DA:5170,0
DA:5171,0
DA:5173,0
DA:5175,0
DA:5176,0
DA:5178,0
DA:5179,0
DA:5180,0
DA:5181,0
DA:5183,0
DA:5184,0
DA:5185,0
