TN:
SF:/root/mfem/fem/bilinearform.hpp
FN:284,_ZNK4mfem12BilinearForm16AddMultTransposeERKNS_6VectorERS1_d
FN:295,_ZNK4mfem12BilinearForm13MultTransposeERKNS_6VectorERS1_
FN:316,_ZN4mfem12BilinearForm5SpMatEv
FN:394,_ZNK4mfem12BilinearForm15GetProlongationEv
FN:397,_ZNK4mfem12BilinearForm14GetRestrictionEv
FN:473,_ZN4mfem12BilinearForm16FormSystemMatrixINS_12SparseMatrixEEEvRKNS_5ArrayIiEERT_
FN:804,_ZNK4mfem17MixedBilinearForm15GetProlongationEv
FN:808,_ZNK4mfem17MixedBilinearForm14GetRestrictionEv
FNDA:0,_ZN4mfem12BilinearForm16FormSystemMatrixINS_12SparseMatrixEEEvRKNS_5ArrayIiEERT_
FNDA:0,_ZN4mfem12BilinearForm5SpMatEv
FNDA:0,_ZNK4mfem12BilinearForm13MultTransposeERKNS_6VectorERS1_
FNDA:0,_ZNK4mfem12BilinearForm14GetRestrictionEv
FNDA:0,_ZNK4mfem12BilinearForm15GetProlongationEv
FNDA:0,_ZNK4mfem12BilinearForm16AddMultTransposeERKNS_6VectorERS1_d
FNDA:0,_ZNK4mfem17MixedBilinearForm14GetRestrictionEv
FNDA:0,_ZNK4mfem17MixedBilinearForm15GetProlongationEv
FNF:8
FNH:0
DA:284,0
DA:286,0
DA:295,0
DA:296,0
DA:316,0
DA:318,0
DA:319,0
DA:394,0
DA:395,0
DA:397,0
DA:398,0
DA:473,0
DA:475,0
DA:476,0
DA:477,0
DA:478,0
DA:479,0
DA:480,0
DA:738,0
DA:804,0
DA:805,0
DA:808,0
DA:809,0
DA:986,0
DA:1000,0
DA:1002,0
DA:1005,0
DA:1006,0
LF:28
LH:0
end_of_record
TN:
SF:/root/mfem/fem/bilininteg.hpp
FN:177,_ZN4mfem22BilinearFormIntegrator19AssembleElementGradERKNS_13FiniteElementERNS_21ElementTransformationERKNS_6VectorERNS_11DenseMatrixE
FN:182,_ZN4mfem22BilinearFormIntegrator16AssembleFaceGradERKNS_13FiniteElementES3_RNS_26FaceElementTransformationsERKNS_6VectorERNS_11DenseMatrixE
FN:217,_ZN4mfem22BilinearFormIntegrator18ComputeElementFluxERKNS_13FiniteElementERNS_21ElementTransformationERNS_6VectorES3_S7_b
FN:242,_ZN4mfem22BilinearFormIntegrator17ComputeFluxEnergyERKNS_13FiniteElementERNS_21ElementTransformationERNS_6VectorEPS6_
FN:261,_ZN4mfem19TransposeIntegratorC2EPNS_22BilinearFormIntegratorEi
FN:371,_ZN4mfem13SumIntegratorC2Ei
FN:446,_ZN4mfem21MixedScalarIntegrator21AssembleElementMatrixERKNS_13FiniteElementERNS_21ElementTransformationERNS_11DenseMatrixE
FN:460,_ZNK4mfem21MixedScalarIntegrator24VerifyFiniteElementTypesERKNS_13FiniteElementES3_
FN:468,_ZNK4mfem21MixedScalarIntegrator31FiniteElementTypeFailureMessageEv
FN:474,_ZN4mfem21MixedScalarIntegrator19GetIntegrationOrderERKNS_13FiniteElementES3_RNS_21ElementTransformationE
FN:480,_ZN4mfem21MixedScalarIntegrator13CalcTestShapeERKNS_13FiniteElementERNS_21ElementTransformationERNS_6VectorE
FN:485,_ZN4mfem21MixedScalarIntegrator14CalcTrialShapeERKNS_13FiniteElementERNS_21ElementTransformationERNS_6VectorE
FN:513,_ZN4mfem21MixedVectorIntegrator21AssembleElementMatrixERKNS_13FiniteElementERNS_21ElementTransformationERNS_11DenseMatrixE
FN:524,_ZN4mfem21MixedVectorIntegratorC2Ev
FN:526,_ZN4mfem21MixedVectorIntegratorC2ERNS_11CoefficientE
FN:528,_ZN4mfem21MixedVectorIntegratorC2ERNS_17VectorCoefficientEb
FN:531,_ZN4mfem21MixedVectorIntegratorC2ERNS_17MatrixCoefficientE
FN:534,_ZNK4mfem21MixedVectorIntegrator24VerifyFiniteElementTypesERKNS_13FiniteElementES3_
FN:542,_ZNK4mfem21MixedVectorIntegrator31FiniteElementTypeFailureMessageEv
FN:548,_ZN4mfem21MixedVectorIntegrator19GetIntegrationOrderERKNS_13FiniteElementES3_RNS_21ElementTransformationE
FN:554,_ZN4mfem21MixedVectorIntegrator13CalcTestShapeERKNS_13FiniteElementERNS_21ElementTransformationERNS_11DenseMatrixE
FN:559,_ZN4mfem21MixedVectorIntegrator14CalcTrialShapeERKNS_13FiniteElementERNS_21ElementTransformationERNS_11DenseMatrixE
FN:599,_ZN4mfem27MixedScalarVectorIntegrator21AssembleElementMatrixERKNS_13FiniteElementERNS_21ElementTransformationERNS_11DenseMatrixE
FN:606,_ZN4mfem27MixedScalarVectorIntegratorC2ERNS_17VectorCoefficientEbb
FN:610,_ZNK4mfem27MixedScalarVectorIntegrator24VerifyFiniteElementTypesERKNS_13FiniteElementES3_
FN:623,_ZNK4mfem27MixedScalarVectorIntegrator31FiniteElementTypeFailureMessageEv
FN:639,_ZN4mfem27MixedScalarVectorIntegrator19GetIntegrationOrderERKNS_13FiniteElementES3_RNS_21ElementTransformationE
FN:645,_ZN4mfem27MixedScalarVectorIntegrator10CalcVShapeERKNS_13FiniteElementERNS_21ElementTransformationERNS_11DenseMatrixE
FN:650,_ZN4mfem27MixedScalarVectorIntegrator9CalcShapeERKNS_13FiniteElementERNS_21ElementTransformationERNS_6VectorE
FN:701,_ZNK4mfem31MixedScalarDerivativeIntegrator24VerifyFiniteElementTypesERKNS_13FiniteElementES3_
FN:710,_ZNK4mfem31MixedScalarDerivativeIntegrator31FiniteElementTypeFailureMessageEv
FN:717,_ZN4mfem31MixedScalarDerivativeIntegrator14CalcTrialShapeERKNS_13FiniteElementERNS_21ElementTransformationERNS_6VectorE
FN:736,_ZNK4mfem35MixedScalarWeakDerivativeIntegrator24VerifyFiniteElementTypesERKNS_13FiniteElementES3_
FN:745,_ZNK4mfem35MixedScalarWeakDerivativeIntegrator31FiniteElementTypeFailureMessageEv
FN:753,_ZN4mfem35MixedScalarWeakDerivativeIntegrator13CalcTestShapeERKNS_13FiniteElementERNS_21ElementTransformationERNS_6VectorE
FN:774,_ZNK4mfem31MixedScalarDivergenceIntegrator24VerifyFiniteElementTypesERKNS_13FiniteElementES3_
FN:782,_ZNK4mfem31MixedScalarDivergenceIntegrator31FiniteElementTypeFailureMessageEv
FN:789,_ZN4mfem31MixedScalarDivergenceIntegrator19GetIntegrationOrderERKNS_13FiniteElementES3_RNS_21ElementTransformationE
FN:794,_ZN4mfem31MixedScalarDivergenceIntegrator14CalcTrialShapeERKNS_13FiniteElementERNS_21ElementTransformationERNS_6VectorE
FN:810,_ZNK4mfem31MixedVectorDivergenceIntegrator24VerifyFiniteElementTypesERKNS_13FiniteElementES3_
FN:818,_ZNK4mfem31MixedVectorDivergenceIntegrator31FiniteElementTypeFailureMessageEv
FN:827,_ZN4mfem31MixedVectorDivergenceIntegrator19GetIntegrationOrderERKNS_13FiniteElementES3_RNS_21ElementTransformationE
FN:832,_ZN4mfem31MixedVectorDivergenceIntegrator9CalcShapeERKNS_13FiniteElementERNS_21ElementTransformationERNS_6VectorE
FN:849,_ZNK4mfem33MixedScalarWeakGradientIntegrator24VerifyFiniteElementTypesERKNS_13FiniteElementES3_
FN:857,_ZNK4mfem33MixedScalarWeakGradientIntegrator31FiniteElementTypeFailureMessageEv
FN:864,_ZN4mfem33MixedScalarWeakGradientIntegrator19GetIntegrationOrderERKNS_13FiniteElementES3_RNS_21ElementTransformationE
FN:869,_ZN4mfem33MixedScalarWeakGradientIntegrator13CalcTestShapeERKNS_13FiniteElementERNS_21ElementTransformationERNS_6VectorE
FN:889,_ZNK4mfem25MixedScalarCurlIntegrator24VerifyFiniteElementTypesERKNS_13FiniteElementES3_
FN:898,_ZNK4mfem25MixedScalarCurlIntegrator31FiniteElementTypeFailureMessageEv
FN:905,_ZN4mfem25MixedScalarCurlIntegrator19GetIntegrationOrderERKNS_13FiniteElementES3_RNS_21ElementTransformationE
FN:910,_ZN4mfem25MixedScalarCurlIntegrator14CalcTrialShapeERKNS_13FiniteElementERNS_21ElementTransformationERNS_6VectorE
FN:930,_ZNK4mfem29MixedScalarWeakCurlIntegrator24VerifyFiniteElementTypesERKNS_13FiniteElementES3_
FN:939,_ZNK4mfem29MixedScalarWeakCurlIntegrator31FiniteElementTypeFailureMessageEv
FN:946,_ZN4mfem29MixedScalarWeakCurlIntegrator13CalcTestShapeERKNS_13FiniteElementERNS_21ElementTransformationERNS_6VectorE
FN:988,_ZNK4mfem25MixedDotProductIntegrator24VerifyFiniteElementTypesERKNS_13FiniteElementES3_
FN:996,_ZNK4mfem25MixedDotProductIntegrator31FiniteElementTypeFailureMessageEv
FN:1013,_ZNK4mfem26MixedWeakGradDotIntegrator24VerifyFiniteElementTypesERKNS_13FiniteElementES3_
FN:1022,_ZNK4mfem26MixedWeakGradDotIntegrator31FiniteElementTypeFailureMessageEv
FN:1031,_ZN4mfem26MixedWeakGradDotIntegrator19GetIntegrationOrderERKNS_13FiniteElementES3_RNS_21ElementTransformationE
FN:1036,_ZN4mfem26MixedWeakGradDotIntegrator9CalcShapeERKNS_13FiniteElementERNS_21ElementTransformationERNS_6VectorE
FN:1050,_ZNK4mfem27MixedWeakDivCrossIntegrator24VerifyFiniteElementTypesERKNS_13FiniteElementES3_
FN:1060,_ZNK4mfem27MixedWeakDivCrossIntegrator31FiniteElementTypeFailureMessageEv
FN:1067,_ZN4mfem27MixedWeakDivCrossIntegrator13CalcTestShapeERKNS_13FiniteElementERNS_21ElementTransformationERNS_11DenseMatrixE
FN:1087,_ZNK4mfem23MixedGradGradIntegrator24VerifyFiniteElementTypesERKNS_13FiniteElementES3_
FN:1097,_ZNK4mfem23MixedGradGradIntegrator31FiniteElementTypeFailureMessageEv
FN:1104,_ZN4mfem23MixedGradGradIntegrator19GetIntegrationOrderERKNS_13FiniteElementES3_RNS_21ElementTransformationE
FN:1114,_ZN4mfem23MixedGradGradIntegrator14CalcTrialShapeERKNS_13FiniteElementERNS_21ElementTransformationERNS_11DenseMatrixE
FN:1119,_ZN4mfem23MixedGradGradIntegrator13CalcTestShapeERKNS_13FiniteElementERNS_21ElementTransformationERNS_11DenseMatrixE
FN:1133,_ZNK4mfem28MixedCrossGradGradIntegrator24VerifyFiniteElementTypesERKNS_13FiniteElementES3_
FN:1143,_ZNK4mfem28MixedCrossGradGradIntegrator31FiniteElementTypeFailureMessageEv
FN:1150,_ZN4mfem28MixedCrossGradGradIntegrator14CalcTrialShapeERKNS_13FiniteElementERNS_21ElementTransformationERNS_11DenseMatrixE
FN:1155,_ZN4mfem28MixedCrossGradGradIntegrator13CalcTestShapeERKNS_13FiniteElementERNS_21ElementTransformationERNS_11DenseMatrixE
FN:1175,_ZNK4mfem23MixedCurlCurlIntegrator24VerifyFiniteElementTypesERKNS_13FiniteElementES3_
FN:1186,_ZNK4mfem23MixedCurlCurlIntegrator31FiniteElementTypeFailureMessageEv
FN:1193,_ZN4mfem23MixedCurlCurlIntegrator14CalcTrialShapeERKNS_13FiniteElementERNS_21ElementTransformationERNS_11DenseMatrixE
FN:1198,_ZN4mfem23MixedCurlCurlIntegrator13CalcTestShapeERKNS_13FiniteElementERNS_21ElementTransformationERNS_11DenseMatrixE
FN:1212,_ZNK4mfem28MixedCrossCurlCurlIntegrator24VerifyFiniteElementTypesERKNS_13FiniteElementES3_
FN:1223,_ZNK4mfem28MixedCrossCurlCurlIntegrator31FiniteElementTypeFailureMessageEv
FN:1230,_ZN4mfem28MixedCrossCurlCurlIntegrator14CalcTrialShapeERKNS_13FiniteElementERNS_21ElementTransformationERNS_11DenseMatrixE
FN:1235,_ZN4mfem28MixedCrossCurlCurlIntegrator13CalcTestShapeERKNS_13FiniteElementERNS_21ElementTransformationERNS_11DenseMatrixE
FN:1249,_ZNK4mfem28MixedCrossCurlGradIntegrator24VerifyFiniteElementTypesERKNS_13FiniteElementES3_
FN:1260,_ZNK4mfem28MixedCrossCurlGradIntegrator31FiniteElementTypeFailureMessageEv
FN:1267,_ZN4mfem28MixedCrossCurlGradIntegrator14CalcTrialShapeERKNS_13FiniteElementERNS_21ElementTransformationERNS_11DenseMatrixE
FN:1272,_ZN4mfem28MixedCrossCurlGradIntegrator13CalcTestShapeERKNS_13FiniteElementERNS_21ElementTransformationERNS_11DenseMatrixE
FN:1286,_ZNK4mfem28MixedCrossGradCurlIntegrator24VerifyFiniteElementTypesERKNS_13FiniteElementES3_
FN:1297,_ZNK4mfem28MixedCrossGradCurlIntegrator31FiniteElementTypeFailureMessageEv
FN:1304,_ZN4mfem28MixedCrossGradCurlIntegrator14CalcTrialShapeERKNS_13FiniteElementERNS_21ElementTransformationERNS_11DenseMatrixE
FN:1309,_ZN4mfem28MixedCrossGradCurlIntegrator13CalcTestShapeERKNS_13FiniteElementERNS_21ElementTransformationERNS_11DenseMatrixE
FN:1324,_ZNK4mfem28MixedWeakCurlCrossIntegrator24VerifyFiniteElementTypesERKNS_13FiniteElementES3_
FN:1334,_ZNK4mfem28MixedWeakCurlCrossIntegrator31FiniteElementTypeFailureMessageEv
FN:1341,_ZN4mfem28MixedWeakCurlCrossIntegrator13CalcTestShapeERKNS_13FiniteElementERNS_21ElementTransformationERNS_11DenseMatrixE
FN:1356,_ZNK4mfem34MixedScalarWeakCurlCrossIntegrator24VerifyFiniteElementTypesERKNS_13FiniteElementES3_
FN:1366,_ZNK4mfem34MixedScalarWeakCurlCrossIntegrator31FiniteElementTypeFailureMessageEv
FN:1373,_ZN4mfem34MixedScalarWeakCurlCrossIntegrator9CalcShapeERKNS_13FiniteElementERNS_21ElementTransformationERNS_6VectorE
FN:1391,_ZNK4mfem24MixedCrossGradIntegrator24VerifyFiniteElementTypesERKNS_13FiniteElementES3_
FN:1401,_ZNK4mfem24MixedCrossGradIntegrator31FiniteElementTypeFailureMessageEv
FN:1408,_ZN4mfem24MixedCrossGradIntegrator14CalcTrialShapeERKNS_13FiniteElementERNS_21ElementTransformationERNS_11DenseMatrixE
FN:1413,_ZN4mfem24MixedCrossGradIntegrator13CalcTestShapeERKNS_13FiniteElementERNS_21ElementTransformationERNS_11DenseMatrixE
FN:1428,_ZNK4mfem24MixedCrossCurlIntegrator24VerifyFiniteElementTypesERKNS_13FiniteElementES3_
FN:1438,_ZNK4mfem24MixedCrossCurlIntegrator31FiniteElementTypeFailureMessageEv
FN:1445,_ZN4mfem24MixedCrossCurlIntegrator14CalcTrialShapeERKNS_13FiniteElementERNS_21ElementTransformationERNS_11DenseMatrixE
FN:1460,_ZNK4mfem30MixedScalarCrossCurlIntegrator24VerifyFiniteElementTypesERKNS_13FiniteElementES3_
FN:1470,_ZNK4mfem30MixedScalarCrossCurlIntegrator31FiniteElementTypeFailureMessageEv
FN:1477,_ZN4mfem30MixedScalarCrossCurlIntegrator9CalcShapeERKNS_13FiniteElementERNS_21ElementTransformationERNS_6VectorE
FN:1494,_ZNK4mfem30MixedScalarCrossGradIntegrator24VerifyFiniteElementTypesERKNS_13FiniteElementES3_
FN:1504,_ZNK4mfem30MixedScalarCrossGradIntegrator31FiniteElementTypeFailureMessageEv
FN:1511,_ZN4mfem30MixedScalarCrossGradIntegrator10CalcVShapeERKNS_13FiniteElementERNS_21ElementTransformationERNS_11DenseMatrixE
FN:1525,_ZNK4mfem33MixedScalarCrossProductIntegrator24VerifyFiniteElementTypesERKNS_13FiniteElementES3_
FN:1534,_ZNK4mfem33MixedScalarCrossProductIntegrator31FiniteElementTypeFailureMessageEv
FN:1550,_ZNK4mfem37MixedScalarWeakCrossProductIntegrator24VerifyFiniteElementTypesERKNS_13FiniteElementES3_
FN:1559,_ZNK4mfem37MixedScalarWeakCrossProductIntegrator31FiniteElementTypeFailureMessageEv
FN:1566,_ZN4mfem37MixedScalarWeakCrossProductIntegrator9CalcShapeERKNS_13FiniteElementERNS_21ElementTransformationERNS_6VectorE
FN:1580,_ZNK4mfem36MixedDirectionalDerivativeIntegrator24VerifyFiniteElementTypesERKNS_13FiniteElementES3_
FN:1589,_ZNK4mfem36MixedDirectionalDerivativeIntegrator31FiniteElementTypeFailureMessageEv
FN:1596,_ZN4mfem36MixedDirectionalDerivativeIntegrator10CalcVShapeERKNS_13FiniteElementERNS_21ElementTransformationERNS_11DenseMatrixE
FN:1610,_ZNK4mfem22MixedGradDivIntegrator24VerifyFiniteElementTypesERKNS_13FiniteElementES3_
FN:1620,_ZNK4mfem22MixedGradDivIntegrator31FiniteElementTypeFailureMessageEv
FN:1627,_ZN4mfem22MixedGradDivIntegrator10CalcVShapeERKNS_13FiniteElementERNS_21ElementTransformationERNS_11DenseMatrixE
FN:1632,_ZN4mfem22MixedGradDivIntegrator9CalcShapeERKNS_13FiniteElementERNS_21ElementTransformationERNS_6VectorE
FN:1646,_ZNK4mfem22MixedDivGradIntegrator24VerifyFiniteElementTypesERKNS_13FiniteElementES3_
FN:1657,_ZNK4mfem22MixedDivGradIntegrator31FiniteElementTypeFailureMessageEv
FN:1664,_ZN4mfem22MixedDivGradIntegrator10CalcVShapeERKNS_13FiniteElementERNS_21ElementTransformationERNS_11DenseMatrixE
FN:1669,_ZN4mfem22MixedDivGradIntegrator9CalcShapeERKNS_13FiniteElementERNS_21ElementTransformationERNS_6VectorE
FN:1683,_ZNK4mfem35MixedScalarWeakDivergenceIntegrator24VerifyFiniteElementTypesERKNS_13FiniteElementES3_
FN:1692,_ZNK4mfem35MixedScalarWeakDivergenceIntegrator31FiniteElementTypeFailureMessageEv
FN:1699,_ZN4mfem35MixedScalarWeakDivergenceIntegrator10CalcVShapeERKNS_13FiniteElementERNS_21ElementTransformationERNS_11DenseMatrixE
FN:1711,_ZN4mfem29MixedVectorGradientIntegratorC2Ev
FN:1712,_ZN4mfem29MixedVectorGradientIntegratorC2ERNS_11CoefficientE
FN:1714,_ZN4mfem29MixedVectorGradientIntegratorC2ERNS_17VectorCoefficientE
FN:1716,_ZN4mfem29MixedVectorGradientIntegratorC2ERNS_17MatrixCoefficientE
FN:1882,_ZNK4mfem35MixedVectorWeakDivergenceIntegrator24VerifyFiniteElementTypesERKNS_13FiniteElementES3_
FN:1890,_ZNK4mfem35MixedVectorWeakDivergenceIntegrator31FiniteElementTypeFailureMessageEv
FN:1897,_ZN4mfem35MixedVectorWeakDivergenceIntegrator13CalcTestShapeERKNS_13FiniteElementERNS_21ElementTransformationERNS_11DenseMatrixE
FN:1930,_ZN4mfem18GradientIntegratorC2Ev
FN:1985,_ZN4mfem19DiffusionIntegratorC2EPKNS_15IntegrationRuleE
FN:1990,_ZN4mfem19DiffusionIntegratorC2ERNS_11CoefficientEPKNS_15IntegrationRuleE
FN:1995,_ZN4mfem19DiffusionIntegratorC2ERNS_17VectorCoefficientEPKNS_15IntegrationRuleE
FN:2001,_ZN4mfem19DiffusionIntegratorC2ERNS_17MatrixCoefficientEPKNS_15IntegrationRuleE
FN:2007,_ZN4mfem19DiffusionIntegratorC2ERNS_26SymmetricMatrixCoefficientEPKNS_15IntegrationRuleE
FN:2155,_ZN4mfem20ConvectionIntegratorC2ERNS_17VectorCoefficientEd
FN:2243,_ZN4mfem20VectorMassIntegratorC2Ev
FN:2315,_ZN4mfem28VectorFEDivergenceIntegrator21AssembleElementMatrixERKNS_13FiniteElementERNS_21ElementTransformationERNS_11DenseMatrixE
FN:2345,_ZN4mfem32VectorFEWeakDivergenceIntegrator21AssembleElementMatrixERKNS_13FiniteElementERNS_21ElementTransformationERNS_11DenseMatrixE
FN:2371,_ZN4mfem22VectorFECurlIntegrator21AssembleElementMatrixERKNS_13FiniteElementERNS_21ElementTransformationERNS_11DenseMatrixE
FN:2393,_ZN4mfem20DerivativeIntegrator21AssembleElementMatrixERKNS_13FiniteElementERNS_21ElementTransformationERNS_11DenseMatrixE
FN:2429,_ZN4mfem18CurlCurlIntegratorC2Ev
FN:2431,_ZN4mfem18CurlCurlIntegratorC2ERNS_11CoefficientEPKNS_15IntegrationRuleE
FN:2433,_ZN4mfem18CurlCurlIntegratorC2ERNS_17VectorCoefficientEPKNS_15IntegrationRuleE
FN:2436,_ZN4mfem18CurlCurlIntegratorC2ERNS_17MatrixCoefficientEPKNS_15IntegrationRuleE
FN:2438,_ZN4mfem18CurlCurlIntegratorC2ERNS_26SymmetricMatrixCoefficientEPKNS_15IntegrationRuleE
FN:2527,_ZN4mfem22VectorFEMassIntegratorC2Ev
FN:2529,_ZN4mfem22VectorFEMassIntegratorC2ERNS_11CoefficientE
FN:2531,_ZN4mfem22VectorFEMassIntegratorC2ERNS_17VectorCoefficientE
FN:2533,_ZN4mfem22VectorFEMassIntegratorC2ERNS_17MatrixCoefficientE
FN:2534,_ZN4mfem22VectorFEMassIntegratorC2ERNS_26SymmetricMatrixCoefficientE
FN:2574,_ZN4mfem26VectorDivergenceIntegratorC2Ev
FN:2666,_ZN4mfem25VectorDiffusionIntegratorC2Ev
FN:3226,_ZN4mfem16CurlInterpolator22AssembleElementMatrix2ERKNS_13FiniteElementES3_RNS_21ElementTransformationERNS_11DenseMatrixE
FN:3245,_ZN4mfem22DivergenceInterpolator22AssembleElementMatrix2ERKNS_13FiniteElementES3_RNS_21ElementTransformationERNS_11DenseMatrixE
FNDA:0,_ZN4mfem13SumIntegratorC2Ei
FNDA:0,_ZN4mfem16CurlInterpolator22AssembleElementMatrix2ERKNS_13FiniteElementES3_RNS_21ElementTransformationERNS_11DenseMatrixE
FNDA:0,_ZN4mfem18CurlCurlIntegratorC2ERNS_11CoefficientEPKNS_15IntegrationRuleE
FNDA:0,_ZN4mfem18CurlCurlIntegratorC2ERNS_17MatrixCoefficientEPKNS_15IntegrationRuleE
FNDA:0,_ZN4mfem18CurlCurlIntegratorC2ERNS_17VectorCoefficientEPKNS_15IntegrationRuleE
FNDA:0,_ZN4mfem18CurlCurlIntegratorC2ERNS_26SymmetricMatrixCoefficientEPKNS_15IntegrationRuleE
FNDA:0,_ZN4mfem18CurlCurlIntegratorC2Ev
FNDA:0,_ZN4mfem18GradientIntegratorC2Ev
FNDA:0,_ZN4mfem19DiffusionIntegratorC2EPKNS_15IntegrationRuleE
FNDA:0,_ZN4mfem19DiffusionIntegratorC2ERNS_11CoefficientEPKNS_15IntegrationRuleE
FNDA:0,_ZN4mfem19DiffusionIntegratorC2ERNS_17MatrixCoefficientEPKNS_15IntegrationRuleE
FNDA:0,_ZN4mfem19DiffusionIntegratorC2ERNS_17VectorCoefficientEPKNS_15IntegrationRuleE
FNDA:0,_ZN4mfem19DiffusionIntegratorC2ERNS_26SymmetricMatrixCoefficientEPKNS_15IntegrationRuleE
FNDA:0,_ZN4mfem19TransposeIntegratorC2EPNS_22BilinearFormIntegratorEi
FNDA:0,_ZN4mfem20ConvectionIntegratorC2ERNS_17VectorCoefficientEd
FNDA:0,_ZN4mfem20DerivativeIntegrator21AssembleElementMatrixERKNS_13FiniteElementERNS_21ElementTransformationERNS_11DenseMatrixE
FNDA:0,_ZN4mfem20VectorMassIntegratorC2Ev
FNDA:0,_ZN4mfem21MixedScalarIntegrator13CalcTestShapeERKNS_13FiniteElementERNS_21ElementTransformationERNS_6VectorE
FNDA:0,_ZN4mfem21MixedScalarIntegrator14CalcTrialShapeERKNS_13FiniteElementERNS_21ElementTransformationERNS_6VectorE
FNDA:0,_ZN4mfem21MixedScalarIntegrator19GetIntegrationOrderERKNS_13FiniteElementES3_RNS_21ElementTransformationE
FNDA:0,_ZN4mfem21MixedScalarIntegrator21AssembleElementMatrixERKNS_13FiniteElementERNS_21ElementTransformationERNS_11DenseMatrixE
FNDA:0,_ZN4mfem21MixedVectorIntegrator13CalcTestShapeERKNS_13FiniteElementERNS_21ElementTransformationERNS_11DenseMatrixE
FNDA:0,_ZN4mfem21MixedVectorIntegrator14CalcTrialShapeERKNS_13FiniteElementERNS_21ElementTransformationERNS_11DenseMatrixE
FNDA:0,_ZN4mfem21MixedVectorIntegrator19GetIntegrationOrderERKNS_13FiniteElementES3_RNS_21ElementTransformationE
FNDA:0,_ZN4mfem21MixedVectorIntegrator21AssembleElementMatrixERKNS_13FiniteElementERNS_21ElementTransformationERNS_11DenseMatrixE
FNDA:0,_ZN4mfem21MixedVectorIntegratorC2ERNS_11CoefficientE
FNDA:0,_ZN4mfem21MixedVectorIntegratorC2ERNS_17MatrixCoefficientE
FNDA:0,_ZN4mfem21MixedVectorIntegratorC2ERNS_17VectorCoefficientEb
FNDA:0,_ZN4mfem21MixedVectorIntegratorC2Ev
FNDA:0,_ZN4mfem22BilinearFormIntegrator16AssembleFaceGradERKNS_13FiniteElementES3_RNS_26FaceElementTransformationsERKNS_6VectorERNS_11DenseMatrixE
FNDA:0,_ZN4mfem22BilinearFormIntegrator17ComputeFluxEnergyERKNS_13FiniteElementERNS_21ElementTransformationERNS_6VectorEPS6_
FNDA:0,_ZN4mfem22BilinearFormIntegrator18ComputeElementFluxERKNS_13FiniteElementERNS_21ElementTransformationERNS_6VectorES3_S7_b
FNDA:0,_ZN4mfem22BilinearFormIntegrator19AssembleElementGradERKNS_13FiniteElementERNS_21ElementTransformationERKNS_6VectorERNS_11DenseMatrixE
FNDA:0,_ZN4mfem22DivergenceInterpolator22AssembleElementMatrix2ERKNS_13FiniteElementES3_RNS_21ElementTransformationERNS_11DenseMatrixE
FNDA:0,_ZN4mfem22MixedDivGradIntegrator10CalcVShapeERKNS_13FiniteElementERNS_21ElementTransformationERNS_11DenseMatrixE
FNDA:0,_ZN4mfem22MixedDivGradIntegrator9CalcShapeERKNS_13FiniteElementERNS_21ElementTransformationERNS_6VectorE
FNDA:0,_ZN4mfem22MixedGradDivIntegrator10CalcVShapeERKNS_13FiniteElementERNS_21ElementTransformationERNS_11DenseMatrixE
FNDA:0,_ZN4mfem22MixedGradDivIntegrator9CalcShapeERKNS_13FiniteElementERNS_21ElementTransformationERNS_6VectorE
FNDA:0,_ZN4mfem22VectorFECurlIntegrator21AssembleElementMatrixERKNS_13FiniteElementERNS_21ElementTransformationERNS_11DenseMatrixE
FNDA:0,_ZN4mfem22VectorFEMassIntegratorC2ERNS_11CoefficientE
FNDA:0,_ZN4mfem22VectorFEMassIntegratorC2ERNS_17MatrixCoefficientE
FNDA:0,_ZN4mfem22VectorFEMassIntegratorC2ERNS_17VectorCoefficientE
FNDA:0,_ZN4mfem22VectorFEMassIntegratorC2ERNS_26SymmetricMatrixCoefficientE
FNDA:0,_ZN4mfem22VectorFEMassIntegratorC2Ev
FNDA:0,_ZN4mfem23MixedCurlCurlIntegrator13CalcTestShapeERKNS_13FiniteElementERNS_21ElementTransformationERNS_11DenseMatrixE
FNDA:0,_ZN4mfem23MixedCurlCurlIntegrator14CalcTrialShapeERKNS_13FiniteElementERNS_21ElementTransformationERNS_11DenseMatrixE
FNDA:0,_ZN4mfem23MixedGradGradIntegrator13CalcTestShapeERKNS_13FiniteElementERNS_21ElementTransformationERNS_11DenseMatrixE
FNDA:0,_ZN4mfem23MixedGradGradIntegrator14CalcTrialShapeERKNS_13FiniteElementERNS_21ElementTransformationERNS_11DenseMatrixE
FNDA:0,_ZN4mfem23MixedGradGradIntegrator19GetIntegrationOrderERKNS_13FiniteElementES3_RNS_21ElementTransformationE
FNDA:0,_ZN4mfem24MixedCrossCurlIntegrator14CalcTrialShapeERKNS_13FiniteElementERNS_21ElementTransformationERNS_11DenseMatrixE
FNDA:0,_ZN4mfem24MixedCrossGradIntegrator13CalcTestShapeERKNS_13FiniteElementERNS_21ElementTransformationERNS_11DenseMatrixE
FNDA:0,_ZN4mfem24MixedCrossGradIntegrator14CalcTrialShapeERKNS_13FiniteElementERNS_21ElementTransformationERNS_11DenseMatrixE
FNDA:0,_ZN4mfem25MixedScalarCurlIntegrator14CalcTrialShapeERKNS_13FiniteElementERNS_21ElementTransformationERNS_6VectorE
FNDA:0,_ZN4mfem25MixedScalarCurlIntegrator19GetIntegrationOrderERKNS_13FiniteElementES3_RNS_21ElementTransformationE
FNDA:0,_ZN4mfem25VectorDiffusionIntegratorC2Ev
FNDA:0,_ZN4mfem26MixedWeakGradDotIntegrator19GetIntegrationOrderERKNS_13FiniteElementES3_RNS_21ElementTransformationE
FNDA:0,_ZN4mfem26MixedWeakGradDotIntegrator9CalcShapeERKNS_13FiniteElementERNS_21ElementTransformationERNS_6VectorE
FNDA:0,_ZN4mfem26VectorDivergenceIntegratorC2Ev
FNDA:0,_ZN4mfem27MixedScalarVectorIntegrator10CalcVShapeERKNS_13FiniteElementERNS_21ElementTransformationERNS_11DenseMatrixE
FNDA:0,_ZN4mfem27MixedScalarVectorIntegrator19GetIntegrationOrderERKNS_13FiniteElementES3_RNS_21ElementTransformationE
FNDA:0,_ZN4mfem27MixedScalarVectorIntegrator21AssembleElementMatrixERKNS_13FiniteElementERNS_21ElementTransformationERNS_11DenseMatrixE
FNDA:0,_ZN4mfem27MixedScalarVectorIntegrator9CalcShapeERKNS_13FiniteElementERNS_21ElementTransformationERNS_6VectorE
FNDA:0,_ZN4mfem27MixedScalarVectorIntegratorC2ERNS_17VectorCoefficientEbb
FNDA:0,_ZN4mfem27MixedWeakDivCrossIntegrator13CalcTestShapeERKNS_13FiniteElementERNS_21ElementTransformationERNS_11DenseMatrixE
FNDA:0,_ZN4mfem28MixedCrossCurlCurlIntegrator13CalcTestShapeERKNS_13FiniteElementERNS_21ElementTransformationERNS_11DenseMatrixE
FNDA:0,_ZN4mfem28MixedCrossCurlCurlIntegrator14CalcTrialShapeERKNS_13FiniteElementERNS_21ElementTransformationERNS_11DenseMatrixE
FNDA:0,_ZN4mfem28MixedCrossCurlGradIntegrator13CalcTestShapeERKNS_13FiniteElementERNS_21ElementTransformationERNS_11DenseMatrixE
FNDA:0,_ZN4mfem28MixedCrossCurlGradIntegrator14CalcTrialShapeERKNS_13FiniteElementERNS_21ElementTransformationERNS_11DenseMatrixE
FNDA:0,_ZN4mfem28MixedCrossGradCurlIntegrator13CalcTestShapeERKNS_13FiniteElementERNS_21ElementTransformationERNS_11DenseMatrixE
FNDA:0,_ZN4mfem28MixedCrossGradCurlIntegrator14CalcTrialShapeERKNS_13FiniteElementERNS_21ElementTransformationERNS_11DenseMatrixE
FNDA:0,_ZN4mfem28MixedCrossGradGradIntegrator13CalcTestShapeERKNS_13FiniteElementERNS_21ElementTransformationERNS_11DenseMatrixE
FNDA:0,_ZN4mfem28MixedCrossGradGradIntegrator14CalcTrialShapeERKNS_13FiniteElementERNS_21ElementTransformationERNS_11DenseMatrixE
FNDA:0,_ZN4mfem28MixedWeakCurlCrossIntegrator13CalcTestShapeERKNS_13FiniteElementERNS_21ElementTransformationERNS_11DenseMatrixE
FNDA:0,_ZN4mfem28VectorFEDivergenceIntegrator21AssembleElementMatrixERKNS_13FiniteElementERNS_21ElementTransformationERNS_11DenseMatrixE
FNDA:0,_ZN4mfem29MixedScalarWeakCurlIntegrator13CalcTestShapeERKNS_13FiniteElementERNS_21ElementTransformationERNS_6VectorE
FNDA:0,_ZN4mfem29MixedVectorGradientIntegratorC2ERNS_11CoefficientE
FNDA:0,_ZN4mfem29MixedVectorGradientIntegratorC2ERNS_17MatrixCoefficientE
FNDA:0,_ZN4mfem29MixedVectorGradientIntegratorC2ERNS_17VectorCoefficientE
FNDA:0,_ZN4mfem29MixedVectorGradientIntegratorC2Ev
FNDA:0,_ZN4mfem30MixedScalarCrossCurlIntegrator9CalcShapeERKNS_13FiniteElementERNS_21ElementTransformationERNS_6VectorE
FNDA:0,_ZN4mfem30MixedScalarCrossGradIntegrator10CalcVShapeERKNS_13FiniteElementERNS_21ElementTransformationERNS_11DenseMatrixE
FNDA:0,_ZN4mfem31MixedScalarDerivativeIntegrator14CalcTrialShapeERKNS_13FiniteElementERNS_21ElementTransformationERNS_6VectorE
FNDA:0,_ZN4mfem31MixedScalarDivergenceIntegrator14CalcTrialShapeERKNS_13FiniteElementERNS_21ElementTransformationERNS_6VectorE
FNDA:0,_ZN4mfem31MixedScalarDivergenceIntegrator19GetIntegrationOrderERKNS_13FiniteElementES3_RNS_21ElementTransformationE
FNDA:0,_ZN4mfem31MixedVectorDivergenceIntegrator19GetIntegrationOrderERKNS_13FiniteElementES3_RNS_21ElementTransformationE
FNDA:0,_ZN4mfem31MixedVectorDivergenceIntegrator9CalcShapeERKNS_13FiniteElementERNS_21ElementTransformationERNS_6VectorE
FNDA:0,_ZN4mfem32VectorFEWeakDivergenceIntegrator21AssembleElementMatrixERKNS_13FiniteElementERNS_21ElementTransformationERNS_11DenseMatrixE
FNDA:0,_ZN4mfem33MixedScalarWeakGradientIntegrator13CalcTestShapeERKNS_13FiniteElementERNS_21ElementTransformationERNS_6VectorE
FNDA:0,_ZN4mfem33MixedScalarWeakGradientIntegrator19GetIntegrationOrderERKNS_13FiniteElementES3_RNS_21ElementTransformationE
FNDA:0,_ZN4mfem34MixedScalarWeakCurlCrossIntegrator9CalcShapeERKNS_13FiniteElementERNS_21ElementTransformationERNS_6VectorE
FNDA:0,_ZN4mfem35MixedScalarWeakDerivativeIntegrator13CalcTestShapeERKNS_13FiniteElementERNS_21ElementTransformationERNS_6VectorE
FNDA:0,_ZN4mfem35MixedScalarWeakDivergenceIntegrator10CalcVShapeERKNS_13FiniteElementERNS_21ElementTransformationERNS_11DenseMatrixE
FNDA:0,_ZN4mfem35MixedVectorWeakDivergenceIntegrator13CalcTestShapeERKNS_13FiniteElementERNS_21ElementTransformationERNS_11DenseMatrixE
FNDA:0,_ZN4mfem36MixedDirectionalDerivativeIntegrator10CalcVShapeERKNS_13FiniteElementERNS_21ElementTransformationERNS_11DenseMatrixE
FNDA:0,_ZN4mfem37MixedScalarWeakCrossProductIntegrator9CalcShapeERKNS_13FiniteElementERNS_21ElementTransformationERNS_6VectorE
FNDA:0,_ZNK4mfem21MixedScalarIntegrator24VerifyFiniteElementTypesERKNS_13FiniteElementES3_
FNDA:0,_ZNK4mfem21MixedScalarIntegrator31FiniteElementTypeFailureMessageEv
FNDA:0,_ZNK4mfem21MixedVectorIntegrator24VerifyFiniteElementTypesERKNS_13FiniteElementES3_
FNDA:0,_ZNK4mfem21MixedVectorIntegrator31FiniteElementTypeFailureMessageEv
FNDA:0,_ZNK4mfem22MixedDivGradIntegrator24VerifyFiniteElementTypesERKNS_13FiniteElementES3_
FNDA:0,_ZNK4mfem22MixedDivGradIntegrator31FiniteElementTypeFailureMessageEv
FNDA:0,_ZNK4mfem22MixedGradDivIntegrator24VerifyFiniteElementTypesERKNS_13FiniteElementES3_
FNDA:0,_ZNK4mfem22MixedGradDivIntegrator31FiniteElementTypeFailureMessageEv
FNDA:0,_ZNK4mfem23MixedCurlCurlIntegrator24VerifyFiniteElementTypesERKNS_13FiniteElementES3_
FNDA:0,_ZNK4mfem23MixedCurlCurlIntegrator31FiniteElementTypeFailureMessageEv
FNDA:0,_ZNK4mfem23MixedGradGradIntegrator24VerifyFiniteElementTypesERKNS_13FiniteElementES3_
FNDA:0,_ZNK4mfem23MixedGradGradIntegrator31FiniteElementTypeFailureMessageEv
FNDA:0,_ZNK4mfem24MixedCrossCurlIntegrator24VerifyFiniteElementTypesERKNS_13FiniteElementES3_
FNDA:0,_ZNK4mfem24MixedCrossCurlIntegrator31FiniteElementTypeFailureMessageEv
FNDA:0,_ZNK4mfem24MixedCrossGradIntegrator24VerifyFiniteElementTypesERKNS_13FiniteElementES3_
FNDA:0,_ZNK4mfem24MixedCrossGradIntegrator31FiniteElementTypeFailureMessageEv
FNDA:0,_ZNK4mfem25MixedDotProductIntegrator24VerifyFiniteElementTypesERKNS_13FiniteElementES3_
FNDA:0,_ZNK4mfem25MixedDotProductIntegrator31FiniteElementTypeFailureMessageEv
FNDA:0,_ZNK4mfem25MixedScalarCurlIntegrator24VerifyFiniteElementTypesERKNS_13FiniteElementES3_
FNDA:0,_ZNK4mfem25MixedScalarCurlIntegrator31FiniteElementTypeFailureMessageEv
FNDA:0,_ZNK4mfem26MixedWeakGradDotIntegrator24VerifyFiniteElementTypesERKNS_13FiniteElementES3_
FNDA:0,_ZNK4mfem26MixedWeakGradDotIntegrator31FiniteElementTypeFailureMessageEv
FNDA:0,_ZNK4mfem27MixedScalarVectorIntegrator24VerifyFiniteElementTypesERKNS_13FiniteElementES3_
FNDA:0,_ZNK4mfem27MixedScalarVectorIntegrator31FiniteElementTypeFailureMessageEv
FNDA:0,_ZNK4mfem27MixedWeakDivCrossIntegrator24VerifyFiniteElementTypesERKNS_13FiniteElementES3_
FNDA:0,_ZNK4mfem27MixedWeakDivCrossIntegrator31FiniteElementTypeFailureMessageEv
FNDA:0,_ZNK4mfem28MixedCrossCurlCurlIntegrator24VerifyFiniteElementTypesERKNS_13FiniteElementES3_
FNDA:0,_ZNK4mfem28MixedCrossCurlCurlIntegrator31FiniteElementTypeFailureMessageEv
FNDA:0,_ZNK4mfem28MixedCrossCurlGradIntegrator24VerifyFiniteElementTypesERKNS_13FiniteElementES3_
FNDA:0,_ZNK4mfem28MixedCrossCurlGradIntegrator31FiniteElementTypeFailureMessageEv
FNDA:0,_ZNK4mfem28MixedCrossGradCurlIntegrator24VerifyFiniteElementTypesERKNS_13FiniteElementES3_
FNDA:0,_ZNK4mfem28MixedCrossGradCurlIntegrator31FiniteElementTypeFailureMessageEv
FNDA:0,_ZNK4mfem28MixedCrossGradGradIntegrator24VerifyFiniteElementTypesERKNS_13FiniteElementES3_
FNDA:0,_ZNK4mfem28MixedCrossGradGradIntegrator31FiniteElementTypeFailureMessageEv
FNDA:0,_ZNK4mfem28MixedWeakCurlCrossIntegrator24VerifyFiniteElementTypesERKNS_13FiniteElementES3_
FNDA:0,_ZNK4mfem28MixedWeakCurlCrossIntegrator31FiniteElementTypeFailureMessageEv
FNDA:0,_ZNK4mfem29MixedScalarWeakCurlIntegrator24VerifyFiniteElementTypesERKNS_13FiniteElementES3_
FNDA:0,_ZNK4mfem29MixedScalarWeakCurlIntegrator31FiniteElementTypeFailureMessageEv
FNDA:0,_ZNK4mfem30MixedScalarCrossCurlIntegrator24VerifyFiniteElementTypesERKNS_13FiniteElementES3_
FNDA:0,_ZNK4mfem30MixedScalarCrossCurlIntegrator31FiniteElementTypeFailureMessageEv
FNDA:0,_ZNK4mfem30MixedScalarCrossGradIntegrator24VerifyFiniteElementTypesERKNS_13FiniteElementES3_
FNDA:0,_ZNK4mfem30MixedScalarCrossGradIntegrator31FiniteElementTypeFailureMessageEv
FNDA:0,_ZNK4mfem31MixedScalarDerivativeIntegrator24VerifyFiniteElementTypesERKNS_13FiniteElementES3_
FNDA:0,_ZNK4mfem31MixedScalarDerivativeIntegrator31FiniteElementTypeFailureMessageEv
FNDA:0,_ZNK4mfem31MixedScalarDivergenceIntegrator24VerifyFiniteElementTypesERKNS_13FiniteElementES3_
FNDA:0,_ZNK4mfem31MixedScalarDivergenceIntegrator31FiniteElementTypeFailureMessageEv
FNDA:0,_ZNK4mfem31MixedVectorDivergenceIntegrator24VerifyFiniteElementTypesERKNS_13FiniteElementES3_
FNDA:0,_ZNK4mfem31MixedVectorDivergenceIntegrator31FiniteElementTypeFailureMessageEv
FNDA:0,_ZNK4mfem33MixedScalarCrossProductIntegrator24VerifyFiniteElementTypesERKNS_13FiniteElementES3_
FNDA:0,_ZNK4mfem33MixedScalarCrossProductIntegrator31FiniteElementTypeFailureMessageEv
FNDA:0,_ZNK4mfem33MixedScalarWeakGradientIntegrator24VerifyFiniteElementTypesERKNS_13FiniteElementES3_
FNDA:0,_ZNK4mfem33MixedScalarWeakGradientIntegrator31FiniteElementTypeFailureMessageEv
FNDA:0,_ZNK4mfem34MixedScalarWeakCurlCrossIntegrator24VerifyFiniteElementTypesERKNS_13FiniteElementES3_
FNDA:0,_ZNK4mfem34MixedScalarWeakCurlCrossIntegrator31FiniteElementTypeFailureMessageEv
FNDA:0,_ZNK4mfem35MixedScalarWeakDerivativeIntegrator24VerifyFiniteElementTypesERKNS_13FiniteElementES3_
FNDA:0,_ZNK4mfem35MixedScalarWeakDerivativeIntegrator31FiniteElementTypeFailureMessageEv
FNDA:0,_ZNK4mfem35MixedScalarWeakDivergenceIntegrator24VerifyFiniteElementTypesERKNS_13FiniteElementES3_
FNDA:0,_ZNK4mfem35MixedScalarWeakDivergenceIntegrator31FiniteElementTypeFailureMessageEv
FNDA:0,_ZNK4mfem35MixedVectorWeakDivergenceIntegrator24VerifyFiniteElementTypesERKNS_13FiniteElementES3_
FNDA:0,_ZNK4mfem35MixedVectorWeakDivergenceIntegrator31FiniteElementTypeFailureMessageEv
FNDA:0,_ZNK4mfem36MixedDirectionalDerivativeIntegrator24VerifyFiniteElementTypesERKNS_13FiniteElementES3_
FNDA:0,_ZNK4mfem36MixedDirectionalDerivativeIntegrator31FiniteElementTypeFailureMessageEv
FNDA:0,_ZNK4mfem37MixedScalarWeakCrossProductIntegrator24VerifyFiniteElementTypesERKNS_13FiniteElementES3_
FNDA:0,_ZNK4mfem37MixedScalarWeakCrossProductIntegrator31FiniteElementTypeFailureMessageEv
FNF:159
FNH:0
DA:37,0
DA:38,0
DA:177,0
DA:180,0
DA:182,0
DA:186,0
DA:217,0
DA:221,0
DA:242,0
DA:245,0
DA:247,0
DA:261,0
DA:262,0
DA:371,0
DA:375,0
DA:376,0
DA:446,0
DA:449,0
DA:457,0
DA:458,0
DA:460,0
DA:464,0
DA:465,0
DA:468,0
DA:470,0
DA:471,0
DA:474,0
DA:477,0
DA:480,0
DA:483,0
DA:485,0
DA:488,0
DA:513,0
DA:516,0
DA:524,0
DA:525,0
DA:526,0
DA:527,0
DA:528,0
DA:529,0
DA:530,0
DA:531,0
DA:532,0
DA:534,0
DA:538,0
DA:539,0
DA:542,0
DA:544,0
DA:545,0
DA:548,0
DA:551,0
DA:554,0
DA:557,0
DA:559,0
DA:562,0
DA:599,0
DA:602,0
DA:606,0
DA:608,0
DA:610,0
DA:614,0
DA:615,0
DA:616,0
DA:617,0
DA:618,0
DA:619,0
DA:620,0
DA:623,0
DA:625,0
DA:633,0
DA:635,0
DA:639,0
DA:642,0
DA:645,0
DA:648,0
DA:650,0
DA:653,0
DA:676,0
DA:677,0
DA:678,0
DA:687,0
DA:688,0
DA:696,0
DA:697,0
DA:698,0
DA:701,0
DA:705,0
DA:706,0
DA:707,0
DA:710,0
DA:712,0
DA:714,0
DA:717,0
DA:721,0
DA:722,0
DA:723,0
DA:731,0
DA:732,0
DA:733,0
DA:736,0
DA:740,0
DA:741,0
DA:742,0
DA:745,0
DA:747,0
DA:750,0
DA:753,0
DA:757,0
DA:758,0
DA:759,0
DA:760,0
DA:769,0
DA:770,0
DA:771,0
DA:774,0
DA:778,0
DA:779,0
DA:782,0
DA:784,0
DA:786,0
DA:789,0
DA:792,0
DA:794,0
DA:797,0
DA:806,0
DA:807,0
DA:810,0
DA:814,0
DA:815,0
DA:818,0
DA:820,0
DA:822,0
DA:827,0
DA:830,0
DA:832,0
DA:835,0
DA:844,0
DA:845,0
DA:846,0
DA:849,0
DA:853,0
DA:854,0
DA:857,0
DA:859,0
DA:861,0
DA:864,0
DA:867,0
DA:869,0
DA:873,0
DA:874,0
DA:875,0
DA:884,0
DA:885,0
DA:886,0
DA:889,0
DA:893,0
DA:894,0
DA:895,0
DA:898,0
DA:900,0
DA:902,0
DA:905,0
DA:908,0
DA:910,0
DA:914,0
DA:915,0
DA:916,0
DA:925,0
DA:926,0
DA:927,0
DA:930,0
DA:934,0
DA:935,0
DA:936,0
DA:939,0
DA:941,0
DA:943,0
DA:946,0
DA:950,0
DA:951,0
DA:952,0
DA:961,0
DA:962,0
DA:963,0
DA:964,0
DA:965,0
DA:966,0
DA:967,0
DA:975,0
DA:976,0
DA:985,0
DA:986,0
DA:988,0
DA:992,0
DA:993,0
DA:996,0
DA:998,0
DA:1000,0
DA:1010,0
DA:1011,0
DA:1013,0
DA:1017,0
DA:1018,0
DA:1019,0
DA:1022,0
DA:1024,0
DA:1026,0
DA:1031,0
DA:1034,0
DA:1036,0
DA:1039,0
DA:1047,0
DA:1048,0
DA:1050,0
DA:1054,0
DA:1055,0
DA:1056,0
DA:1057,0
DA:1060,0
DA:1062,0
DA:1064,0
DA:1067,0
DA:1070,0
DA:1079,0
DA:1080,0
DA:1081,0
DA:1082,0
DA:1083,0
DA:1084,0
DA:1085,0
DA:1087,0
DA:1091,0
DA:1092,0
DA:1093,0
DA:1094,0
DA:1097,0
DA:1099,0
DA:1101,0
DA:1104,0
DA:1109,0
DA:1110,0
DA:1111,0
DA:1114,0
DA:1117,0
DA:1119,0
DA:1122,0
DA:1130,0
DA:1131,0
DA:1133,0
DA:1137,0
DA:1138,0
DA:1139,0
DA:1140,0
DA:1143,0
DA:1145,0
DA:1147,0
DA:1150,0
DA:1153,0
DA:1155,0
DA:1158,0
DA:1167,0
DA:1168,0
DA:1169,0
DA:1170,0
DA:1171,0
DA:1172,0
DA:1173,0
DA:1175,0
DA:1179,0
DA:1180,0
DA:1181,0
DA:1182,0
DA:1183,0
DA:1186,0
DA:1188,0
DA:1190,0
DA:1193,0
DA:1196,0
DA:1198,0
DA:1201,0
DA:1209,0
DA:1210,0
DA:1212,0
DA:1216,0
DA:1217,0
DA:1218,0
DA:1219,0
DA:1220,0
DA:1223,0
DA:1225,0
DA:1227,0
DA:1230,0
DA:1233,0
DA:1235,0
DA:1238,0
DA:1246,0
DA:1247,0
DA:1249,0
DA:1253,0
DA:1254,0
DA:1255,0
DA:1256,0
DA:1257,0
DA:1260,0
DA:1262,0
DA:1264,0
DA:1267,0
DA:1270,0
DA:1272,0
DA:1275,0
DA:1283,0
DA:1284,0
DA:1286,0
DA:1290,0
DA:1291,0
DA:1292,0
DA:1293,0
DA:1294,0
DA:1297,0
DA:1299,0
DA:1301,0
DA:1304,0
DA:1307,0
DA:1309,0
DA:1312,0
DA:1321,0
DA:1322,0
DA:1324,0
DA:1328,0
DA:1329,0
DA:1330,0
DA:1331,0
DA:1334,0
DA:1336,0
DA:1338,0
DA:1341,0
DA:1344,0
DA:1353,0
DA:1354,0
DA:1356,0
DA:1360,0
DA:1361,0
DA:1362,0
DA:1363,0
DA:1366,0
DA:1368,0
DA:1370,0
DA:1373,0
DA:1377,0
DA:1378,0
DA:1379,0
DA:1388,0
DA:1389,0
DA:1391,0
DA:1395,0
DA:1396,0
DA:1397,0
DA:1398,0
DA:1401,0
DA:1403,0
DA:1405,0
DA:1408,0
DA:1411,0
DA:1413,0
DA:1416,0
DA:1425,0
DA:1426,0
DA:1428,0
DA:1432,0
DA:1433,0
DA:1434,0
DA:1435,0
DA:1438,0
DA:1440,0
DA:1442,0
DA:1445,0
DA:1448,0
DA:1457,0
DA:1458,0
DA:1460,0
DA:1464,0
DA:1465,0
DA:1466,0
DA:1467,0
DA:1470,0
DA:1472,0
DA:1474,0
DA:1477,0
DA:1481,0
DA:1482,0
DA:1483,0
DA:1491,0
DA:1492,0
DA:1494,0
DA:1498,0
DA:1499,0
DA:1500,0
DA:1501,0
DA:1504,0
DA:1506,0
DA:1508,0
DA:1511,0
DA:1514,0
DA:1522,0
DA:1523,0
DA:1525,0
DA:1529,0
DA:1530,0
DA:1531,0
DA:1534,0
DA:1536,0
DA:1538,0
DA:1547,0
DA:1548,0
DA:1550,0
DA:1554,0
DA:1555,0
DA:1556,0
DA:1559,0
DA:1561,0
DA:1563,0
DA:1566,0
DA:1569,0
DA:1577,0
DA:1578,0
DA:1580,0
DA:1584,0
DA:1585,0
DA:1586,0
DA:1589,0
DA:1591,0
DA:1593,0
DA:1596,0
DA:1599,0
DA:1607,0
DA:1608,0
DA:1610,0
DA:1614,0
DA:1615,0
DA:1616,0
DA:1617,0
DA:1620,0
DA:1622,0
DA:1624,0
DA:1627,0
DA:1630,0
DA:1632,0
DA:1635,0
DA:1643,0
DA:1644,0
DA:1646,0
DA:1650,0
DA:1651,0
DA:1652,0
DA:1653,0
DA:1654,0
DA:1657,0
DA:1659,0
DA:1661,0
DA:1664,0
DA:1667,0
DA:1669,0
DA:1672,0
DA:1680,0
DA:1681,0
DA:1683,0
DA:1687,0
DA:1688,0
DA:1689,0
DA:1692,0
DA:1694,0
DA:1696,0
DA:1699,0
DA:1702,0
DA:1711,0
DA:1712,0
DA:1713,0
DA:1714,0
DA:1715,0
DA:1716,0
DA:1717,0
DA:1765,0
DA:1766,0
DA:1767,0
DA:1768,0
DA:1769,0
DA:1770,0
DA:1771,0
DA:1820,0
DA:1821,0
DA:1822,0
DA:1823,0
DA:1824,0
DA:1825,0
DA:1826,0
DA:1873,0
DA:1874,0
DA:1875,0
DA:1876,0
DA:1877,0
DA:1878,0
DA:1879,0
DA:1882,0
DA:1886,0
DA:1887,0
DA:1890,0
DA:1892,0
DA:1894,0
DA:1897,0
DA:1901,0
DA:1902,0
DA:1903,0
DA:1930,0
DA:1931,0
DA:1932,0
DA:1985,0
DA:1986,0
DA:1987,0
DA:1990,0
DA:1991,0
DA:1992,0
DA:1995,0
DA:1997,0
DA:1998,0
DA:2001,0
DA:2003,0
DA:2004,0
DA:2007,0
DA:2009,0
DA:2010,0
DA:2079,0
DA:2080,0
DA:2083,0
DA:2084,0
DA:2155,0
DA:2156,0
DA:2243,0
DA:2244,0
DA:2313,0
DA:2314,0
DA:2315,0
DA:2317,0
DA:2345,0
DA:2347,0
DA:2371,0
DA:2373,0
DA:2393,0
DA:2396,0
DA:2429,0
DA:2431,0
DA:2432,0
DA:2433,0
DA:2434,0
DA:2435,0
DA:2436,0
DA:2437,0
DA:2438,0
DA:2439,0
DA:2440,0
DA:2497,0
DA:2499,0
DA:2527,0
DA:2529,0
DA:2531,0
DA:2533,0
DA:2534,0
DA:2574,0
DA:2575,0
DA:2576,0
DA:2625,0
DA:2626,0
DA:2666,0
DA:2837,0
DA:2838,0
DA:2840,0
DA:2842,0
DA:3146,0
DA:3155,0
DA:3191,0
DA:3223,0
DA:3226,0
DA:3230,0
DA:3242,0
DA:3245,0
DA:3249,0
DA:3271,0
DA:3288,0
DA:3289,0
DA:3305,0
DA:3306,0
DA:3321,0
DA:3322,0
DA:3338,0
DA:3339,0
DA:3355,0
LF:595
LH:0
end_of_record
TN:
SF:/root/mfem/fem/ceed/operator.hpp
FN:45,_ZN4mfem4ceed8OperatorD0Ev
FN:45,_ZN4mfem4ceed8OperatorD2Ev
FNDA:0,_ZN4mfem4ceed8OperatorD0Ev
FNDA:0,_ZN4mfem4ceed8OperatorD2Ev
FNF:2
FNH:0
DA:45,0
DA:46,0
DA:52,0
LF:3
LH:0
end_of_record
TN:
SF:/root/mfem/fem/coefficient.hpp
FN:48,_ZN4mfem11Coefficient7SetTimeEd
FN:87,_ZN4mfem19ConstantCoefficient4EvalERNS_21ElementTransformationERKNS_16IntegrationPointE
FN:184,_ZN4mfem13PWCoefficientC2ERKNS_5ArrayIiEERKNS1_IPNS_11CoefficientEEE
FN:405,_ZN4mfem16DeltaCoefficientD0Ev
FN:405,_ZN4mfem16DeltaCoefficientD2Ev
FN:443,_ZN4mfem17VectorCoefficient7SetTimeEd
FN:490,_ZN4mfem25VectorConstantCoefficient4EvalERNS_6VectorERNS_21ElementTransformationERKNS_16IntegrationPointE
FN:555,_ZN4mfem19PWVectorCoefficientC2EiRKNS_5ArrayIiEERKNS1_IPNS_17VectorCoefficientEEE
FN:614,_ZN4mfem25VectorFunctionCoefficientD0Ev
FN:614,_ZN4mfem25VectorFunctionCoefficientD2Ev
FN:691,_ZN4mfem29VectorGridFunctionCoefficientD0Ev
FN:691,_ZN4mfem29VectorGridFunctionCoefficientD2Ev
FN:722,_ZN4mfem31GradientGridFunctionCoefficientD0Ev
FN:722,_ZN4mfem31GradientGridFunctionCoefficientD2Ev
FN:747,_ZN4mfem27CurlGridFunctionCoefficientD0Ev
FN:747,_ZN4mfem27CurlGridFunctionCoefficientD2Ev
FN:771,_ZN4mfem33DivergenceGridFunctionCoefficientD0Ev
FN:771,_ZN4mfem33DivergenceGridFunctionCoefficientD2Ev
FN:840,_ZN4mfem22VectorDeltaCoefficientD0Ev
FN:840,_ZN4mfem22VectorDeltaCoefficientD2Ev
FN:893,_ZN4mfem17MatrixCoefficient7SetTimeEd
FN:925,_ZN4mfem17MatrixCoefficient13EvalSymmetricERNS_6VectorERNS_21ElementTransformationERKNS_16IntegrationPointE
FN:944,_ZN4mfem25MatrixConstantCoefficient4EvalERNS_11DenseMatrixERNS_21ElementTransformationERKNS_16IntegrationPointE
FN:1013,_ZN4mfem19PWMatrixCoefficientC2EiRKNS_5ArrayIiEERKNS1_IPNS_17MatrixCoefficientEEEb
FN:1073,_ZN4mfem25MatrixFunctionCoefficientC2EiSt8functionIFvRKNS_6VectorERNS_11DenseMatrixEEEPNS_11CoefficientE
FN:1120,_ZN4mfem25MatrixFunctionCoefficientD0Ev
FN:1120,_ZN4mfem25MatrixFunctionCoefficientD2Ev
FN:1262,_ZN4mfem26SymmetricMatrixCoefficient7SetTimeEd
FN:1294,_ZN4mfem34SymmetricMatrixConstantCoefficient4EvalERNS_20DenseSymmetricMatrixERNS_21ElementTransformationERKNS_16IntegrationPointE
FN:1316,_ZN4mfem34SymmetricMatrixFunctionCoefficientC2EiSt8functionIFvRKNS_6VectorERNS_20DenseSymmetricMatrixEEEPNS_11CoefficientE
FN:1347,_ZN4mfem34SymmetricMatrixFunctionCoefficientD0Ev
FN:1347,_ZN4mfem34SymmetricMatrixFunctionCoefficientD2Ev
FN:2041,_ZN4mfem35VectorQuadratureFunctionCoefficientD0Ev
FN:2041,_ZN4mfem35VectorQuadratureFunctionCoefficientD2Ev
FN:2060,_ZN4mfem29QuadratureFunctionCoefficientD0Ev
FN:2060,_ZN4mfem29QuadratureFunctionCoefficientD2Ev
FNDA:0,_ZN4mfem11Coefficient7SetTimeEd
FNDA:0,_ZN4mfem13PWCoefficientC2ERKNS_5ArrayIiEERKNS1_IPNS_11CoefficientEEE
FNDA:0,_ZN4mfem16DeltaCoefficientD0Ev
FNDA:0,_ZN4mfem16DeltaCoefficientD2Ev
FNDA:0,_ZN4mfem17MatrixCoefficient13EvalSymmetricERNS_6VectorERNS_21ElementTransformationERKNS_16IntegrationPointE
FNDA:0,_ZN4mfem17MatrixCoefficient7SetTimeEd
FNDA:0,_ZN4mfem17VectorCoefficient7SetTimeEd
FNDA:0,_ZN4mfem19ConstantCoefficient4EvalERNS_21ElementTransformationERKNS_16IntegrationPointE
FNDA:0,_ZN4mfem19PWMatrixCoefficientC2EiRKNS_5ArrayIiEERKNS1_IPNS_17MatrixCoefficientEEEb
FNDA:0,_ZN4mfem19PWVectorCoefficientC2EiRKNS_5ArrayIiEERKNS1_IPNS_17VectorCoefficientEEE
FNDA:0,_ZN4mfem22VectorDeltaCoefficientD0Ev
FNDA:0,_ZN4mfem22VectorDeltaCoefficientD2Ev
FNDA:0,_ZN4mfem25MatrixConstantCoefficient4EvalERNS_11DenseMatrixERNS_21ElementTransformationERKNS_16IntegrationPointE
FNDA:0,_ZN4mfem25MatrixFunctionCoefficientC2EiSt8functionIFvRKNS_6VectorERNS_11DenseMatrixEEEPNS_11CoefficientE
FNDA:0,_ZN4mfem25MatrixFunctionCoefficientD0Ev
FNDA:0,_ZN4mfem25MatrixFunctionCoefficientD2Ev
FNDA:0,_ZN4mfem25VectorConstantCoefficient4EvalERNS_6VectorERNS_21ElementTransformationERKNS_16IntegrationPointE
FNDA:0,_ZN4mfem25VectorFunctionCoefficientD0Ev
FNDA:0,_ZN4mfem25VectorFunctionCoefficientD2Ev
FNDA:0,_ZN4mfem26SymmetricMatrixCoefficient7SetTimeEd
FNDA:0,_ZN4mfem27CurlGridFunctionCoefficientD0Ev
FNDA:0,_ZN4mfem27CurlGridFunctionCoefficientD2Ev
FNDA:0,_ZN4mfem29QuadratureFunctionCoefficientD0Ev
FNDA:0,_ZN4mfem29QuadratureFunctionCoefficientD2Ev
FNDA:0,_ZN4mfem29VectorGridFunctionCoefficientD0Ev
FNDA:0,_ZN4mfem29VectorGridFunctionCoefficientD2Ev
FNDA:0,_ZN4mfem31GradientGridFunctionCoefficientD0Ev
FNDA:0,_ZN4mfem31GradientGridFunctionCoefficientD2Ev
FNDA:0,_ZN4mfem33DivergenceGridFunctionCoefficientD0Ev
FNDA:0,_ZN4mfem33DivergenceGridFunctionCoefficientD2Ev
FNDA:0,_ZN4mfem34SymmetricMatrixConstantCoefficient4EvalERNS_20DenseSymmetricMatrixERNS_21ElementTransformationERKNS_16IntegrationPointE
FNDA:0,_ZN4mfem34SymmetricMatrixFunctionCoefficientC2EiSt8functionIFvRKNS_6VectorERNS_20DenseSymmetricMatrixEEEPNS_11CoefficientE
FNDA:0,_ZN4mfem34SymmetricMatrixFunctionCoefficientD0Ev
FNDA:0,_ZN4mfem34SymmetricMatrixFunctionCoefficientD2Ev
FNDA:0,_ZN4mfem35VectorQuadratureFunctionCoefficientD0Ev
FNDA:0,_ZN4mfem35VectorQuadratureFunctionCoefficientD2Ev
FNF:36
FNH:0
DA:45,0
DA:48,0
DA:73,0
DA:78,0
DA:84,0
DA:87,0
DA:89,0
DA:144,0
DA:173,0
DA:184,0
DA:186,0
DA:192,0
DA:194,0
DA:197,0
DA:198,0
DA:201,0
DA:202,0
DA:219,0
DA:220,0
DA:255,0
DA:265,0
DA:266,0
DA:405,0
DA:440,0
DA:443,0
DA:474,0
DA:479,0
DA:485,0
DA:486,0
DA:490,0
DA:491,0
DA:514,0
DA:543,0
DA:555,0
DA:557,0
DA:563,0
DA:565,0
DA:571,0
DA:572,0
DA:593,0
DA:596,0
DA:614,0
DA:691,0
DA:722,0
DA:747,0
DA:771,0
DA:840,0
DA:885,0
DA:886,0
DA:889,0
DA:890,0
DA:893,0
DA:925,0
DA:927,0
DA:929,0
DA:934,0
DA:940,0
DA:941,0
DA:944,0
DA:945,0
DA:966,0
DA:995,0
DA:996,0
DA:1013,0
DA:1016,0
DA:1039,0
DA:1041,0
DA:1047,0
DA:1048,0
DA:1073,0
DA:1076,0
DA:1077,0
DA:1120,0
DA:1258,0
DA:1259,0
DA:1262,0
DA:1278,0
DA:1294,0
DA:1295,0
DA:1316,0
DA:1319,0
DA:1320,0
DA:1347,0
DA:2041,0
DA:2060,0
LF:85
LH:0
end_of_record
TN:
SF:/root/mfem/fem/complex_fem.hpp
FN:38,_ZN4mfem19ComplexGridFunction7DestroyEv
FN:83,_ZN4mfem19ComplexGridFunctionD0Ev
FN:83,_ZN4mfem19ComplexGridFunctionD2Ev
FNDA:0,_ZN4mfem19ComplexGridFunction7DestroyEv
FNDA:0,_ZN4mfem19ComplexGridFunctionD0Ev
FNDA:0,_ZN4mfem19ComplexGridFunctionD2Ev
FNF:3
FNH:0
DA:38,0
DA:83,0
LF:2
LH:0
end_of_record
TN:
SF:/root/mfem/fem/datacollection.hpp
FN:39,_ZN4mfem14NamedFieldsMapINS_12GridFunctionEE8RegisterERKNSt7__cxx1112basic_stringIcSt11char_traitsIcESaIcEEEPS1_b
FNDA:0,_ZN4mfem14NamedFieldsMapINS_12GridFunctionEE8RegisterERKNSt7__cxx1112basic_stringIcSt11char_traitsIcESaIcEEEPS1_b
FNF:1
FNH:0
DA:39,0
DA:41,0
DA:42,0
DA:44,0
DA:46,0
DA:47,0
DA:79,0
DA:81,0
DA:86,0
DA:88,0
DA:89,0
DA:243,0
DA:244,0
DA:261,0
DA:262,0
DA:266,0
DA:267,0
DA:282,0
DA:283,0
DA:287,0
DA:288,0
DA:303,0
DA:318,0
DA:320,0
DA:326,0
DA:328,0
DA:333,0
DA:340,0
DA:479,0
DA:484,0
LF:30
LH:0
end_of_record
TN:
SF:/root/mfem/fem/doftrans.hpp
FNF:0
FNH:0
DA:63,0
DA:64,0
DA:68,0
DA:71,0
DA:77,0
DA:78,0
DA:117,0
DA:139,0
DA:149,0
DA:150,0
DA:152,0
DA:155,0
DA:157,0
DA:159,0
DA:210,0
DA:252,0
LF:16
LH:0
end_of_record
TN:
SF:/root/mfem/fem/eltrans.hpp
FN:180,_ZN4mfem21ElementTransformationD0Ev
FN:180,_ZN4mfem21ElementTransformationD2Ev
FN:378,_ZN4mfem27IsoparametricTransformationC2Ev
FN:450,_ZN4mfem27IsoparametricTransformation13TransformBackERKNS_6VectorERNS_16IntegrationPointE
FN:456,_ZN4mfem27IsoparametricTransformationD0Ev
FN:456,_ZN4mfem27IsoparametricTransformationD2Ev
FN:526,_ZN4mfem26FaceElementTransformationsC2Ev
FNDA:0,_ZN4mfem21ElementTransformationD0Ev
FNDA:0,_ZN4mfem21ElementTransformationD2Ev
FNDA:0,_ZN4mfem26FaceElementTransformationsC2Ev
FNDA:0,_ZN4mfem27IsoparametricTransformation13TransformBackERKNS_6VectorERNS_16IntegrationPointE
FNDA:0,_ZN4mfem27IsoparametricTransformationC2Ev
FNDA:0,_ZN4mfem27IsoparametricTransformationD0Ev
FNDA:0,_ZN4mfem27IsoparametricTransformationD2Ev
FNF:7
FNH:0
DA:93,0
DA:94,0
DA:119,0
DA:120,0
DA:162,0
DA:180,0
DA:275,0
DA:276,0
DA:286,0
DA:289,0
DA:296,0
DA:314,0
DA:334,0
DA:378,0
DA:381,0
DA:383,0
DA:384,0
DA:385,0
DA:386,0
DA:410,0
DA:450,0
DA:452,0
DA:453,0
DA:456,0
DA:461,0
DA:526,0
LF:26
LH:0
end_of_record
TN:
SF:/root/mfem/fem/fe/fe_base.hpp
FN:628,_ZN4mfem19ScalarFiniteElement13CheckScalarFEERKNS_13FiniteElementE
FN:660,_ZN4mfem19ScalarFiniteElement10SetMapTypeEi
FN:718,_ZNK4mfem18NodalFiniteElement21GetLocalInterpolationERNS_21ElementTransformationERNS_11DenseMatrixE
FN:725,_ZNK4mfem18NodalFiniteElement17GetTransferMatrixERKNS_13FiniteElementERNS_21ElementTransformationERNS_11DenseMatrixE
FNDA:0,_ZN4mfem19ScalarFiniteElement10SetMapTypeEi
FNDA:0,_ZN4mfem19ScalarFiniteElement13CheckScalarFEERKNS_13FiniteElementE
FNDA:0,_ZNK4mfem18NodalFiniteElement17GetTransferMatrixERKNS_13FiniteElementERNS_21ElementTransformationERNS_11DenseMatrixE
FNDA:0,_ZNK4mfem18NodalFiniteElement21GetLocalInterpolationERNS_21ElementTransformationERNS_11DenseMatrixE
FNF:4
FNH:0
DA:309,0
DA:312,0
DA:315,0
DA:319,0
DA:329,0
DA:332,0
DA:336,0
DA:341,0
DA:347,0
DA:352,0
DA:382,0
DA:628,0
DA:630,0
DA:631,0
DA:632,0
DA:660,0
DA:662,0
DA:663,0
DA:664,0
DA:665,0
DA:718,0
DA:720,0
DA:725,0
DA:728,0
DA:772,0
DA:1015,0
LF:26
LH:0
end_of_record
TN:
SF:/root/mfem/fem/fe/fe_fixed_order.hpp
FN:503,_ZNK4mfem24RT0TriangleFiniteElement10CalcVShapeERNS_21ElementTransformationERNS_11DenseMatrixE
FN:532,_ZNK4mfem20RT0QuadFiniteElement10CalcVShapeERNS_21ElementTransformationERNS_11DenseMatrixE
FN:561,_ZNK4mfem24RT1TriangleFiniteElement10CalcVShapeERNS_21ElementTransformationERNS_11DenseMatrixE
FN:590,_ZNK4mfem20RT1QuadFiniteElement10CalcVShapeERNS_21ElementTransformationERNS_11DenseMatrixE
FN:618,_ZNK4mfem24RT2TriangleFiniteElement10CalcVShapeERNS_21ElementTransformationERNS_11DenseMatrixE
FN:641,_ZNK4mfem20RT2QuadFiniteElement10CalcVShapeERNS_21ElementTransformationERNS_11DenseMatrixE
FN:920,_ZNK4mfem24Nedelec1HexFiniteElement10CalcVShapeERNS_21ElementTransformationERNS_11DenseMatrixE
FN:948,_ZNK4mfem24Nedelec1TetFiniteElement10CalcVShapeERNS_21ElementTransformationERNS_11DenseMatrixE
FN:976,_ZNK4mfem24Nedelec1WdgFiniteElement10CalcVShapeERNS_21ElementTransformationERNS_11DenseMatrixE
FN:1004,_ZNK4mfem24Nedelec1PyrFiniteElement10CalcVShapeERNS_21ElementTransformationERNS_11DenseMatrixE
FN:1034,_ZNK4mfem19RT0HexFiniteElement10CalcVShapeERNS_21ElementTransformationERNS_11DenseMatrixE
FN:1064,_ZNK4mfem19RT1HexFiniteElement10CalcVShapeERNS_21ElementTransformationERNS_11DenseMatrixE
FN:1094,_ZNK4mfem19RT0TetFiniteElement10CalcVShapeERNS_21ElementTransformationERNS_11DenseMatrixE
FN:1124,_ZNK4mfem19RT0WdgFiniteElement10CalcVShapeERNS_21ElementTransformationERNS_11DenseMatrixE
FN:1161,_ZNK4mfem19RT0PyrFiniteElement10CalcVShapeERNS_21ElementTransformationERNS_11DenseMatrixE
FNDA:0,_ZNK4mfem19RT0HexFiniteElement10CalcVShapeERNS_21ElementTransformationERNS_11DenseMatrixE
FNDA:0,_ZNK4mfem19RT0PyrFiniteElement10CalcVShapeERNS_21ElementTransformationERNS_11DenseMatrixE
FNDA:0,_ZNK4mfem19RT0TetFiniteElement10CalcVShapeERNS_21ElementTransformationERNS_11DenseMatrixE
FNDA:0,_ZNK4mfem19RT0WdgFiniteElement10CalcVShapeERNS_21ElementTransformationERNS_11DenseMatrixE
FNDA:0,_ZNK4mfem19RT1HexFiniteElement10CalcVShapeERNS_21ElementTransformationERNS_11DenseMatrixE
FNDA:0,_ZNK4mfem20RT0QuadFiniteElement10CalcVShapeERNS_21ElementTransformationERNS_11DenseMatrixE
FNDA:0,_ZNK4mfem20RT1QuadFiniteElement10CalcVShapeERNS_21ElementTransformationERNS_11DenseMatrixE
FNDA:0,_ZNK4mfem20RT2QuadFiniteElement10CalcVShapeERNS_21ElementTransformationERNS_11DenseMatrixE
FNDA:0,_ZNK4mfem24Nedelec1HexFiniteElement10CalcVShapeERNS_21ElementTransformationERNS_11DenseMatrixE
FNDA:0,_ZNK4mfem24Nedelec1PyrFiniteElement10CalcVShapeERNS_21ElementTransformationERNS_11DenseMatrixE
FNDA:0,_ZNK4mfem24Nedelec1TetFiniteElement10CalcVShapeERNS_21ElementTransformationERNS_11DenseMatrixE
FNDA:0,_ZNK4mfem24Nedelec1WdgFiniteElement10CalcVShapeERNS_21ElementTransformationERNS_11DenseMatrixE
FNDA:0,_ZNK4mfem24RT0TriangleFiniteElement10CalcVShapeERNS_21ElementTransformationERNS_11DenseMatrixE
FNDA:0,_ZNK4mfem24RT1TriangleFiniteElement10CalcVShapeERNS_21ElementTransformationERNS_11DenseMatrixE
FNDA:0,_ZNK4mfem24RT2TriangleFiniteElement10CalcVShapeERNS_21ElementTransformationERNS_11DenseMatrixE
FNF:15
FNH:0
DA:23,0
DA:36,0
DA:56,0
DA:78,0
DA:205,0
DA:298,0
DA:389,0
DA:431,0
DA:503,0
DA:505,0
DA:532,0
DA:534,0
DA:561,0
DA:563,0
DA:590,0
DA:592,0
DA:618,0
DA:620,0
DA:641,0
DA:643,0
DA:920,0
DA:922,0
DA:948,0
DA:950,0
DA:976,0
DA:978,0
DA:1004,0
DA:1006,0
DA:1034,0
DA:1036,0
DA:1064,0
DA:1066,0
DA:1094,0
DA:1096,0
DA:1124,0
DA:1126,0
DA:1161,0
DA:1163,0
LF:38
LH:0
end_of_record
TN:
SF:/root/mfem/fem/fe/fe_h1.hpp
FNF:0
FNH:0
LF:0
LH:0
end_of_record
TN:
SF:/root/mfem/fem/fe/fe_l2.hpp
FN:54,_ZNK4mfem23L2_QuadrilateralElement11ProjectCurlERKNS_13FiniteElementERNS_21ElementTransformationERNS_11DenseMatrixE
FN:98,_ZNK4mfem18L2_TriangleElement11ProjectCurlERKNS_13FiniteElementERNS_21ElementTransformationERNS_11DenseMatrixE
FNDA:0,_ZNK4mfem18L2_TriangleElement11ProjectCurlERKNS_13FiniteElementERNS_21ElementTransformationERNS_11DenseMatrixE
FNDA:0,_ZNK4mfem23L2_QuadrilateralElement11ProjectCurlERKNS_13FiniteElementERNS_21ElementTransformationERNS_11DenseMatrixE
FNF:2
FNH:0
DA:54,0
DA:57,0
DA:98,0
DA:101,0
LF:4
LH:0
end_of_record
TN:
SF:/root/mfem/fem/fe/fe_nd.hpp
FN:42,_ZNK4mfem20ND_HexahedronElement10CalcVShapeERNS_21ElementTransformationERNS_11DenseMatrixE
FN:64,_ZNK4mfem20ND_HexahedronElement7ProjectERNS_17VectorCoefficientERNS_21ElementTransformationERNS_6VectorE
FN:89,_ZNK4mfem20ND_HexahedronElement11ProjectCurlERKNS_13FiniteElementERNS_21ElementTransformationERNS_11DenseMatrixE
FN:121,_ZNK4mfem23ND_QuadrilateralElement10CalcVShapeERNS_21ElementTransformationERNS_11DenseMatrixE
FN:137,_ZNK4mfem23ND_QuadrilateralElement7ProjectERNS_17VectorCoefficientERNS_21ElementTransformationERNS_6VectorE
FN:183,_ZNK4mfem21ND_TetrahedronElement10CalcVShapeERNS_21ElementTransformationERNS_11DenseMatrixE
FN:199,_ZNK4mfem21ND_TetrahedronElement7ProjectERNS_17VectorCoefficientERNS_21ElementTransformationERNS_6VectorE
FN:217,_ZNK4mfem21ND_TetrahedronElement11ProjectCurlERKNS_13FiniteElementERNS_21ElementTransformationERNS_11DenseMatrixE
FN:242,_ZNK4mfem18ND_TriangleElement10CalcVShapeERNS_21ElementTransformationERNS_11DenseMatrixE
FN:258,_ZNK4mfem18ND_TriangleElement7ProjectERNS_17VectorCoefficientERNS_21ElementTransformationERNS_6VectorE
FN:289,_ZNK4mfem17ND_SegmentElement9CalcShapeERKNS_16IntegrationPointERNS_6VectorE
FN:293,_ZNK4mfem17ND_SegmentElement10CalcVShapeERNS_21ElementTransformationERNS_11DenseMatrixE
FN:309,_ZNK4mfem17ND_SegmentElement7ProjectERNS_17VectorCoefficientERNS_21ElementTransformationERNS_6VectorE
FN:350,_ZNK4mfem15ND_WedgeElement10CalcVShapeERNS_21ElementTransformationERNS_11DenseMatrixE
FN:370,_ZNK4mfem15ND_WedgeElement7ProjectERNS_17VectorCoefficientERNS_21ElementTransformationERNS_6VectorE
FN:388,_ZNK4mfem15ND_WedgeElement11ProjectCurlERKNS_13FiniteElementERNS_21ElementTransformationERNS_11DenseMatrixE
FNDA:0,_ZNK4mfem15ND_WedgeElement10CalcVShapeERNS_21ElementTransformationERNS_11DenseMatrixE
FNDA:0,_ZNK4mfem15ND_WedgeElement11ProjectCurlERKNS_13FiniteElementERNS_21ElementTransformationERNS_11DenseMatrixE
FNDA:0,_ZNK4mfem15ND_WedgeElement7ProjectERNS_17VectorCoefficientERNS_21ElementTransformationERNS_6VectorE
FNDA:0,_ZNK4mfem17ND_SegmentElement10CalcVShapeERNS_21ElementTransformationERNS_11DenseMatrixE
FNDA:0,_ZNK4mfem17ND_SegmentElement7ProjectERNS_17VectorCoefficientERNS_21ElementTransformationERNS_6VectorE
FNDA:0,_ZNK4mfem17ND_SegmentElement9CalcShapeERKNS_16IntegrationPointERNS_6VectorE
FNDA:0,_ZNK4mfem18ND_TriangleElement10CalcVShapeERNS_21ElementTransformationERNS_11DenseMatrixE
FNDA:0,_ZNK4mfem18ND_TriangleElement7ProjectERNS_17VectorCoefficientERNS_21ElementTransformationERNS_6VectorE
FNDA:0,_ZNK4mfem20ND_HexahedronElement10CalcVShapeERNS_21ElementTransformationERNS_11DenseMatrixE
FNDA:0,_ZNK4mfem20ND_HexahedronElement11ProjectCurlERKNS_13FiniteElementERNS_21ElementTransformationERNS_11DenseMatrixE
FNDA:0,_ZNK4mfem20ND_HexahedronElement7ProjectERNS_17VectorCoefficientERNS_21ElementTransformationERNS_6VectorE
FNDA:0,_ZNK4mfem21ND_TetrahedronElement10CalcVShapeERNS_21ElementTransformationERNS_11DenseMatrixE
FNDA:0,_ZNK4mfem21ND_TetrahedronElement11ProjectCurlERKNS_13FiniteElementERNS_21ElementTransformationERNS_11DenseMatrixE
FNDA:0,_ZNK4mfem21ND_TetrahedronElement7ProjectERNS_17VectorCoefficientERNS_21ElementTransformationERNS_6VectorE
FNDA:0,_ZNK4mfem23ND_QuadrilateralElement10CalcVShapeERNS_21ElementTransformationERNS_11DenseMatrixE
FNDA:0,_ZNK4mfem23ND_QuadrilateralElement7ProjectERNS_17VectorCoefficientERNS_21ElementTransformationERNS_6VectorE
FNF:16
FNH:0
DA:42,0
DA:44,0
DA:64,0
DA:67,0
DA:68,0
DA:69,0
DA:89,0
DA:92,0
DA:121,0
DA:123,0
DA:137,0
DA:140,0
DA:141,0
DA:142,0
DA:183,0
DA:185,0
DA:199,0
DA:201,0
DA:217,0
DA:220,0
DA:242,0
DA:244,0
DA:258,0
DA:260,0
DA:279,0
DA:289,0
DA:290,0
DA:293,0
DA:295,0
DA:309,0
DA:311,0
DA:350,0
DA:352,0
DA:370,0
DA:372,0
DA:388,0
DA:391,0
LF:37
LH:0
end_of_record
TN:
SF:/root/mfem/fem/fe/fe_pos.hpp
FNF:0
FNH:0
LF:0
LH:0
end_of_record
TN:
SF:/root/mfem/fem/fe/fe_rt.hpp
FN:43,_ZNK4mfem23RT_QuadrilateralElement10CalcVShapeERNS_21ElementTransformationERNS_11DenseMatrixE
FN:59,_ZNK4mfem23RT_QuadrilateralElement7ProjectERNS_17VectorCoefficientERNS_21ElementTransformationERNS_6VectorE
FN:80,_ZNK4mfem23RT_QuadrilateralElement11ProjectCurlERKNS_13FiniteElementERNS_21ElementTransformationERNS_11DenseMatrixE
FN:112,_ZNK4mfem20RT_HexahedronElement10CalcVShapeERNS_21ElementTransformationERNS_11DenseMatrixE
FN:128,_ZNK4mfem20RT_HexahedronElement7ProjectERNS_17VectorCoefficientERNS_21ElementTransformationERNS_6VectorE
FN:143,_ZNK4mfem20RT_HexahedronElement11ProjectCurlERKNS_13FiniteElementERNS_21ElementTransformationERNS_11DenseMatrixE
FN:174,_ZNK4mfem18RT_TriangleElement10CalcVShapeERNS_21ElementTransformationERNS_11DenseMatrixE
FN:190,_ZNK4mfem18RT_TriangleElement7ProjectERNS_17VectorCoefficientERNS_21ElementTransformationERNS_6VectorE
FN:208,_ZNK4mfem18RT_TriangleElement11ProjectCurlERKNS_13FiniteElementERNS_21ElementTransformationERNS_11DenseMatrixE
FN:234,_ZNK4mfem21RT_TetrahedronElement10CalcVShapeERNS_21ElementTransformationERNS_11DenseMatrixE
FN:250,_ZNK4mfem21RT_TetrahedronElement7ProjectERNS_17VectorCoefficientERNS_21ElementTransformationERNS_6VectorE
FN:262,_ZNK4mfem21RT_TetrahedronElement11ProjectCurlERKNS_13FiniteElementERNS_21ElementTransformationERNS_11DenseMatrixE
FN:294,_ZNK4mfem15RT_WedgeElement10CalcVShapeERNS_21ElementTransformationERNS_11DenseMatrixE
FN:310,_ZNK4mfem15RT_WedgeElement7ProjectERNS_17VectorCoefficientERNS_21ElementTransformationERNS_6VectorE
FN:319,_ZNK4mfem15RT_WedgeElement11ProjectCurlERKNS_13FiniteElementERNS_21ElementTransformationERNS_11DenseMatrixE
FNDA:0,_ZNK4mfem15RT_WedgeElement10CalcVShapeERNS_21ElementTransformationERNS_11DenseMatrixE
FNDA:0,_ZNK4mfem15RT_WedgeElement11ProjectCurlERKNS_13FiniteElementERNS_21ElementTransformationERNS_11DenseMatrixE
FNDA:0,_ZNK4mfem15RT_WedgeElement7ProjectERNS_17VectorCoefficientERNS_21ElementTransformationERNS_6VectorE
FNDA:0,_ZNK4mfem18RT_TriangleElement10CalcVShapeERNS_21ElementTransformationERNS_11DenseMatrixE
FNDA:0,_ZNK4mfem18RT_TriangleElement11ProjectCurlERKNS_13FiniteElementERNS_21ElementTransformationERNS_11DenseMatrixE
FNDA:0,_ZNK4mfem18RT_TriangleElement7ProjectERNS_17VectorCoefficientERNS_21ElementTransformationERNS_6VectorE
FNDA:0,_ZNK4mfem20RT_HexahedronElement10CalcVShapeERNS_21ElementTransformationERNS_11DenseMatrixE
FNDA:0,_ZNK4mfem20RT_HexahedronElement11ProjectCurlERKNS_13FiniteElementERNS_21ElementTransformationERNS_11DenseMatrixE
FNDA:0,_ZNK4mfem20RT_HexahedronElement7ProjectERNS_17VectorCoefficientERNS_21ElementTransformationERNS_6VectorE
FNDA:0,_ZNK4mfem21RT_TetrahedronElement10CalcVShapeERNS_21ElementTransformationERNS_11DenseMatrixE
FNDA:0,_ZNK4mfem21RT_TetrahedronElement11ProjectCurlERKNS_13FiniteElementERNS_21ElementTransformationERNS_11DenseMatrixE
FNDA:0,_ZNK4mfem21RT_TetrahedronElement7ProjectERNS_17VectorCoefficientERNS_21ElementTransformationERNS_6VectorE
FNDA:0,_ZNK4mfem23RT_QuadrilateralElement10CalcVShapeERNS_21ElementTransformationERNS_11DenseMatrixE
FNDA:0,_ZNK4mfem23RT_QuadrilateralElement11ProjectCurlERKNS_13FiniteElementERNS_21ElementTransformationERNS_11DenseMatrixE
FNDA:0,_ZNK4mfem23RT_QuadrilateralElement7ProjectERNS_17VectorCoefficientERNS_21ElementTransformationERNS_6VectorE
FNF:15
FNH:0
DA:43,0
DA:45,0
DA:59,0
DA:62,0
DA:63,0
DA:64,0
DA:80,0
DA:83,0
DA:112,0
DA:114,0
DA:128,0
DA:131,0
DA:132,0
DA:133,0
DA:143,0
DA:146,0
DA:174,0
DA:176,0
DA:190,0
DA:192,0
DA:208,0
DA:211,0
DA:234,0
DA:236,0
DA:250,0
DA:252,0
DA:262,0
DA:265,0
DA:294,0
DA:296,0
DA:310,0
DA:312,0
DA:319,0
DA:322,0
LF:34
LH:0
end_of_record
TN:
SF:/root/mfem/fem/fe_coll.hpp
FN:67,_ZNK4mfem23FiniteElementCollection29TraceFiniteElementForGeometryENS_8Geometry4TypeE
FN:232,_ZNK4mfem15H1_FECollection14DofForGeometryENS_8Geometry4TypeE
FN:237,_ZNK4mfem15H1_FECollection4NameEv
FN:238,_ZNK4mfem15H1_FECollection11GetContTypeEv
FN:248,_ZNK4mfem15H1_FECollection5CloneEi
FN:315,_ZNK4mfem15L2_FECollection4NameEv
FN:529,_ZN4mfem18LinearFECollectionC2Ev
FN:539,_ZNK4mfem18LinearFECollection4NameEv
FN:1115,_ZNK4mfem18Local_FECollection24FiniteElementForGeometryENS_8Geometry4TypeE
FN:1118,_ZNK4mfem18Local_FECollection14DofForGeometryENS_8Geometry4TypeE
FN:1120,_ZNK4mfem18Local_FECollection22DofOrderForOrientationENS_8Geometry4TypeEi
FN:1123,_ZNK4mfem18Local_FECollection4NameEv
FN:1125,_ZN4mfem18Local_FECollectionD0Ev
FN:1125,_ZN4mfem18Local_FECollectionD2Ev
FN:1126,_ZNK4mfem18Local_FECollection11GetContTypeEv
FNDA:0,_ZN4mfem18LinearFECollectionC2Ev
FNDA:0,_ZN4mfem18Local_FECollectionD0Ev
FNDA:0,_ZN4mfem18Local_FECollectionD2Ev
FNDA:0,_ZNK4mfem15H1_FECollection11GetContTypeEv
FNDA:0,_ZNK4mfem15H1_FECollection14DofForGeometryENS_8Geometry4TypeE
FNDA:0,_ZNK4mfem15H1_FECollection4NameEv
FNDA:0,_ZNK4mfem15H1_FECollection5CloneEi
FNDA:0,_ZNK4mfem15L2_FECollection4NameEv
FNDA:0,_ZNK4mfem18LinearFECollection4NameEv
FNDA:0,_ZNK4mfem18Local_FECollection11GetContTypeEv
FNDA:0,_ZNK4mfem18Local_FECollection14DofForGeometryENS_8Geometry4TypeE
FNDA:0,_ZNK4mfem18Local_FECollection22DofOrderForOrientationENS_8Geometry4TypeEi
FNDA:0,_ZNK4mfem18Local_FECollection24FiniteElementForGeometryENS_8Geometry4TypeE
FNDA:0,_ZNK4mfem18Local_FECollection4NameEv
FNDA:0,_ZNK4mfem23FiniteElementCollection29TraceFiniteElementForGeometryENS_8Geometry4TypeE
FNF:15
FNH:0
DA:67,0
DA:70,0
DA:208,0
DA:232,0
DA:233,0
DA:237,0
DA:238,0
DA:248,0
DA:249,0
DA:315,0
DA:529,0
DA:539,0
DA:1115,0
DA:1117,0
DA:1118,0
DA:1119,0
DA:1120,0
DA:1122,0
DA:1123,0
DA:1125,0
DA:1126,0
LF:21
LH:0
end_of_record
TN:
SF:/root/mfem/fem/fespace.hpp
FN:415,_ZN4mfem18FiniteElementSpaceC2EPNS_4MeshEPKNS_23FiniteElementCollectionEii
FN:468,_ZNK4mfem18FiniteElementSpace21GetProlongationMatrixEv
FN:484,_ZNK4mfem18FiniteElementSpace20GetRestrictionMatrixEv
FN:563,_ZNK4mfem18FiniteElementSpace12GetTrueVSizeEv
FN:958,_ZN4mfem15QuadratureSpaceD0Ev
FN:958,_ZN4mfem15QuadratureSpaceD2Ev
FNDA:0,_ZN4mfem15QuadratureSpaceD0Ev
FNDA:0,_ZN4mfem15QuadratureSpaceD2Ev
FNDA:0,_ZN4mfem18FiniteElementSpaceC2EPNS_4MeshEPKNS_23FiniteElementCollectionEii
FNDA:0,_ZNK4mfem18FiniteElementSpace12GetTrueVSizeEv
FNDA:0,_ZNK4mfem18FiniteElementSpace20GetRestrictionMatrixEv
FNDA:0,_ZNK4mfem18FiniteElementSpace21GetProlongationMatrixEv
FNF:6
FNH:0
DA:415,0
DA:418,0
DA:430,0
DA:468,0
DA:469,0
DA:484,0
DA:485,0
DA:488,0
DA:489,0
DA:554,0
DA:557,0
DA:560,0
DA:563,0
DA:569,0
DA:596,0
DA:746,0
DA:750,0
DA:895,0
DA:912,0
DA:914,0
DA:915,0
DA:916,0
DA:917,0
DA:952,0
DA:953,0
DA:958,0
DA:961,0
DA:973,0
DA:974,0
LF:29
LH:0
end_of_record
TN:
SF:/root/mfem/fem/geom.hpp
FNF:0
FNH:0
DA:71,0
DA:72,0
DA:306,0
LF:3
LH:0
end_of_record
TN:
SF:/root/mfem/fem/gridfunc.hpp
FN:85,_ZN4mfem12GridFunctionC2EPNS_18FiniteElementSpaceE
FN:719,_ZN4mfem12GridFunctionD0Ev
FN:719,_ZN4mfem12GridFunctionD2Ev
FN:778,_ZN4mfem18QuadratureFunctionC2EPNS_15QuadratureSpaceEi
FN:794,_ZN4mfem18QuadratureFunctionD0Ev
FN:794,_ZN4mfem18QuadratureFunctionD2Ev
FN:951,_ZN4mfem18ExtrudeCoefficientD0Ev
FN:951,_ZN4mfem18ExtrudeCoefficientD2Ev
FNDA:0,_ZN4mfem12GridFunctionC2EPNS_18FiniteElementSpaceE
FNDA:0,_ZN4mfem12GridFunctionD0Ev
FNDA:0,_ZN4mfem12GridFunctionD2Ev
FNDA:0,_ZN4mfem18ExtrudeCoefficientD0Ev
FNDA:0,_ZN4mfem18ExtrudeCoefficientD2Ev
FNDA:0,_ZN4mfem18QuadratureFunctionC2EPNS_15QuadratureSpaceEi
FNDA:0,_ZN4mfem18QuadratureFunctionD0Ev
FNDA:0,_ZN4mfem18QuadratureFunctionD2Ev
FNF:8
FNH:0
DA:85,0
DA:86,0
DA:446,0
DA:448,0
DA:449,0
DA:478,0
DA:480,0
DA:651,0
DA:719,0
DA:778,0
DA:779,0
DA:780,0
DA:794,0
DA:824,0
DA:951,0
LF:15
LH:0
end_of_record
TN:
SF:/root/mfem/fem/intrules.hpp
FN:218,_ZN4mfem15IntegrationRuleC2Ei
FNDA:0,_ZN4mfem15IntegrationRuleC2Ei
FNF:1
FNH:0
DA:31,0
DA:33,0
DA:34,0
DA:70,0
DA:71,0
DA:80,0
DA:214,0
DA:215,0
DA:218,0
DA:219,0
DA:221,0
DA:223,0
DA:225,0
DA:247,0
DA:250,0
DA:253,0
DA:261,0
DA:372,0
LF:18
LH:0
end_of_record
TN:
SF:/root/mfem/fem/linearform.hpp
FN:77,_ZN4mfem10LinearFormC2EPNS_18FiniteElementSpaceE
FNDA:0,_ZN4mfem10LinearFormC2EPNS_18FiniteElementSpaceE
FNF:1
FNH:0
DA:77,0
DA:78,0
DA:214,0
LF:3
LH:0
end_of_record
TN:
SF:/root/mfem/fem/lininteg.hpp
FN:43,_ZN4mfem20LinearFormIntegrator10SetIntRuleEPKNS_15IntegrationRuleE
FN:104,_ZN4mfem18DomainLFIntegratorC2ERNS_11CoefficientEii
FN:223,_ZN4mfem24VectorDomainLFIntegratorC2ERNS_17VectorCoefficientE
FN:274,_ZN4mfem26VectorFEDomainLFIntegratorC2ERNS_17VectorCoefficientE
FNDA:0,_ZN4mfem18DomainLFIntegratorC2ERNS_11CoefficientEii
FNDA:0,_ZN4mfem20LinearFormIntegrator10SetIntRuleEPKNS_15IntegrationRuleE
FNDA:0,_ZN4mfem24VectorDomainLFIntegratorC2ERNS_17VectorCoefficientE
FNDA:0,_ZN4mfem26VectorFEDomainLFIntegratorC2ERNS_17VectorCoefficientE
FNF:4
FNH:0
DA:27,0
DA:43,0
DA:59,0
DA:60,0
DA:61,0
DA:62,0
DA:66,0
DA:68,0
DA:70,0
DA:104,0
DA:107,0
DA:162,0
DA:163,0
DA:185,0
DA:186,0
DA:223,0
DA:224,0
DA:274,0
DA:275,0
DA:371,0
DA:372,0
DA:389,0
DA:391,0
DA:529,0
DA:531,0
DA:533,0
DA:560,0
DA:562,0
DA:564,0
LF:29
LH:0
end_of_record
TN:
SF:/root/mfem/fem/nonlinearform.hpp
FN:73,_ZN4mfem13NonlinearFormC2EPNS_18FiniteElementSpaceE
FN:209,_ZNK4mfem13NonlinearForm15GetProlongationEv
FN:211,_ZNK4mfem13NonlinearForm14GetRestrictionEv
FNDA:0,_ZN4mfem13NonlinearFormC2EPNS_18FiniteElementSpaceE
FNDA:0,_ZNK4mfem13NonlinearForm14GetRestrictionEv
FNDA:0,_ZNK4mfem13NonlinearForm15GetProlongationEv
FNF:3
FNH:0
DA:73,0
DA:74,0
DA:76,0
DA:77,0
DA:78,0
DA:110,0
DA:111,0
DA:209,0
DA:211,0
DA:212,0
LF:10
LH:0
end_of_record
TN:
SF:/root/mfem/fem/nonlinearform_ext.hpp
FN:81,_ZNK4mfem24PANonlinearFormExtension8Gradient15GetProlongationEv
FNDA:0,_ZNK4mfem24PANonlinearFormExtension8Gradient15GetProlongationEv
FNF:1
FNH:0
DA:81,0
DA:83,0
LF:2
LH:0
end_of_record
TN:
SF:/root/mfem/fem/nonlininteg.hpp
FN:43,_ZN4mfem23NonlinearFormIntegrator10SetIntRuleEPKNS_15IntegrationRuleE
FN:132,_ZNK4mfem23NonlinearFormIntegrator12SupportsCeedEv
FN:383,_ZN4mfem29VectorConvectionNLFIntegratorC2Ev
FNDA:0,_ZN4mfem23NonlinearFormIntegrator10SetIntRuleEPKNS_15IntegrationRuleE
FNDA:0,_ZN4mfem29VectorConvectionNLFIntegratorC2Ev
FNDA:0,_ZNK4mfem23NonlinearFormIntegrator12SupportsCeedEv
FNF:3
FNH:0
DA:37,0
DA:38,0
DA:43,0
DA:132,0
DA:147,0
DA:148,0
DA:149,0
DA:383,0
LF:8
LH:0
end_of_record
TN:
SF:/root/mfem/fem/quadinterpolator.hpp
FNF:0
FNH:0
DA:79,0
DA:80,0
DA:85,0
DA:99,0
LF:4
LH:0
end_of_record
TN:
SF:/root/mfem/fem/restriction.hpp
FN:161,_ZNK4mfem15FaceRestriction13MultTransposeERKNS_6VectorERS1_
FNDA:0,_ZNK4mfem15FaceRestriction13MultTransposeERKNS_6VectorERS1_
FNF:1
FNH:0
DA:161,0
DA:163,0
DA:164,0
DA:165,0
LF:4
LH:0
end_of_record
TN:
SF:/root/mfem/fem/tmop_tools.hpp
FN:187,_ZNK4mfem16TMOPNewtonSolver4MultERKNS_6VectorERS1_
FNDA:0,_ZNK4mfem16TMOPNewtonSolver4MultERKNS_6VectorERS1_
FNF:1
FNH:0
DA:187,0
DA:189,0
DA:191,0
DA:193,0
DA:195,0
DA:197,0
DA:198,0
LF:7
LH:0
end_of_record
TN:
SF:/root/mfem/fem/transfer.hpp
FN:322,_ZNK4mfem24L2ProjectionGridTransfer14L2Prolongation4MultERKNS_6VectorERS2_
FN:326,_ZNK4mfem24L2ProjectionGridTransfer14L2Prolongation13MultTransposeERKNS_6VectorERS2_
FN:330,_ZN4mfem24L2ProjectionGridTransfer14L2ProlongationD0Ev
FN:330,_ZN4mfem24L2ProjectionGridTransfer14L2ProlongationD2Ev
FNDA:0,_ZN4mfem24L2ProjectionGridTransfer14L2ProlongationD0Ev
FNDA:0,_ZN4mfem24L2ProjectionGridTransfer14L2ProlongationD2Ev
FNDA:0,_ZNK4mfem24L2ProjectionGridTransfer14L2Prolongation13MultTransposeERKNS_6VectorERS2_
FNDA:0,_ZNK4mfem24L2ProjectionGridTransfer14L2Prolongation4MultERKNS_6VectorERS2_
FNF:4
FNH:0
DA:322,0
DA:324,0
DA:325,0
DA:326,0
DA:328,0
DA:329,0
DA:330,0
LF:7
LH:0
end_of_record
TN:
SF:/root/mfem/general/array.hpp
FN:636,_ZN4mfem5ArrayINS_16IntegrationPointEEC2ERKS2_
FN:636,_ZN4mfem5ArrayIdEC2ERKS1_
FN:653,_ZN4mfem5ArrayIiEC2IdLi6EEERAT0__KT_
FN:659,_ZN4mfem5ArrayINS_10RefinementEE8GrowSizeEi
FN:659,_ZN4mfem5ArrayINS_16IntegrationPointEE8GrowSizeEi
FN:659,_ZN4mfem5ArrayIPNS_11CoefficientEE8GrowSizeEi
FN:659,_ZN4mfem5ArrayIPNS_17MatrixCoefficientEE8GrowSizeEi
FN:659,_ZN4mfem5ArrayIPNS_17VectorCoefficientEE8GrowSizeEi
FN:659,_ZN4mfem5ArrayIPNS_22BilinearFormIntegratorEE8GrowSizeEi
FN:659,_ZN4mfem5ArrayIPNS_23NonlinearFormIntegratorEE8GrowSizeEi
FN:659,_ZN4mfem5ArrayIbE8GrowSizeEi
FN:659,_ZN4mfem5ArrayIiE8GrowSizeEi
FN:689,_ZN4mfem5ArrayIbE7SetSizeEiRKb
FN:707,_ZN4mfem5ArrayIiE7SetSizeEiNS_10MemoryTypeE
FN:750,_ZN4mfem5ArrayINS_10RefinementEE6AppendERKS1_
FN:750,_ZN4mfem5ArrayIPNS_11CoefficientEE6AppendERKS2_
FN:750,_ZN4mfem5ArrayIPNS_17MatrixCoefficientEE6AppendERKS2_
FN:750,_ZN4mfem5ArrayIPNS_17VectorCoefficientEE6AppendERKS2_
FN:750,_ZN4mfem5ArrayIPNS_22BilinearFormIntegratorEE6AppendERKS2_
FN:750,_ZN4mfem5ArrayIPNS_23NonlinearFormIntegratorEE6AppendERKS2_
FN:750,_ZN4mfem5ArrayIiE6AppendERKi
FN:855,_ZNK4mfem5ArrayIiE4CopyERS1_
FNDA:0,_ZN4mfem5ArrayINS_10RefinementEE6AppendERKS1_
FNDA:0,_ZN4mfem5ArrayINS_10RefinementEE8GrowSizeEi
FNDA:0,_ZN4mfem5ArrayINS_16IntegrationPointEE8GrowSizeEi
FNDA:0,_ZN4mfem5ArrayINS_16IntegrationPointEEC2ERKS2_
FNDA:0,_ZN4mfem5ArrayIPNS_11CoefficientEE6AppendERKS2_
FNDA:0,_ZN4mfem5ArrayIPNS_11CoefficientEE8GrowSizeEi
FNDA:0,_ZN4mfem5ArrayIPNS_17MatrixCoefficientEE6AppendERKS2_
FNDA:0,_ZN4mfem5ArrayIPNS_17MatrixCoefficientEE8GrowSizeEi
FNDA:0,_ZN4mfem5ArrayIPNS_17VectorCoefficientEE6AppendERKS2_
FNDA:0,_ZN4mfem5ArrayIPNS_17VectorCoefficientEE8GrowSizeEi
FNDA:0,_ZN4mfem5ArrayIPNS_22BilinearFormIntegratorEE6AppendERKS2_
FNDA:0,_ZN4mfem5ArrayIPNS_22BilinearFormIntegratorEE8GrowSizeEi
FNDA:0,_ZN4mfem5ArrayIPNS_23NonlinearFormIntegratorEE6AppendERKS2_
FNDA:0,_ZN4mfem5ArrayIPNS_23NonlinearFormIntegratorEE8GrowSizeEi
FNDA:0,_ZN4mfem5ArrayIbE7SetSizeEiRKb
FNDA:0,_ZN4mfem5ArrayIbE8GrowSizeEi
FNDA:0,_ZN4mfem5ArrayIdEC2ERKS1_
FNDA:0,_ZN4mfem5ArrayIiE6AppendERKi
FNDA:0,_ZN4mfem5ArrayIiE7SetSizeEiNS_10MemoryTypeE
FNDA:0,_ZN4mfem5ArrayIiE8GrowSizeEi
FNDA:0,_ZN4mfem5ArrayIiEC2IdLi6EEERAT0__KT_
FNDA:0,_ZNK4mfem5ArrayIiE4CopyERS1_
FNF:22
FNH:0
DA:55,0
DA:64,0
DA:70,0
DA:71,0
DA:80,0
DA:81,0
DA:96,0
DA:99,0
DA:106,0
DA:112,0
DA:138,0
DA:153,0
DA:308,0
DA:309,0
DA:347,0
DA:636,0
DA:637,0
DA:639,0
DA:640,0
DA:641,0
DA:642,0
DA:653,0
DA:655,0
DA:656,0
DA:659,0
DA:661,0
DA:662,0
DA:663,0
DA:664,0
DA:665,0
DA:666,0
DA:667,0
DA:678,0
DA:681,0
DA:683,0
DA:685,0
DA:689,0
DA:692,0
DA:694,0
DA:696,0
DA:698,0
DA:700,0
DA:703,0
DA:704,0
DA:707,0
DA:710,0
DA:712,0
DA:714,0
DA:715,0
DA:718,0
DA:719,0
DA:720,0
DA:722,0
DA:723,0
DA:727,0
DA:728,0
DA:730,0
DA:734,0
DA:738,0
DA:742,0
DA:746,0
DA:750,0
DA:752,0
DA:753,0
DA:754,0
DA:845,0
DA:847,0
DA:848,0
DA:849,0
DA:850,0
DA:851,0
DA:855,0
DA:857,0
DA:858,0
DA:859,0
DA:860,0
DA:892,0
DA:894,0
LF:78
LH:0
end_of_record
TN:
SF:/root/mfem/general/device.hpp
FNF:0
FNH:0
DA:150,0
DA:264,0
DA:268,0
DA:281,0
DA:301,0
DA:303,0
DA:305,0
DA:309,0
DA:310,0
DA:319,0
DA:321,0
DA:336,0
DA:338,0
DA:353,0
DA:355,0
LF:15
LH:0
end_of_record
TN:
SF:/root/mfem/general/forall.hpp
FNF:0
FNH:0
LF:0
LH:0
end_of_record
TN:
SF:/root/mfem/general/mem_alloc.hpp
FN:93,_ZN4mfem5StackIPNS_11TetrahedronELi1024EE5ClearEv
FN:190,_ZN4mfem8MemAllocINS_11TetrahedronELi1024EE5ClearEv
FNDA:0,_ZN4mfem5StackIPNS_11TetrahedronELi1024EE5ClearEv
FNDA:0,_ZN4mfem8MemAllocINS_11TetrahedronELi1024EE5ClearEv
FNF:2
FNH:0
DA:37,0
DA:52,0
DA:93,0
DA:96,0
DA:98,0
DA:99,0
DA:101,0
DA:103,0
DA:104,0
DA:106,0
DA:107,0
DA:108,0
DA:141,0
DA:156,0
DA:162,0
DA:190,0
DA:193,0
DA:195,0
DA:196,0
DA:197,0
DA:199,0
DA:200,0
DA:201,0
LF:23
LH:0
end_of_record
TN:
SF:/root/mfem/general/mem_manager.hpp
FN:830,_ZN4mfem6MemoryINS_16IntegrationPointEE3NewEi
FN:830,_ZN4mfem6MemoryIdE3NewEi
FN:830,_ZN4mfem6MemoryIiE3NewEi
FN:840,_ZN4mfem6MemoryINS_10RefinementEE3NewEiNS_10MemoryTypeE
FN:840,_ZN4mfem6MemoryINS_16IntegrationPointEE3NewEiNS_10MemoryTypeE
FN:840,_ZN4mfem6MemoryIPNS_11CoefficientEE3NewEiNS_10MemoryTypeE
FN:840,_ZN4mfem6MemoryIPNS_17MatrixCoefficientEE3NewEiNS_10MemoryTypeE
FN:840,_ZN4mfem6MemoryIPNS_17VectorCoefficientEE3NewEiNS_10MemoryTypeE
FN:840,_ZN4mfem6MemoryIPNS_22BilinearFormIntegratorEE3NewEiNS_10MemoryTypeE
FN:840,_ZN4mfem6MemoryIPNS_23NonlinearFormIntegratorEE3NewEiNS_10MemoryTypeE
FN:840,_ZN4mfem6MemoryIbE3NewEiNS_10MemoryTypeE
FN:840,_ZN4mfem6MemoryIdE3NewEiNS_10MemoryTypeE
FN:840,_ZN4mfem6MemoryIiE3NewEiNS_10MemoryTypeE
FN:863,_ZN4mfem6MemoryIdE4WrapEPdib
FN:863,_ZN4mfem6MemoryIiE4WrapEPiib
FN:924,_ZN4mfem6MemoryIdE9MakeAliasERKS1_ii
FN:979,_ZN4mfem6MemoryINS_10RefinementEE6DeleteEv
FN:979,_ZN4mfem6MemoryINS_16IntegrationPointEE6DeleteEv
FN:979,_ZN4mfem6MemoryINS_4Mesh10NCFaceInfoEE6DeleteEv
FN:979,_ZN4mfem6MemoryINS_4Mesh8FaceInfoEE6DeleteEv
FN:979,_ZN4mfem6MemoryINS_6TripleIiiiEEE6DeleteEv
FN:979,_ZN4mfem6MemoryINS_6VertexEE6DeleteEv
FN:979,_ZN4mfem6MemoryINS_8Geometry4TypeEE6DeleteEv
FN:979,_ZN4mfem6MemoryINS_9EmbeddingEE6DeleteEv
FN:979,_ZN4mfem6MemoryIPNS_11CoefficientEE6DeleteEv
FN:979,_ZN4mfem6MemoryIPNS_16GeometricFactorsEE6DeleteEv
FN:979,_ZN4mfem6MemoryIPNS_17DofTransformationEE6DeleteEv
FN:979,_ZN4mfem6MemoryIPNS_17MatrixCoefficientEE6DeleteEv
FN:979,_ZN4mfem6MemoryIPNS_17VectorCoefficientEE6DeleteEv
FN:979,_ZN4mfem6MemoryIPNS_20FaceGeometricFactorsEE6DeleteEv
FN:979,_ZN4mfem6MemoryIPNS_22BilinearFormIntegratorEE6DeleteEv
FN:979,_ZN4mfem6MemoryIPNS_22QuadratureInterpolatorEE6DeleteEv
FN:979,_ZN4mfem6MemoryIPNS_23NonlinearFormIntegratorEE6DeleteEv
FN:979,_ZN4mfem6MemoryIPNS_26FaceQuadratureInterpolatorEE6DeleteEv
FN:979,_ZN4mfem6MemoryIPNS_5ArrayIiEEE6DeleteEv
FN:979,_ZN4mfem6MemoryIPNS_6VectorEE6DeleteEv
FN:979,_ZN4mfem6MemoryIPNS_7ElementEE6DeleteEv
FN:979,_ZN4mfem6MemoryIbE6DeleteEv
FN:979,_ZN4mfem6MemoryIcE6DeleteEv
FN:979,_ZN4mfem6MemoryIdE6DeleteEv
FN:979,_ZN4mfem6MemoryIiE6DeleteEv
FN:1053,_ZN4mfem6MemoryIdE9ReadWriteENS_11MemoryClassEi
FN:1066,_ZNK4mfem6MemoryIdE4ReadENS_11MemoryClassEi
FN:1066,_ZNK4mfem6MemoryIiE4ReadENS_11MemoryClassEi
FN:1079,_ZN4mfem6MemoryIdE5WriteENS_11MemoryClassEi
FN:1117,_ZNK4mfem6MemoryINS_10RefinementEE13GetMemoryTypeEv
FN:1117,_ZNK4mfem6MemoryINS_16IntegrationPointEE13GetMemoryTypeEv
FN:1117,_ZNK4mfem6MemoryIPNS_11CoefficientEE13GetMemoryTypeEv
FN:1117,_ZNK4mfem6MemoryIPNS_17MatrixCoefficientEE13GetMemoryTypeEv
FN:1117,_ZNK4mfem6MemoryIPNS_17VectorCoefficientEE13GetMemoryTypeEv
FN:1117,_ZNK4mfem6MemoryIPNS_22BilinearFormIntegratorEE13GetMemoryTypeEv
FN:1117,_ZNK4mfem6MemoryIPNS_23NonlinearFormIntegratorEE13GetMemoryTypeEv
FN:1117,_ZNK4mfem6MemoryIbE13GetMemoryTypeEv
FN:1117,_ZNK4mfem6MemoryIdE13GetMemoryTypeEv
FN:1117,_ZNK4mfem6MemoryIiE13GetMemoryTypeEv
FN:1143,_ZN4mfem6MemoryINS_10RefinementEE8CopyFromERKS2_i
FN:1143,_ZN4mfem6MemoryINS_16IntegrationPointEE8CopyFromERKS2_i
FN:1143,_ZN4mfem6MemoryIPNS_11CoefficientEE8CopyFromERKS3_i
FN:1143,_ZN4mfem6MemoryIPNS_17MatrixCoefficientEE8CopyFromERKS3_i
FN:1143,_ZN4mfem6MemoryIPNS_17VectorCoefficientEE8CopyFromERKS3_i
FN:1143,_ZN4mfem6MemoryIPNS_22BilinearFormIntegratorEE8CopyFromERKS3_i
FN:1143,_ZN4mfem6MemoryIPNS_23NonlinearFormIntegratorEE8CopyFromERKS3_i
FN:1143,_ZN4mfem6MemoryIbE8CopyFromERKS1_i
FN:1143,_ZN4mfem6MemoryIdE8CopyFromERKS1_i
FN:1143,_ZN4mfem6MemoryIiE8CopyFromERKS1_i
FN:1183,_ZNK4mfem6MemoryIiE6CopyToERS1_i
FNDA:0,_ZN4mfem6MemoryINS_10RefinementEE3NewEiNS_10MemoryTypeE
FNDA:0,_ZN4mfem6MemoryINS_10RefinementEE6DeleteEv
FNDA:0,_ZN4mfem6MemoryINS_10RefinementEE8CopyFromERKS2_i
FNDA:0,_ZN4mfem6MemoryINS_16IntegrationPointEE3NewEi
FNDA:0,_ZN4mfem6MemoryINS_16IntegrationPointEE3NewEiNS_10MemoryTypeE
FNDA:0,_ZN4mfem6MemoryINS_16IntegrationPointEE6DeleteEv
FNDA:0,_ZN4mfem6MemoryINS_16IntegrationPointEE8CopyFromERKS2_i
FNDA:0,_ZN4mfem6MemoryINS_4Mesh10NCFaceInfoEE6DeleteEv
FNDA:0,_ZN4mfem6MemoryINS_4Mesh8FaceInfoEE6DeleteEv
FNDA:0,_ZN4mfem6MemoryINS_6TripleIiiiEEE6DeleteEv
FNDA:0,_ZN4mfem6MemoryINS_6VertexEE6DeleteEv
FNDA:0,_ZN4mfem6MemoryINS_8Geometry4TypeEE6DeleteEv
FNDA:0,_ZN4mfem6MemoryINS_9EmbeddingEE6DeleteEv
FNDA:0,_ZN4mfem6MemoryIPNS_11CoefficientEE3NewEiNS_10MemoryTypeE
FNDA:0,_ZN4mfem6MemoryIPNS_11CoefficientEE6DeleteEv
FNDA:0,_ZN4mfem6MemoryIPNS_11CoefficientEE8CopyFromERKS3_i
FNDA:0,_ZN4mfem6MemoryIPNS_16GeometricFactorsEE6DeleteEv
FNDA:0,_ZN4mfem6MemoryIPNS_17DofTransformationEE6DeleteEv
FNDA:0,_ZN4mfem6MemoryIPNS_17MatrixCoefficientEE3NewEiNS_10MemoryTypeE
FNDA:0,_ZN4mfem6MemoryIPNS_17MatrixCoefficientEE6DeleteEv
FNDA:0,_ZN4mfem6MemoryIPNS_17MatrixCoefficientEE8CopyFromERKS3_i
FNDA:0,_ZN4mfem6MemoryIPNS_17VectorCoefficientEE3NewEiNS_10MemoryTypeE
FNDA:0,_ZN4mfem6MemoryIPNS_17VectorCoefficientEE6DeleteEv
FNDA:0,_ZN4mfem6MemoryIPNS_17VectorCoefficientEE8CopyFromERKS3_i
FNDA:0,_ZN4mfem6MemoryIPNS_20FaceGeometricFactorsEE6DeleteEv
FNDA:0,_ZN4mfem6MemoryIPNS_22BilinearFormIntegratorEE3NewEiNS_10MemoryTypeE
FNDA:0,_ZN4mfem6MemoryIPNS_22BilinearFormIntegratorEE6DeleteEv
FNDA:0,_ZN4mfem6MemoryIPNS_22BilinearFormIntegratorEE8CopyFromERKS3_i
FNDA:0,_ZN4mfem6MemoryIPNS_22QuadratureInterpolatorEE6DeleteEv
FNDA:0,_ZN4mfem6MemoryIPNS_23NonlinearFormIntegratorEE3NewEiNS_10MemoryTypeE
FNDA:0,_ZN4mfem6MemoryIPNS_23NonlinearFormIntegratorEE6DeleteEv
FNDA:0,_ZN4mfem6MemoryIPNS_23NonlinearFormIntegratorEE8CopyFromERKS3_i
FNDA:0,_ZN4mfem6MemoryIPNS_26FaceQuadratureInterpolatorEE6DeleteEv
FNDA:0,_ZN4mfem6MemoryIPNS_5ArrayIiEEE6DeleteEv
FNDA:0,_ZN4mfem6MemoryIPNS_6VectorEE6DeleteEv
FNDA:0,_ZN4mfem6MemoryIPNS_7ElementEE6DeleteEv
FNDA:0,_ZN4mfem6MemoryIbE3NewEiNS_10MemoryTypeE
FNDA:0,_ZN4mfem6MemoryIbE6DeleteEv
FNDA:0,_ZN4mfem6MemoryIbE8CopyFromERKS1_i
FNDA:0,_ZN4mfem6MemoryIcE6DeleteEv
FNDA:0,_ZN4mfem6MemoryIdE3NewEi
FNDA:0,_ZN4mfem6MemoryIdE3NewEiNS_10MemoryTypeE
FNDA:0,_ZN4mfem6MemoryIdE4WrapEPdib
FNDA:0,_ZN4mfem6MemoryIdE5WriteENS_11MemoryClassEi
FNDA:0,_ZN4mfem6MemoryIdE6DeleteEv
FNDA:0,_ZN4mfem6MemoryIdE8CopyFromERKS1_i
FNDA:0,_ZN4mfem6MemoryIdE9MakeAliasERKS1_ii
FNDA:0,_ZN4mfem6MemoryIdE9ReadWriteENS_11MemoryClassEi
FNDA:0,_ZN4mfem6MemoryIiE3NewEi
FNDA:0,_ZN4mfem6MemoryIiE3NewEiNS_10MemoryTypeE
FNDA:0,_ZN4mfem6MemoryIiE4WrapEPiib
FNDA:0,_ZN4mfem6MemoryIiE6DeleteEv
FNDA:0,_ZNK4mfem6MemoryINS_10RefinementEE13GetMemoryTypeEv
FNDA:0,_ZNK4mfem6MemoryINS_16IntegrationPointEE13GetMemoryTypeEv
FNDA:0,_ZNK4mfem6MemoryIPNS_11CoefficientEE13GetMemoryTypeEv
FNDA:0,_ZNK4mfem6MemoryIPNS_17MatrixCoefficientEE13GetMemoryTypeEv
FNDA:0,_ZNK4mfem6MemoryIPNS_17VectorCoefficientEE13GetMemoryTypeEv
FNDA:0,_ZNK4mfem6MemoryIPNS_22BilinearFormIntegratorEE13GetMemoryTypeEv
FNDA:0,_ZNK4mfem6MemoryIPNS_23NonlinearFormIntegratorEE13GetMemoryTypeEv
FNDA:0,_ZNK4mfem6MemoryIbE13GetMemoryTypeEv
FNDA:0,_ZNK4mfem6MemoryIdE13GetMemoryTypeEv
FNDA:0,_ZNK4mfem6MemoryIdE4ReadENS_11MemoryClassEi
FNDA:0,_ZNK4mfem6MemoryIiE13GetMemoryTypeEv
FNDA:0,_ZNK4mfem6MemoryIiE4ReadENS_11MemoryClassEi
FNDA:0,_ZNK4mfem6MemoryIiE6CopyToERS1_i
FNDA:1,_ZN4mfem6MemoryIiE8CopyFromERKS1_i
FNF:66
FNH:1
DA:85,0
DA:88,0
DA:90,0
DA:180,0
DA:203,0
DA:240,0
DA:262,0
DA:265,0
DA:266,0
DA:269,0
DA:541,0
DA:546,0
DA:548,0
DA:748,0
DA:749,0
DA:788,0
DA:804,0
DA:805,0
DA:812,0
DA:814,0
DA:815,0
DA:816,0
DA:817,0
DA:821,0
DA:823,0
DA:825,0
DA:826,0
DA:830,0
DA:832,0
DA:833,0
DA:834,0
DA:835,0
DA:836,0
DA:837,0
DA:840,0
DA:842,0
DA:843,0
DA:844,0
DA:845,0
DA:846,0
DA:847,0
DA:848,0
DA:849,0
DA:863,0
DA:865,0
DA:866,0
DA:867,0
DA:868,0
DA:877,0
DA:879,0
DA:880,0
DA:882,0
DA:924,0
DA:931,0
DA:932,0
DA:933,0
DA:934,0
DA:936,0
DA:940,0
DA:949,0
DA:950,0
DA:951,0
DA:957,0
DA:958,0
DA:961,0
DA:962,0
DA:963,0
DA:979,0
DA:981,0
DA:982,0
DA:983,0
DA:985,0
DA:986,0
DA:988,0
DA:990,0
DA:991,0
DA:1004,0
DA:1008,0
DA:1012,0
DA:1015,0
DA:1019,0
DA:1025,0
DA:1029,0
DA:1032,0
DA:1053,0
DA:1055,0
DA:1056,0
DA:1058,0
DA:1059,0
DA:1060,0
DA:1062,0
DA:1066,0
DA:1068,0
DA:1069,0
DA:1071,0
DA:1072,0
DA:1073,0
DA:1075,0
DA:1079,0
DA:1081,0
DA:1082,0
DA:1084,0
DA:1085,0
DA:1086,0
DA:1088,0
DA:1092,0
DA:1094,0
DA:1099,0
DA:1101,0
DA:1102,0
DA:1117,0
DA:1119,0
DA:1120,0
DA:1143,1
DA:1145,1
DA:1146,1
DA:1148,1
DA:1152,0
DA:1158,0
DA:1160,1
DA:1183,0
DA:1185,0
DA:1186,0
DA:1187,0
LF:124
LH:5
end_of_record
TN:
SF:/root/mfem/general/table.hpp
FNF:0
FNH:0
DA:56,0
DA:108,0
DA:110,0
LF:3
LH:0
end_of_record
TN:
SF:/root/mfem/general/text.hpp
FN:62,_ZN4mfem6to_intERKNSt7__cxx1112basic_stringIcSt11char_traitsIcESaIcEEE
FNDA:0,_ZN4mfem6to_intERKNSt7__cxx1112basic_stringIcSt11char_traitsIcESaIcEEE
FNF:1
FNH:0
DA:62,0
DA:64,0
DA:65,0
DA:66,0
LF:4
LH:0
end_of_record
TN:
SF:/root/mfem/general/tinyxml2.h
FNF:0
FNH:0
DA:782,0
DA:783,0
DA:1269,0
DA:1270,0
DA:1892,0
DA:1893,0
LF:6
LH:0
end_of_record
TN:
SF:/root/mfem/general/zstr.hpp
FN:96,_ZNK14strict_fstream9Exception4whatEv
FNDA:0,_ZNK14strict_fstream9Exception4whatEv
FNF:1
FNH:0
DA:96,0
LF:1
LH:0
end_of_record
TN:
SF:/root/mfem/linalg/constraints.hpp
FN:61,_ZN4mfem17ConstrainedSolverD0Ev
FN:61,_ZN4mfem17ConstrainedSolverD2Ev
FNDA:0,_ZN4mfem17ConstrainedSolverD0Ev
FNDA:0,_ZN4mfem17ConstrainedSolverD2Ev
FNF:2
FNH:0
DA:61,0
DA:76,0
LF:2
LH:0
end_of_record
TN:
SF:/root/mfem/linalg/densemat.hpp
FN:64,_ZN4mfem11DenseMatrixC2ILi2ELi3EEERAT__AT0__Kd
FN:239,_ZNK4mfem11DenseMatrix5FNormEv
FN:758,_ZN4mfem11DenseTensorC2Eiii
FN:780,_ZN4mfem11DenseTensorC2ERKS0_
FN:797,_ZN4mfem11DenseTensor7SetSizeEiiiNS_10MemoryTypeE
FN:806,_ZN4mfem11DenseTensor15UseExternalDataEPdiii
FNDA:0,_ZN4mfem11DenseMatrixC2ILi2ELi3EEERAT__AT0__Kd
FNDA:0,_ZN4mfem11DenseTensor15UseExternalDataEPdiii
FNDA:0,_ZN4mfem11DenseTensor7SetSizeEiiiNS_10MemoryTypeE
FNDA:0,_ZN4mfem11DenseTensorC2ERKS0_
FNDA:0,_ZN4mfem11DenseTensorC2Eiii
FNDA:0,_ZNK4mfem11DenseMatrix5FNormEv
FNF:6
FNH:0
DA:58,0
DA:59,0
DA:64,0
DA:67,0
DA:69,0
DA:71,0
DA:74,0
DA:80,0
DA:82,0
DA:83,0
DA:105,0
DA:111,0
DA:112,0
DA:115,0
DA:182,0
DA:183,0
DA:239,0
DA:285,0
DA:286,0
DA:544,0
DA:753,0
DA:754,0
DA:755,0
DA:758,0
DA:759,0
DA:761,0
DA:762,0
DA:763,0
DA:780,0
DA:781,0
DA:783,0
DA:784,0
DA:786,0
DA:787,0
DA:789,0
DA:791,0
DA:792,0
DA:793,0
DA:795,0
DA:797,0
DA:799,0
DA:800,0
DA:801,0
DA:802,0
DA:803,0
DA:804,0
DA:806,0
DA:808,0
DA:809,0
DA:810,0
DA:811,0
DA:812,0
DA:829,0
DA:831,0
DA:832,0
DA:833,0
DA:834,0
DA:851,0
DA:880,0
DA:881,0
DA:898,0
DA:926,0
DA:928,0
DA:929,0
LF:64
LH:0
end_of_record
TN:
SF:/root/mfem/linalg/dtensor.hpp
FNF:0
FNH:0
DA:26,0
DA:31,0
DA:32,0
DA:42,0
DA:58,0
DA:60,0
DA:61,0
DA:71,0
DA:73,0
DA:94,0
DA:98,0
DA:99,0
DA:100,0
DA:119,0
DA:122,0
DA:136,0
DA:138,0
LF:17
LH:0
end_of_record
TN:
SF:/root/mfem/linalg/handle.hpp
FN:127,_ZN4mfem14OperatorHandle7SetTypeENS_8Operator4TypeE
FNDA:0,_ZN4mfem14OperatorHandle7SetTypeENS_8Operator4TypeE
FNF:1
FNH:0
DA:55,0
DA:56,0
DA:60,0
DA:61,0
DA:72,0
DA:82,0
DA:85,0
DA:88,0
DA:103,0
DA:115,0
DA:119,0
DA:121,0
DA:122,0
DA:123,0
DA:127,0
DA:129,0
DA:130,0
DA:131,0
LF:18
LH:0
end_of_record
TN:
SF:/root/mfem/linalg/matrix.hpp
FNF:0
FNH:0
DA:27,0
DA:33,0
DA:36,0
DA:62,0
DA:68,0
DA:69,0
DA:77,0
LF:7
LH:0
end_of_record
TN:
SF:/root/mfem/linalg/ode.hpp
FN:89,_ZN4mfem9ODESolver3RunERNS_6VectorERdS3_d
FN:95,_ZN4mfem9ODESolver15GetMaxStateSizeEv
FN:96,_ZN4mfem9ODESolver12GetStateSizeEv
FN:97,_ZN4mfem9ODESolver14GetStateVectorEi
FN:102,_ZN4mfem9ODESolver14GetStateVectorEiRNS_6VectorE
FN:106,_ZN4mfem9ODESolver14SetStateVectorEiRNS_6VectorE
FN:243,_ZN4mfem20AdamsBashforthSolver15GetMaxStateSizeEv
FN:244,_ZN4mfem20AdamsBashforthSolver12GetStateSizeEv
FN:249,_ZN4mfem20AdamsBashforthSolverD0Ev
FN:249,_ZN4mfem20AdamsBashforthSolverD2Ev
FN:324,_ZN4mfem18AdamsMoultonSolver15GetMaxStateSizeEv
FN:325,_ZN4mfem18AdamsMoultonSolver12GetStateSizeEv
FN:330,_ZN4mfem18AdamsMoultonSolverD0Ev
FN:330,_ZN4mfem18AdamsMoultonSolverD2Ev
FN:519,_ZN4mfem22GeneralizedAlphaSolverC2Ed
FN:525,_ZN4mfem22GeneralizedAlphaSolver15GetMaxStateSizeEv
FN:526,_ZN4mfem22GeneralizedAlphaSolver12GetStateSizeEv
FN:681,_ZN4mfem20SecondOrderODESolver3RunERNS_6VectorES2_RdS3_d
FN:687,_ZN4mfem20SecondOrderODESolver15GetMaxStateSizeEv
FN:688,_ZN4mfem20SecondOrderODESolver12GetStateSizeEv
FN:689,_ZN4mfem20SecondOrderODESolver14GetStateVectorEi
FN:694,_ZN4mfem20SecondOrderODESolver14GetStateVectorEiRNS_6VectorE
FN:698,_ZN4mfem20SecondOrderODESolver14SetStateVectorEiRNS_6VectorE
FN:759,_ZN4mfem23GeneralizedAlpha2SolverC2Ed
FN:776,_ZN4mfem23GeneralizedAlpha2Solver15GetMaxStateSizeEv
FN:777,_ZN4mfem23GeneralizedAlpha2Solver12GetStateSizeEv
FN:805,_ZN4mfem14HHTAlphaSolverC2Ed
FN:826,_ZN4mfem14WBZAlphaSolverC2Ed
FNDA:0,_ZN4mfem14HHTAlphaSolverC2Ed
FNDA:0,_ZN4mfem14WBZAlphaSolverC2Ed
FNDA:0,_ZN4mfem18AdamsMoultonSolver12GetStateSizeEv
FNDA:0,_ZN4mfem18AdamsMoultonSolver15GetMaxStateSizeEv
FNDA:0,_ZN4mfem18AdamsMoultonSolverD0Ev
FNDA:0,_ZN4mfem18AdamsMoultonSolverD2Ev
FNDA:0,_ZN4mfem20AdamsBashforthSolver12GetStateSizeEv
FNDA:0,_ZN4mfem20AdamsBashforthSolver15GetMaxStateSizeEv
FNDA:0,_ZN4mfem20AdamsBashforthSolverD0Ev
FNDA:0,_ZN4mfem20AdamsBashforthSolverD2Ev
FNDA:0,_ZN4mfem20SecondOrderODESolver12GetStateSizeEv
FNDA:0,_ZN4mfem20SecondOrderODESolver14GetStateVectorEi
FNDA:0,_ZN4mfem20SecondOrderODESolver14GetStateVectorEiRNS_6VectorE
FNDA:0,_ZN4mfem20SecondOrderODESolver14SetStateVectorEiRNS_6VectorE
FNDA:0,_ZN4mfem20SecondOrderODESolver15GetMaxStateSizeEv
FNDA:0,_ZN4mfem20SecondOrderODESolver3RunERNS_6VectorES2_RdS3_d
FNDA:0,_ZN4mfem22GeneralizedAlphaSolver12GetStateSizeEv
FNDA:0,_ZN4mfem22GeneralizedAlphaSolver15GetMaxStateSizeEv
FNDA:0,_ZN4mfem22GeneralizedAlphaSolverC2Ed
FNDA:0,_ZN4mfem23GeneralizedAlpha2Solver12GetStateSizeEv
FNDA:0,_ZN4mfem23GeneralizedAlpha2Solver15GetMaxStateSizeEv
FNDA:0,_ZN4mfem23GeneralizedAlpha2SolverC2Ed
FNDA:0,_ZN4mfem9ODESolver12GetStateSizeEv
FNDA:0,_ZN4mfem9ODESolver14GetStateVectorEi
FNDA:0,_ZN4mfem9ODESolver14GetStateVectorEiRNS_6VectorE
FNDA:0,_ZN4mfem9ODESolver14SetStateVectorEiRNS_6VectorE
FNDA:0,_ZN4mfem9ODESolver15GetMaxStateSizeEv
FNDA:0,_ZN4mfem9ODESolver3RunERNS_6VectorERdS3_d
FNF:28
FNH:0
DA:30,0
DA:89,0
DA:91,0
DA:92,0
DA:95,0
DA:96,0
DA:97,0
DA:99,0
DA:100,0
DA:102,0
DA:104,0
DA:105,0
DA:106,0
DA:108,0
DA:109,0
DA:111,0
DA:116,0
DA:140,0
DA:149,0
DA:162,0
DA:243,0
DA:244,0
DA:249,0
DA:250,0
DA:251,0
DA:252,0
DA:263,0
DA:273,0
DA:283,0
DA:293,0
DA:303,0
DA:324,0
DA:325,0
DA:330,0
DA:331,0
DA:332,0
DA:333,0
DA:343,0
DA:354,0
DA:364,0
DA:374,0
DA:384,0
DA:389,0
DA:402,0
DA:437,0
DA:451,0
DA:465,0
DA:479,0
DA:493,0
DA:519,0
DA:525,0
DA:526,0
DA:613,0
DA:681,0
DA:683,0
DA:684,0
DA:687,0
DA:688,0
DA:689,0
DA:691,0
DA:692,0
DA:694,0
DA:696,0
DA:697,0
DA:698,0
DA:700,0
DA:701,0
DA:718,0
DA:730,0
DA:736,0
DA:742,0
DA:759,0
DA:760,0
DA:761,0
DA:762,0
DA:764,0
DA:765,0
DA:766,0
DA:767,0
DA:768,0
DA:776,0
DA:777,0
DA:787,0
DA:788,0
DA:789,0
DA:790,0
DA:791,0
DA:792,0
DA:805,0
DA:806,0
DA:807,0
DA:808,0
DA:810,0
DA:811,0
DA:812,0
DA:813,0
DA:814,0
DA:826,0
DA:827,0
DA:828,0
DA:829,0
DA:831,0
DA:832,0
DA:833,0
DA:834,0
DA:835,0
LF:106
LH:0
end_of_record
TN:
SF:/root/mfem/linalg/operator.hpp
FN:86,_ZNK4mfem8Operator14GetMemoryClassEv
FN:93,_ZNK4mfem8Operator13MultTransposeERKNS_6VectorERS1_
FN:98,_ZNK4mfem8Operator11GetGradientERKNS_6VectorE
FN:107,_ZNK4mfem8Operator16AssembleDiagonalERNS_6VectorE
FN:115,_ZNK4mfem8Operator15GetProlongationEv
FN:118,_ZNK4mfem8Operator14GetRestrictionEv
FN:121,_ZNK4mfem8Operator21GetOutputProlongationEv
FN:129,_ZNK4mfem8Operator29GetOutputRestrictionTransposeEv
FN:132,_ZNK4mfem8Operator20GetOutputRestrictionEv
FN:326,_ZNK4mfem21TimeDependentOperator7GetTimeEv
FN:329,_ZN4mfem21TimeDependentOperator7SetTimeEd
FN:352,_ZN4mfem21TimeDependentOperator11SetEvalModeENS0_8EvalModeE
FN:468,_ZN4mfem21TimeDependentOperatorD0Ev
FN:468,_ZN4mfem21TimeDependentOperatorD2Ev
FN:646,_ZN4mfem32SecondOrderTimeDependentOperatorD0Ev
FN:646,_ZN4mfem32SecondOrderTimeDependentOperatorD2Ev
FN:681,_ZNK4mfem16IdentityOperator4MultERKNS_6VectorERS1_
FN:684,_ZNK4mfem16IdentityOperator13MultTransposeERKNS_6VectorERS1_
FN:707,_ZNK4mfem14ScaledOperator4MultERKNS_6VectorERS1_
FN:711,_ZNK4mfem14ScaledOperator13MultTransposeERKNS_6VectorERS1_
FN:733,_ZNK4mfem17TransposeOperator4MultERKNS_6VectorERS1_
FN:737,_ZNK4mfem17TransposeOperator13MultTransposeERKNS_6VectorERS1_
FN:752,_ZNK4mfem15ProductOperator4MultERKNS_6VectorERS1_
FN:755,_ZNK4mfem15ProductOperator13MultTransposeERKNS_6VectorERS1_
FN:780,_ZNK4mfem11RAPOperator4MultERKNS_6VectorERS1_
FN:801,_ZNK4mfem11RAPOperator13MultTransposeERKNS_6VectorERS1_
FN:822,_ZNK4mfem21TripleProductOperator4MultERKNS_6VectorERS1_
FN:825,_ZNK4mfem21TripleProductOperator13MultTransposeERKNS_6VectorERS1_
FN:895,_ZN4mfem19ConstrainedOperatorD0Ev
FN:895,_ZN4mfem19ConstrainedOperatorD2Ev
FN:948,_ZN4mfem30RectangularConstrainedOperatorD0Ev
FN:948,_ZN4mfem30RectangularConstrainedOperatorD2Ev
FNDA:0,_ZN4mfem19ConstrainedOperatorD0Ev
FNDA:0,_ZN4mfem19ConstrainedOperatorD2Ev
FNDA:0,_ZN4mfem21TimeDependentOperator11SetEvalModeENS0_8EvalModeE
FNDA:0,_ZN4mfem21TimeDependentOperator7SetTimeEd
FNDA:0,_ZN4mfem21TimeDependentOperatorD0Ev
FNDA:0,_ZN4mfem21TimeDependentOperatorD2Ev
FNDA:0,_ZN4mfem30RectangularConstrainedOperatorD0Ev
FNDA:0,_ZN4mfem30RectangularConstrainedOperatorD2Ev
FNDA:0,_ZN4mfem32SecondOrderTimeDependentOperatorD0Ev
FNDA:0,_ZN4mfem32SecondOrderTimeDependentOperatorD2Ev
FNDA:0,_ZNK4mfem11RAPOperator13MultTransposeERKNS_6VectorERS1_
FNDA:0,_ZNK4mfem11RAPOperator4MultERKNS_6VectorERS1_
FNDA:0,_ZNK4mfem14ScaledOperator13MultTransposeERKNS_6VectorERS1_
FNDA:0,_ZNK4mfem14ScaledOperator4MultERKNS_6VectorERS1_
FNDA:0,_ZNK4mfem15ProductOperator13MultTransposeERKNS_6VectorERS1_
FNDA:0,_ZNK4mfem15ProductOperator4MultERKNS_6VectorERS1_
FNDA:0,_ZNK4mfem16IdentityOperator13MultTransposeERKNS_6VectorERS1_
FNDA:0,_ZNK4mfem16IdentityOperator4MultERKNS_6VectorERS1_
FNDA:0,_ZNK4mfem17TransposeOperator13MultTransposeERKNS_6VectorERS1_
FNDA:0,_ZNK4mfem17TransposeOperator4MultERKNS_6VectorERS1_
FNDA:0,_ZNK4mfem21TimeDependentOperator7GetTimeEv
FNDA:0,_ZNK4mfem21TripleProductOperator13MultTransposeERKNS_6VectorERS1_
FNDA:0,_ZNK4mfem21TripleProductOperator4MultERKNS_6VectorERS1_
FNDA:0,_ZNK4mfem8Operator11GetGradientERKNS_6VectorE
FNDA:0,_ZNK4mfem8Operator13MultTransposeERKNS_6VectorERS1_
FNDA:0,_ZNK4mfem8Operator14GetMemoryClassEv
FNDA:0,_ZNK4mfem8Operator14GetRestrictionEv
FNDA:0,_ZNK4mfem8Operator15GetProlongationEv
FNDA:0,_ZNK4mfem8Operator16AssembleDiagonalERNS_6VectorE
FNDA:0,_ZNK4mfem8Operator20GetOutputRestrictionEv
FNDA:0,_ZNK4mfem8Operator21GetOutputProlongationEv
FNDA:0,_ZNK4mfem8Operator29GetOutputRestrictionTransposeEv
FNF:32
FNH:0
DA:24,0
DA:59,0
DA:63,0
DA:66,0
DA:69,0
DA:72,0
DA:86,0
DA:93,0
DA:94,0
DA:98,0
DA:100,0
DA:101,0
DA:107,0
DA:109,0
DA:110,0
DA:111,0
DA:115,0
DA:118,0
DA:121,0
DA:123,0
DA:129,0
DA:132,0
DA:134,0
DA:251,0
DA:316,0
DA:318,0
DA:326,0
DA:329,0
DA:352,0
DA:353,0
DA:468,0
DA:608,0
DA:610,0
DA:646,0
DA:651,0
DA:661,0
DA:662,0
DA:665,0
DA:666,0
DA:674,0
DA:678,0
DA:681,0
DA:684,0
DA:707,0
DA:708,0
DA:711,0
DA:712,0
DA:733,0
DA:734,0
DA:737,0
DA:738,0
DA:752,0
DA:753,0
DA:755,0
DA:756,0
DA:780,0
DA:781,0
DA:801,0
DA:802,0
DA:822,0
DA:823,0
DA:825,0
DA:826,0
DA:895,0
DA:948,0
LF:65
LH:0
end_of_record
TN:
SF:/root/mfem/linalg/solvers.hpp
FN:308,_ZN4mfem22OperatorJacobiSmootherD0Ev
FN:308,_ZN4mfem22OperatorJacobiSmootherD2Ev
FN:314,_ZNK4mfem22OperatorJacobiSmoother13MultTransposeERKNS_6VectorERS1_
FN:405,_ZN4mfem25OperatorChebyshevSmootherD0Ev
FN:405,_ZN4mfem25OperatorChebyshevSmootherD2Ev
FN:409,_ZNK4mfem25OperatorChebyshevSmoother13MultTransposeERKNS_6VectorERS1_
FN:473,_ZN4mfem8CGSolverC2Ev
FN:704,_ZN4mfem11LBFGSSolver20DeleteStorageVectorsEv
FN:755,_ZN4mfem11LBFGSSolverD0Ev
FN:755,_ZN4mfem11LBFGSSolverD2Ev
FNDA:0,_ZN4mfem11LBFGSSolver20DeleteStorageVectorsEv
FNDA:0,_ZN4mfem11LBFGSSolverD0Ev
FNDA:0,_ZN4mfem11LBFGSSolverD2Ev
FNDA:0,_ZN4mfem22OperatorJacobiSmootherD0Ev
FNDA:0,_ZN4mfem22OperatorJacobiSmootherD2Ev
FNDA:0,_ZN4mfem25OperatorChebyshevSmootherD0Ev
FNDA:0,_ZN4mfem25OperatorChebyshevSmootherD2Ev
FNDA:0,_ZN4mfem8CGSolverC2Ev
FNDA:0,_ZNK4mfem22OperatorJacobiSmoother13MultTransposeERKNS_6VectorERS1_
FNDA:0,_ZNK4mfem25OperatorChebyshevSmoother13MultTransposeERKNS_6VectorERS1_
FNF:10
FNH:0
DA:66,0
DA:198,0
DA:199,0
DA:200,0
DA:247,0
DA:308,0
DA:314,0
DA:405,0
DA:409,0
DA:473,0
DA:479,0
DA:480,0
DA:613,0
DA:704,0
DA:706,0
DA:708,0
DA:709,0
DA:711,0
DA:755,0
DA:957,0
DA:962,0
DA:967,0
LF:22
LH:0
end_of_record
TN:
SF:/root/mfem/linalg/sparsemat.hpp
FN:127,_ZN4mfem12SparseMatrixC2Ev
FN:515,_ZN4mfem12SparseMatrix8FinalizeEi
FNDA:0,_ZN4mfem12SparseMatrix8FinalizeEi
FNDA:0,_ZN4mfem12SparseMatrixC2Ev
FNF:2
FNH:0
DA:127,0
DA:128,0
DA:129,0
DA:131,0
DA:132,0
DA:193,0
DA:219,0
DA:515,0
LF:8
LH:0
end_of_record
TN:
SF:/root/mfem/linalg/sparsesmoothers.hpp
FNF:0
FNH:0
DA:21,0
DA:29,0
DA:30,0
DA:36,0
DA:47,0
DA:48,0
DA:55,0
LF:7
LH:0
end_of_record
TN:
SF:/root/mfem/linalg/symmat.hpp
FNF:0
FNH:0
DA:24,0
DA:147,0
DA:149,0
DA:150,0
DA:156,0
LF:5
LH:0
end_of_record
TN:
SF:/root/mfem/linalg/vector.hpp
FN:105,_ZN4mfem6VectorC2ILi3EEERAT__Kd
FN:105,_ZN4mfem6VectorC2ILi6EEERAT__Kd
FN:117,_ZNK4mfem6Vector9UseDeviceEb
FN:120,_ZNK4mfem6Vector9UseDeviceEv
FN:438,_ZNK4mfem6Vector4ReadEb
FN:442,_ZNK4mfem6Vector8HostReadEv
FN:446,_ZN4mfem6Vector5WriteEb
FN:450,_ZN4mfem6Vector9HostWriteEv
FN:454,_ZN4mfem6Vector9ReadWriteEb
FN:458,_ZN4mfem6Vector13HostReadWriteEv
FN:521,_ZN4mfem6Vector7SetSizeEi
FN:570,_ZN4mfem6Vector16NewMemoryAndSizeERKNS_6MemoryIdEEib
FN:635,_ZN4mfem6VectorD0Ev
FN:635,_ZN4mfem6VectorD2Ev
FN:652,_ZN4mfem8DistanceEPKdS1_i
FNDA:0,_ZN4mfem6Vector13HostReadWriteEv
FNDA:0,_ZN4mfem6Vector16NewMemoryAndSizeERKNS_6MemoryIdEEib
FNDA:0,_ZN4mfem6Vector5WriteEb
FNDA:0,_ZN4mfem6Vector7SetSizeEi
FNDA:0,_ZN4mfem6Vector9HostWriteEv
FNDA:0,_ZN4mfem6Vector9ReadWriteEb
FNDA:0,_ZN4mfem6VectorC2ILi3EEERAT__Kd
FNDA:0,_ZN4mfem6VectorC2ILi6EEERAT__Kd
FNDA:0,_ZN4mfem6VectorD0Ev
FNDA:0,_ZN4mfem6VectorD2Ev
FNDA:0,_ZN4mfem8DistanceEPKdS1_i
FNDA:0,_ZNK4mfem6Vector4ReadEb
FNDA:0,_ZNK4mfem6Vector8HostReadEv
FNDA:0,_ZNK4mfem6Vector9UseDeviceEb
FNDA:0,_ZNK4mfem6Vector9UseDeviceEv
FNF:15
FNH:0
DA:46,0
DA:48,0
DA:71,0
DA:86,0
DA:87,0
DA:105,0
DA:106,0
DA:117,0
DA:120,0
DA:156,0
DA:199,0
DA:208,0
DA:209,0
DA:214,0
DA:219,0
DA:234,0
DA:238,0
DA:241,0
DA:248,0
DA:438,0
DA:439,0
DA:442,0
DA:443,0
DA:446,0
DA:447,0
DA:450,0
DA:451,0
DA:454,0
DA:455,0
DA:458,0
DA:459,0
DA:511,0
DA:513,0
DA:514,0
DA:515,0
DA:517,0
DA:521,0
DA:523,0
DA:527,0
DA:529,0
DA:530,0
DA:533,0
DA:534,0
DA:535,0
DA:536,0
DA:537,0
DA:538,0
DA:570,0
DA:573,0
DA:574,0
DA:575,0
DA:577,0
DA:581,0
DA:583,0
DA:585,0
DA:587,0
DA:588,0
DA:589,0
DA:590,0
DA:592,0
DA:594,0
DA:595,0
DA:596,0
DA:598,0
DA:600,0
DA:601,0
DA:602,0
DA:603,0
DA:604,0
DA:607,0
DA:610,0
DA:612,0
DA:615,0
DA:618,0
DA:620,0
DA:635,0
DA:637,0
DA:638,0
DA:640,0
DA:642,0
DA:644,0
DA:646,0
DA:649,0
DA:652,0
DA:654,0
LF:85
LH:0
end_of_record
TN:
SF:/root/mfem/mesh/element.hpp
FNF:0
FNH:0
DA:52,0
DA:55,0
DA:58,0
DA:104,0
LF:4
LH:0
end_of_record
TN:
SF:/root/mfem/mesh/mesh.hpp
FN:563,_ZN4mfem4MeshC2Ev
FN:697,_ZN4mfem4MeshC2Eiiiii
FN:1793,_ZN4mfem4MeshD0Ev
FN:1793,_ZN4mfem4MeshD2Ev
FN:1927,_ZN4mfem22NodeExtrudeCoefficientD0Ev
FN:1927,_ZN4mfem22NodeExtrudeCoefficientD2Ev
FNDA:0,_ZN4mfem22NodeExtrudeCoefficientD0Ev
FNDA:0,_ZN4mfem22NodeExtrudeCoefficientD2Ev
FNDA:0,_ZN4mfem4MeshC2Eiiiii
FNDA:0,_ZN4mfem4MeshC2Ev
FNDA:0,_ZN4mfem4MeshD0Ev
FNDA:0,_ZN4mfem4MeshD2Ev
FNF:6
FNH:0
DA:563,0
DA:697,0
DA:698,0
DA:699,0
DA:700,0
DA:701,0
DA:721,0
DA:925,0
DA:928,0
DA:931,0
DA:934,0
DA:937,0
DA:999,0
DA:1000,0
DA:1010,0
DA:1036,0
DA:1045,0
DA:1047,0
DA:1059,0
DA:1060,0
DA:1067,0
DA:1068,0
DA:1099,0
DA:1100,0
DA:1242,0
DA:1244,0
DA:1245,0
DA:1513,0
DA:1793,0
DA:1927,0
LF:30
LH:0
end_of_record
TN:
SF:/root/mfem/mesh/ncmesh.hpp
FNF:0
FNH:0
DA:43,0
DA:44,0
LF:2
LH:0
end_of_record
TN:
SF:/root/mfem/mesh/tetrahedron.hpp
FN:116,_ZN4mfem11TetrahedronD0Ev
FN:116,_ZN4mfem11TetrahedronD2Ev
FNDA:0,_ZN4mfem11TetrahedronD0Ev
FNDA:0,_ZN4mfem11TetrahedronD2Ev
FNF:2
FNH:0
DA:116,0
LF:1
LH:0
end_of_record
TN:
SF:/root/mfem/mesh/vertex.hpp
FNF:0
FNH:0
DA:33,0
DA:34,0
DA:35,0
DA:38,0
LF:4
LH:0
end_of_record
TN:
SF:/root/mfem/tests/unit/catch.hpp
FN:1614,_ZN5Catch11StringMakerIN4mfem8Geometry4TypeEvE7convertIS3_EENSt9enable_ifIXsrNS_6Detail18IsStreamInsertableIT_EE5valueENSt7__cxx1112basic_stringIcSt11char_traitsIcESaIcEEEE4typeERKS9_
FN:1614,_ZN5Catch11StringMakerIN8tinyxml28XMLErrorEvE7convertIS2_EENSt9enable_ifIXsrNS_6Detail18IsStreamInsertableIT_EE5valueENSt7__cxx1112basic_stringIcSt11char_traitsIcESaIcEEEE4typeERKS8_
FN:1614,_ZN5Catch11StringMakerINS_14SourceLineInfoEvE7convertIS1_EENSt9enable_ifIXsrNS_6Detail18IsStreamInsertableIT_EE5valueENSt7__cxx1112basic_stringIcSt11char_traitsIcESaIcEEEE4typeERKS7_
FN:1793,_ZN5Catch11StringMakerIPKN8tinyxml210XMLElementEvE7convertIS3_EENSt7__cxx1112basic_stringIcSt11char_traitsIcESaIcEEEPT_
FN:1793,_ZN5Catch11StringMakerIPKdvE7convertIS1_EENSt7__cxx1112basic_stringIcSt11char_traitsIcESaIcEEEPT_
FN:1793,_ZN5Catch11StringMakerIPN4mfem12GridFunctionEvE7convertIS2_EENSt7__cxx1112basic_stringIcSt11char_traitsIcESaIcEEEPT_
FN:1793,_ZN5Catch11StringMakerIPN4mfem18QuadratureFunctionEvE7convertIS2_EENSt7__cxx1112basic_stringIcSt11char_traitsIcESaIcEEEPT_
FN:1793,_ZN5Catch11StringMakerIPN4mfem4MeshEvE7convertIS2_EENSt7__cxx1112basic_stringIcSt11char_traitsIcESaIcEEEPT_
FN:1793,_ZN5Catch11StringMakerIPdvE7convertIdEENSt7__cxx1112basic_stringIcSt11char_traitsIcESaIcEEEPT_
FN:2224,_ZNK5Catch10BinaryExprIRKN4mfem10MemoryTypeES4_E29streamReconstructedExpressionERSo
FN:2224,_ZNK5Catch10BinaryExprIRKN4mfem8Geometry4TypeES5_E29streamReconstructedExpressionERSo
FN:2224,_ZNK5Catch10BinaryExprIRKN8tinyxml28XMLErrorES4_E29streamReconstructedExpressionERSo
FN:2224,_ZNK5Catch10BinaryExprIRKNSt7__cxx1112basic_stringIcSt11char_traitsIcESaIcEEES8_E29streamReconstructedExpressionERSo
FN:2224,_ZNK5Catch10BinaryExprIRKPKN8tinyxml210XMLElementERKDnE29streamReconstructedExpressionERSo
FN:2224,_ZNK5Catch10BinaryExprIRKPKdRKPdE29streamReconstructedExpressionERSo
FN:2224,_ZNK5Catch10BinaryExprIRKPN4mfem12GridFunctionERKDnE29streamReconstructedExpressionERSo
FN:2224,_ZNK5Catch10BinaryExprIRKPN4mfem4MeshES5_E29streamReconstructedExpressionERSo
FN:2224,_ZNK5Catch10BinaryExprIRKPdRKDnE29streamReconstructedExpressionERSo
FN:2224,_ZNK5Catch10BinaryExprIRKPdS3_E29streamReconstructedExpressionERSo
FN:2224,_ZNK5Catch10BinaryExprIRKdRKNS_6Detail6ApproxEE29streamReconstructedExpressionERSo
FN:2224,_ZNK5Catch10BinaryExprIRKdRKiE29streamReconstructedExpressionERSo
FN:2224,_ZNK5Catch10BinaryExprIRKdS2_E29streamReconstructedExpressionERSo
FN:2224,_ZNK5Catch10BinaryExprIRKiRKdE29streamReconstructedExpressionERSo
FN:2224,_ZNK5Catch10BinaryExprIRKiS2_E29streamReconstructedExpressionERSo
FN:2224,_ZNK5Catch10BinaryExprIbbE29streamReconstructedExpressionERSo
FN:2298,_ZNK5Catch9UnaryExprIRKPKN8tinyxml210XMLElementEE29streamReconstructedExpressionERSo
FN:2298,_ZNK5Catch9UnaryExprIRKPKcE29streamReconstructedExpressionERSo
FN:2298,_ZNK5Catch9UnaryExprIRKPN4mfem12GridFunctionEE29streamReconstructedExpressionERSo
FN:2298,_ZNK5Catch9UnaryExprIRKPN4mfem18QuadratureFunctionEE29streamReconstructedExpressionERSo
FN:2298,_ZNK5Catch9UnaryExprIRKPN4mfem4MeshEE29streamReconstructedExpressionERSo
FN:2298,_ZNK5Catch9UnaryExprIbE29streamReconstructedExpressionERSo
FN:2339,_ZN5Catch7ExprLhsIRKNSt7__cxx1112basic_stringIcSt11char_traitsIcESaIcEEEEeqIS6_EEKNS_10BinaryExprIS8_RKT_EESE_
FN:2339,_ZN5Catch7ExprLhsIRKdEeqINS_6Detail6ApproxEEEKNS_10BinaryExprIS2_RKT_EESA_
FN:2562,_ZN5Catch16AssertionHandler10handleExprIRKPKN8tinyxml210XMLElementEEEvRKNS_7ExprLhsIT_EE
FN:2562,_ZN5Catch16AssertionHandler10handleExprIRKPKcEEvRKNS_7ExprLhsIT_EE
FN:2562,_ZN5Catch16AssertionHandler10handleExprIRKPN4mfem12GridFunctionEEEvRKNS_7ExprLhsIT_EE
FN:2562,_ZN5Catch16AssertionHandler10handleExprIRKPN4mfem18QuadratureFunctionEEEvRKNS_7ExprLhsIT_EE
FN:2562,_ZN5Catch16AssertionHandler10handleExprIRKPN4mfem4MeshEEEvRKNS_7ExprLhsIT_EE
FN:2562,_ZN5Catch16AssertionHandler10handleExprIbEEvRKNS_7ExprLhsIT_EE
FN:2658,_ZN5Catch8Capturer13captureValuesIbEEvmRKT_
FN:2658,_ZN5Catch8Capturer13captureValuesIiEEvmRKT_
FN:2663,_ZN5Catch8Capturer13captureValuesINSt7__cxx1112basic_stringIcSt11char_traitsIcESaIcEEEJibiiibEEEvmRKT_DpRKT0_
FN:2663,_ZN5Catch8Capturer13captureValuesINSt7__cxx1112basic_stringIcSt11char_traitsIcESaIcEEEJiiEEEvmRKT_DpRKT0_
FN:2663,_ZN5Catch8Capturer13captureValuesINSt7__cxx1112basic_stringIcSt11char_traitsIcESaIcEEEJiiiEEEvmRKT_DpRKT0_
FN:2663,_ZN5Catch8Capturer13captureValuesIbJiiibEEEvmRKT_DpRKT0_
FN:2663,_ZN5Catch8Capturer13captureValuesIiJbEEEvmRKT_DpRKT0_
FN:2663,_ZN5Catch8Capturer13captureValuesIiJbiiibEEEvmRKT_DpRKT0_
FN:2663,_ZN5Catch8Capturer13captureValuesIiJiEEEvmRKT_DpRKT0_
FN:2663,_ZN5Catch8Capturer13captureValuesIiJibEEEvmRKT_DpRKT0_
FN:2663,_ZN5Catch8Capturer13captureValuesIiJiiEEEvmRKT_DpRKT0_
FN:2663,_ZN5Catch8Capturer13captureValuesIiJiibEEEvmRKT_DpRKT0_
FN:3398,_ZN5Catch8Matchers9Exception23ExceptionMessageMatcherC2ERKNSt7__cxx1112basic_stringIcSt11char_traitsIcESaIcEEE
FN:3777,_ZNK5Catch9MatchExprINSt7__cxx1112basic_stringIcSt11char_traitsIcESaIcEEERKNS_8Matchers4Impl11MatcherBaseIS6_EEE29streamReconstructedExpressionERSo
FN:3872,_ZN5Catch15throw_exceptionISt11logic_errorEEvRKT_
FN:3872,_ZN5Catch15throw_exceptionISt12domain_errorEEvRKT_
FN:3872,_ZN5Catch15throw_exceptionISt13runtime_errorEEvRKT_
FN:3930,_ZN5Catch10Generators2pf11make_uniqueINS0_10GeneratorsI8VecSpaceEEJS5_EEESt10unique_ptrIT_St14default_deleteIS7_EEDpOT0_
FN:3930,_ZN5Catch10Generators2pf11make_uniqueINS0_10GeneratorsIN4mfem13AssemblyLevelEEEJS6_EEESt10unique_ptrIT_St14default_deleteIS8_EEDpOT0_
FN:3930,_ZN5Catch10Generators2pf11make_uniqueINS0_10GeneratorsIN4mfem13FiniteElement7MapTypeEEEJS7_EEESt10unique_ptrIT_St14default_deleteIS9_EEDpOT0_
FN:3930,_ZN5Catch10Generators2pf11make_uniqueINS0_10GeneratorsIN4mfem13QVectorLayoutEEEJS6_EEESt10unique_ptrIT_St14default_deleteIS8_EEDpOT0_
FN:3930,_ZN5Catch10Generators2pf11make_uniqueINS0_10GeneratorsIN4mfem7Element4TypeEEEJS7_EEESt10unique_ptrIT_St14default_deleteIS9_EEDpOT0_
FN:3930,_ZN5Catch10Generators2pf11make_uniqueINS0_10GeneratorsIRA21_KcEEJS7_EEESt10unique_ptrIT_St14default_deleteIS9_EEDpOT0_
FN:3930,_ZN5Catch10Generators2pf11make_uniqueINS0_10GeneratorsIbEEJS4_EEESt10unique_ptrIT_St14default_deleteIS6_EEDpOT0_
FN:3930,_ZN5Catch10Generators2pf11make_uniqueINS0_10GeneratorsIiEEJS4_EEESt10unique_ptrIT_St14default_deleteIS6_EEDpOT0_
FN:3930,_ZN5Catch10Generators2pf11make_uniqueINS0_14RangeGeneratorIiEEJRKiS6_EEESt10unique_ptrIT_St14default_deleteIS8_EEDpOT0_
FN:3953,_ZNK5Catch10Generators20SingleValueGeneratorI8VecSpaceE3getEv
FN:3953,_ZNK5Catch10Generators20SingleValueGeneratorIN4mfem13AssemblyLevelEE3getEv
FN:3953,_ZNK5Catch10Generators20SingleValueGeneratorIN4mfem13FiniteElement7MapTypeEE3getEv
FN:3953,_ZNK5Catch10Generators20SingleValueGeneratorIN4mfem13QVectorLayoutEE3getEv
FN:3953,_ZNK5Catch10Generators20SingleValueGeneratorIN4mfem7Element4TypeEE3getEv
FN:3953,_ZNK5Catch10Generators20SingleValueGeneratorIRA21_KcE3getEv
FN:3953,_ZNK5Catch10Generators20SingleValueGeneratorIbE3getEv
FN:3953,_ZNK5Catch10Generators20SingleValueGeneratorIiE3getEv
FN:3956,_ZN5Catch10Generators20SingleValueGeneratorI8VecSpaceE4nextEv
FN:3956,_ZN5Catch10Generators20SingleValueGeneratorIN4mfem13AssemblyLevelEE4nextEv
FN:3956,_ZN5Catch10Generators20SingleValueGeneratorIN4mfem13FiniteElement7MapTypeEE4nextEv
FN:3956,_ZN5Catch10Generators20SingleValueGeneratorIN4mfem13QVectorLayoutEE4nextEv
FN:3956,_ZN5Catch10Generators20SingleValueGeneratorIN4mfem7Element4TypeEE4nextEv
FN:3956,_ZN5Catch10Generators20SingleValueGeneratorIRA21_KcE4nextEv
FN:3956,_ZN5Catch10Generators20SingleValueGeneratorIbE4nextEv
FN:3956,_ZN5Catch10Generators20SingleValueGeneratorIiE4nextEv
FN:3996,_ZN5Catch10Generators5valueI8VecSpaceEENS0_16GeneratorWrapperIT_EEOS4_
FN:3996,_ZN5Catch10Generators5valueIN4mfem13AssemblyLevelEEENS0_16GeneratorWrapperIT_EEOS5_
FN:3996,_ZN5Catch10Generators5valueIN4mfem13FiniteElement7MapTypeEEENS0_16GeneratorWrapperIT_EEOS6_
FN:3996,_ZN5Catch10Generators5valueIN4mfem13QVectorLayoutEEENS0_16GeneratorWrapperIT_EEOS5_
FN:3996,_ZN5Catch10Generators5valueIN4mfem7Element4TypeEEENS0_16GeneratorWrapperIT_EEOS6_
FN:3996,_ZN5Catch10Generators5valueIRA21_KcEENS0_16GeneratorWrapperIT_EEOS6_
FN:3996,_ZN5Catch10Generators5valueIbEENS0_16GeneratorWrapperIT_EEOS3_
FN:3996,_ZN5Catch10Generators5valueIiEENS0_16GeneratorWrapperIT_EEOS3_
FN:4012,_ZN5Catch10Generators10GeneratorsI8VecSpaceE8populateEOS2_
FN:4012,_ZN5Catch10Generators10GeneratorsIN4mfem13AssemblyLevelEE8populateEOS3_
FN:4012,_ZN5Catch10Generators10GeneratorsIN4mfem13FiniteElement7MapTypeEE8populateEOS4_
FN:4012,_ZN5Catch10Generators10GeneratorsIN4mfem13QVectorLayoutEE8populateEOS3_
FN:4012,_ZN5Catch10Generators10GeneratorsIN4mfem7Element4TypeEE8populateEOS4_
FN:4012,_ZN5Catch10Generators10GeneratorsIRA21_KcE8populateES4_
FN:4012,_ZN5Catch10Generators10GeneratorsIbE8populateEOb
FN:4012,_ZN5Catch10Generators10GeneratorsIiE8populateEOi
FN:4020,_ZN5Catch10Generators10GeneratorsI8VecSpaceE8populateIS2_JS2_S2_EEEvOT_DpOT0_
FN:4020,_ZN5Catch10Generators10GeneratorsIN4mfem13AssemblyLevelEE8populateINS0_16GeneratorWrapperIS3_EEJS3_S3_EEEvOT_DpOT0_
FN:4020,_ZN5Catch10Generators10GeneratorsIN4mfem7Element4TypeEE8populateINS0_16GeneratorWrapperIS4_EEJS4_S4_EEEvOT_DpOT0_
FN:4020,_ZN5Catch10Generators10GeneratorsIRA21_KcE8populateINS0_16GeneratorWrapperIS4_EEJRA28_S2_RA27_S2_RA29_S2_SC_EEEvOT_DpOT0_
FN:4020,_ZN5Catch10Generators10GeneratorsIRA21_KcE8populateIRA24_S2_JS8_RA27_S2_EEEvOT_DpOT0_
FN:4020,_ZN5Catch10Generators10GeneratorsIRA21_KcE8populateIRA27_S2_JRA29_S2_S8_EEEvOT_DpOT0_
FN:4020,_ZN5Catch10Generators10GeneratorsIiE8populateINS0_16GeneratorWrapperIiEEJiiEEEvOT_DpOT0_
FN:4020,_ZN5Catch10Generators10GeneratorsIiE8populateINS0_16GeneratorWrapperIiEEJiiiiEEEvOT_DpOT0_
FN:4020,_ZN5Catch10Generators10GeneratorsIiE8populateIiJiiEEEvOT_DpOT0_
FN:4020,_ZN5Catch10Generators10GeneratorsIiE8populateIiJiiiiEEEvOT_DpOT0_
FN:4027,_ZN5Catch10Generators10GeneratorsI8VecSpaceEC2IJNS0_16GeneratorWrapperIS2_EES2_EEEDpOT_
FN:4027,_ZN5Catch10Generators10GeneratorsI8VecSpaceEC2IJNS0_16GeneratorWrapperIS2_EES2_S2_S2_EEEDpOT_
FN:4027,_ZN5Catch10Generators10GeneratorsIN4mfem13AssemblyLevelEEC2IJNS0_16GeneratorWrapperIS3_EES3_S3_EEEDpOT_
FN:4027,_ZN5Catch10Generators10GeneratorsIN4mfem13FiniteElement7MapTypeEEC2IJNS0_16GeneratorWrapperIS4_EES4_EEEDpOT_
FN:4027,_ZN5Catch10Generators10GeneratorsIN4mfem13QVectorLayoutEEC2IJNS0_16GeneratorWrapperIS3_EES3_EEEDpOT_
FN:4027,_ZN5Catch10Generators10GeneratorsIN4mfem7Element4TypeEEC2IJNS0_16GeneratorWrapperIS4_EES4_EEEDpOT_
FN:4027,_ZN5Catch10Generators10GeneratorsIN4mfem7Element4TypeEEC2IJNS0_16GeneratorWrapperIS4_EES4_S4_EEEDpOT_
FN:4027,_ZN5Catch10Generators10GeneratorsIRA21_KcEC2IJNS0_16GeneratorWrapperIS4_EERA24_S2_SA_RA27_S2_EEEDpOT_
FN:4027,_ZN5Catch10Generators10GeneratorsIRA21_KcEC2IJNS0_16GeneratorWrapperIS4_EERA28_S2_RA27_S2_RA29_S2_SC_EEEDpOT_
FN:4027,_ZN5Catch10Generators10GeneratorsIbEC2IJNS0_16GeneratorWrapperIbEEbEEEDpOT_
FN:4027,_ZN5Catch10Generators10GeneratorsIiEC2IJNS0_16GeneratorWrapperIiEEEEEDpOT_
FN:4027,_ZN5Catch10Generators10GeneratorsIiEC2IJNS0_16GeneratorWrapperIiEEiEEEDpOT_
FN:4027,_ZN5Catch10Generators10GeneratorsIiEC2IJNS0_16GeneratorWrapperIiEEiiEEEDpOT_
FN:4027,_ZN5Catch10Generators10GeneratorsIiEC2IJNS0_16GeneratorWrapperIiEEiiiEEEDpOT_
FN:4027,_ZN5Catch10Generators10GeneratorsIiEC2IJNS0_16GeneratorWrapperIiEEiiiiEEEDpOT_
FN:4027,_ZN5Catch10Generators10GeneratorsIiEC2IJNS0_16GeneratorWrapperIiEEiiiiiEEEDpOT_
FN:4032,_ZNK5Catch10Generators10GeneratorsI8VecSpaceE3getEv
FN:4032,_ZNK5Catch10Generators10GeneratorsIN4mfem13AssemblyLevelEE3getEv
FN:4032,_ZNK5Catch10Generators10GeneratorsIN4mfem13FiniteElement7MapTypeEE3getEv
FN:4032,_ZNK5Catch10Generators10GeneratorsIN4mfem13QVectorLayoutEE3getEv
FN:4032,_ZNK5Catch10Generators10GeneratorsIN4mfem7Element4TypeEE3getEv
FN:4032,_ZNK5Catch10Generators10GeneratorsIRA21_KcE3getEv
FN:4032,_ZNK5Catch10Generators10GeneratorsIbE3getEv
FN:4032,_ZNK5Catch10Generators10GeneratorsIiE3getEv
FN:4036,_ZN5Catch10Generators10GeneratorsI8VecSpaceE4nextEv
FN:4036,_ZN5Catch10Generators10GeneratorsIN4mfem13AssemblyLevelEE4nextEv
FN:4036,_ZN5Catch10Generators10GeneratorsIN4mfem13FiniteElement7MapTypeEE4nextEv
FN:4036,_ZN5Catch10Generators10GeneratorsIN4mfem13QVectorLayoutEE4nextEv
FN:4036,_ZN5Catch10Generators10GeneratorsIN4mfem7Element4TypeEE4nextEv
FN:4036,_ZN5Catch10Generators10GeneratorsIRA21_KcE4nextEv
FN:4036,_ZN5Catch10Generators10GeneratorsIbE4nextEv
FN:4036,_ZN5Catch10Generators10GeneratorsIiE4nextEv
FN:4066,_ZN5Catch10Generators14makeGeneratorsI8VecSpaceJS2_EEENS0_10GeneratorsIT_EEOS4_DpOT0_
FN:4066,_ZN5Catch10Generators14makeGeneratorsI8VecSpaceJS2_S2_S2_EEENS0_10GeneratorsIT_EEOS4_DpOT0_
FN:4066,_ZN5Catch10Generators14makeGeneratorsIN4mfem13AssemblyLevelEJS3_S3_EEENS0_10GeneratorsIT_EEOS5_DpOT0_
FN:4066,_ZN5Catch10Generators14makeGeneratorsIN4mfem13FiniteElement7MapTypeEJS4_EEENS0_10GeneratorsIT_EEOS6_DpOT0_
FN:4066,_ZN5Catch10Generators14makeGeneratorsIN4mfem13QVectorLayoutEJS3_EEENS0_10GeneratorsIT_EEOS5_DpOT0_
FN:4066,_ZN5Catch10Generators14makeGeneratorsIN4mfem7Element4TypeEJS4_EEENS0_10GeneratorsIT_EEOS6_DpOT0_
FN:4066,_ZN5Catch10Generators14makeGeneratorsIN4mfem7Element4TypeEJS4_S4_EEENS0_10GeneratorsIT_EEOS6_DpOT0_
FN:4066,_ZN5Catch10Generators14makeGeneratorsIRA21_KcJRA24_S2_S6_RA27_S2_EEENS0_10GeneratorsIT_EEOSA_DpOT0_
FN:4066,_ZN5Catch10Generators14makeGeneratorsIRA21_KcJRA28_S2_RA27_S2_RA29_S2_S8_EEENS0_10GeneratorsIT_EEOSC_DpOT0_
FN:4066,_ZN5Catch10Generators14makeGeneratorsIbJbEEENS0_10GeneratorsIT_EEOS3_DpOT0_
FN:4066,_ZN5Catch10Generators14makeGeneratorsIiJEEENS0_10GeneratorsIT_EEOS3_DpOT0_
FN:4066,_ZN5Catch10Generators14makeGeneratorsIiJiEEENS0_10GeneratorsIT_EEOS3_DpOT0_
FN:4066,_ZN5Catch10Generators14makeGeneratorsIiJiiEEENS0_10GeneratorsIT_EEOS3_DpOT0_
FN:4066,_ZN5Catch10Generators14makeGeneratorsIiJiiiEEENS0_10GeneratorsIT_EEOS3_DpOT0_
FN:4066,_ZN5Catch10Generators14makeGeneratorsIiJiiiiEEENS0_10GeneratorsIT_EEOS3_DpOT0_
FN:4066,_ZN5Catch10Generators14makeGeneratorsIiJiiiiiEEENS0_10GeneratorsIT_EEOS3_DpOT0_
FN:4080,_ZN5Catch10Generators8generateIZL29____C_A_T_C_H____T_E_S_T____0vEUlvE0_EEDTcldtcl7declvalIDTclfp1_EEEE3getEENS_9StringRefERKNS_14SourceLineInfoERKT_
FN:4080,_ZN5Catch10Generators8generateIZL29____C_A_T_C_H____T_E_S_T____0vEUlvE1_EEDTcldtcl7declvalIDTclfp1_EEEE3getEENS_9StringRefERKNS_14SourceLineInfoERKT_
FN:4080,_ZN5Catch10Generators8generateIZL29____C_A_T_C_H____T_E_S_T____0vEUlvE2_EEDTcldtcl7declvalIDTclfp1_EEEE3getEENS_9StringRefERKNS_14SourceLineInfoERKT_
FN:4080,_ZN5Catch10Generators8generateIZL29____C_A_T_C_H____T_E_S_T____0vEUlvE_EEDTcldtcl7declvalIDTclfp1_EEEE3getEENS_9StringRefERKNS_14SourceLineInfoERKT_
FN:4080,_ZN5Catch10Generators8generateIZL29____C_A_T_C_H____T_E_S_T____1vEUlvE0_EEDTcldtcl7declvalIDTclfp1_EEEE3getEENS_9StringRefERKNS_14SourceLineInfoERKT_
FN:4080,_ZN5Catch10Generators8generateIZL29____C_A_T_C_H____T_E_S_T____1vEUlvE1_EEDTcldtcl7declvalIDTclfp1_EEEE3getEENS_9StringRefERKNS_14SourceLineInfoERKT_
FN:4080,_ZN5Catch10Generators8generateIZL29____C_A_T_C_H____T_E_S_T____1vEUlvE2_EEDTcldtcl7declvalIDTclfp1_EEEE3getEENS_9StringRefERKNS_14SourceLineInfoERKT_
FN:4080,_ZN5Catch10Generators8generateIZL29____C_A_T_C_H____T_E_S_T____1vEUlvE_EEDTcldtcl7declvalIDTclfp1_EEEE3getEENS_9StringRefERKNS_14SourceLineInfoERKT_
FN:4080,_ZN5Catch10Generators8generateIZL29____C_A_T_C_H____T_E_S_T____7vEUlvE0_EEDTcldtcl7declvalIDTclfp1_EEEE3getEENS_9StringRefERKNS_14SourceLineInfoERKT_
FN:4080,_ZN5Catch10Generators8generateIZL29____C_A_T_C_H____T_E_S_T____7vEUlvE_EEDTcldtcl7declvalIDTclfp1_EEEE3getEENS_9StringRefERKNS_14SourceLineInfoERKT_
FN:4080,_ZN5Catch10Generators8generateIZL29____C_A_T_C_H____T_E_S_T____9vEUlvE_EEDTcldtcl7declvalIDTclfp1_EEEE3getEENS_9StringRefERKNS_14SourceLineInfoERKT_
FN:4080,_ZN5Catch10Generators8generateIZL30____C_A_T_C_H____T_E_S_T____12vEUlvE0_EEDTcldtcl7declvalIDTclfp1_EEEE3getEENS_9StringRefERKNS_14SourceLineInfoERKT_
FN:4080,_ZN5Catch10Generators8generateIZL30____C_A_T_C_H____T_E_S_T____12vEUlvE_EEDTcldtcl7declvalIDTclfp1_EEEE3getEENS_9StringRefERKNS_14SourceLineInfoERKT_
FN:4080,_ZN5Catch10Generators8generateIZN10ea_kernelsL29____C_A_T_C_H____T_E_S_T____1EvEUlvE0_EEDTcldtcl7declvalIDTclfp1_EEEE3getEENS_9StringRefERKNS_14SourceLineInfoERKT_
FN:4080,_ZN5Catch10Generators8generateIZN10ea_kernelsL29____C_A_T_C_H____T_E_S_T____1EvEUlvE1_EEDTcldtcl7declvalIDTclfp1_EEEE3getEENS_9StringRefERKNS_14SourceLineInfoERKT_
FN:4080,_ZN5Catch10Generators8generateIZN10ea_kernelsL29____C_A_T_C_H____T_E_S_T____1EvEUlvE2_EEDTcldtcl7declvalIDTclfp1_EEEE3getEENS_9StringRefERKNS_14SourceLineInfoERKT_
FN:4080,_ZN5Catch10Generators8generateIZN10ea_kernelsL29____C_A_T_C_H____T_E_S_T____1EvEUlvE3_EEDTcldtcl7declvalIDTclfp1_EEEE3getEENS_9StringRefERKNS_14SourceLineInfoERKT_
FN:4080,_ZN5Catch10Generators8generateIZN10ea_kernelsL29____C_A_T_C_H____T_E_S_T____1EvEUlvE4_EEDTcldtcl7declvalIDTclfp1_EEEE3getEENS_9StringRefERKNS_14SourceLineInfoERKT_
FN:4080,_ZN5Catch10Generators8generateIZN10ea_kernelsL29____C_A_T_C_H____T_E_S_T____1EvEUlvE5_EEDTcldtcl7declvalIDTclfp1_EEEE3getEENS_9StringRefERKNS_14SourceLineInfoERKT_
FN:4080,_ZN5Catch10Generators8generateIZN10ea_kernelsL29____C_A_T_C_H____T_E_S_T____1EvEUlvE_EEDTcldtcl7declvalIDTclfp1_EEEE3getEENS_9StringRefERKNS_14SourceLineInfoERKT_
FN:4080,_ZN5Catch10Generators8generateIZN10pa_kernelsL30____C_A_T_C_H____T_E_S_T____21EvEUlvE0_EEDTcldtcl7declvalIDTclfp1_EEEE3getEENS_9StringRefERKNS_14SourceLineInfoERKT_
FN:4080,_ZN5Catch10Generators8generateIZN10pa_kernelsL30____C_A_T_C_H____T_E_S_T____21EvEUlvE1_EEDTcldtcl7declvalIDTclfp1_EEEE3getEENS_9StringRefERKNS_14SourceLineInfoERKT_
FN:4080,_ZN5Catch10Generators8generateIZN10pa_kernelsL30____C_A_T_C_H____T_E_S_T____21EvEUlvE_EEDTcldtcl7declvalIDTclfp1_EEEE3getEENS_9StringRefERKNS_14SourceLineInfoERKT_
FN:4080,_ZN5Catch10Generators8generateIZN10pa_kernelsL30____C_A_T_C_H____T_E_S_T____28EvEUlvE0_EEDTcldtcl7declvalIDTclfp1_EEEE3getEENS_9StringRefERKNS_14SourceLineInfoERKT_
FN:4080,_ZN5Catch10Generators8generateIZN10pa_kernelsL30____C_A_T_C_H____T_E_S_T____28EvEUlvE1_EEDTcldtcl7declvalIDTclfp1_EEEE3getEENS_9StringRefERKNS_14SourceLineInfoERKT_
FN:4080,_ZN5Catch10Generators8generateIZN10pa_kernelsL30____C_A_T_C_H____T_E_S_T____28EvEUlvE_EEDTcldtcl7declvalIDTclfp1_EEEE3getEENS_9StringRefERKNS_14SourceLineInfoERKT_
FN:4080,_ZN5Catch10Generators8generateIZN10pa_kernelsL30____C_A_T_C_H____T_E_S_T____35EvEUlvE0_EEDTcldtcl7declvalIDTclfp1_EEEE3getEENS_9StringRefERKNS_14SourceLineInfoERKT_
FN:4080,_ZN5Catch10Generators8generateIZN10pa_kernelsL30____C_A_T_C_H____T_E_S_T____35EvEUlvE_EEDTcldtcl7declvalIDTclfp1_EEEE3getEENS_9StringRefERKNS_14SourceLineInfoERKT_
FN:4421,_ZN5Catch6OptionINS_11TestRunInfoEEaSERKS1_
FN:4421,_ZN5Catch6OptionINS_12TestCaseInfoEEaSERKS1_
FN:4421,_ZN5Catch6OptionINS_15AssertionResultEEaSERKS1_
FN:4421,_ZN5Catch6OptionINS_9GroupInfoEEaSERKS1_
FN:4664,_ZN5Catch10Generators14RangeGeneratorIiEC2ERKiS4_S4_
FN:4679,_ZNK5Catch10Generators14RangeGeneratorIiE3getEv
FN:4683,_ZN5Catch10Generators14RangeGeneratorIiE4nextEv
FN:4696,_ZN5Catch10Generators5rangeIiEENS0_16GeneratorWrapperIT_EERKS3_S6_
FN:5081,_ZN5Catch15WildcardPatternD0Ev
FN:5081,_ZN5Catch15WildcardPatternD2Ev
FN:5233,_ZN5Catch14TestSpecParser16addCharToPatternEc
FN:5312,_ZN5Catch6ConfigD0Ev
FN:5312,_ZN5Catch6ConfigD2Ev
FN:5520,_ZN5Catch14AssertionStatsC2ERKS0_
FN:5538,_ZN5Catch12SectionStatsaSERKS0_
FN:5555,_ZN5Catch13TestCaseStatsC2ERKS0_
FN:5574,_ZN5Catch14TestGroupStatsC2ERKS0_
FN:5590,_ZN5Catch12TestRunStatsC2ERKS0_
FN:5650,_ZN5Catch18IStreamingReporter22reportInvalidArgumentsERKNSt7__cxx1112basic_stringIcSt11char_traitsIcESaIcEEE
FN:5726,_ZN5Catch21StreamingReporterBaseINS_11XmlReporterEEC2ERKNS_14ReporterConfigE
FN:5726,_ZN5Catch21StreamingReporterBaseINS_15CompactReporterEEC2ERKNS_14ReporterConfigE
FN:5726,_ZN5Catch21StreamingReporterBaseINS_15ConsoleReporterEEC2ERKNS_14ReporterConfigE
FN:5726,_ZN5Catch21StreamingReporterBaseINS_21TestEventListenerBaseEEC2ERKNS_14ReporterConfigE
FN:5735,_ZNK5Catch21StreamingReporterBaseINS_11XmlReporterEE14getPreferencesEv
FN:5735,_ZNK5Catch21StreamingReporterBaseINS_15CompactReporterEE14getPreferencesEv
FN:5735,_ZNK5Catch21StreamingReporterBaseINS_15ConsoleReporterEE14getPreferencesEv
FN:5735,_ZNK5Catch21StreamingReporterBaseINS_21TestEventListenerBaseEE14getPreferencesEv
FN:5743,_ZN5Catch21StreamingReporterBaseINS_11XmlReporterEED0Ev
FN:5743,_ZN5Catch21StreamingReporterBaseINS_11XmlReporterEED2Ev
FN:5743,_ZN5Catch21StreamingReporterBaseINS_15CompactReporterEED0Ev
FN:5743,_ZN5Catch21StreamingReporterBaseINS_15CompactReporterEED2Ev
FN:5743,_ZN5Catch21StreamingReporterBaseINS_15ConsoleReporterEED0Ev
FN:5743,_ZN5Catch21StreamingReporterBaseINS_15ConsoleReporterEED2Ev
FN:5743,_ZN5Catch21StreamingReporterBaseINS_21TestEventListenerBaseEED0Ev
FN:5743,_ZN5Catch21StreamingReporterBaseINS_21TestEventListenerBaseEED2Ev
FN:5745,_ZN5Catch21StreamingReporterBaseINS_11XmlReporterEE19noMatchingTestCasesERKNSt7__cxx1112basic_stringIcSt11char_traitsIcESaIcEEE
FN:5745,_ZN5Catch21StreamingReporterBaseINS_15CompactReporterEE19noMatchingTestCasesERKNSt7__cxx1112basic_stringIcSt11char_traitsIcESaIcEEE
FN:5745,_ZN5Catch21StreamingReporterBaseINS_15ConsoleReporterEE19noMatchingTestCasesERKNSt7__cxx1112basic_stringIcSt11char_traitsIcESaIcEEE
FN:5745,_ZN5Catch21StreamingReporterBaseINS_21TestEventListenerBaseEE19noMatchingTestCasesERKNSt7__cxx1112basic_stringIcSt11char_traitsIcESaIcEEE
FN:5747,_ZN5Catch21StreamingReporterBaseINS_11XmlReporterEE22reportInvalidArgumentsERKNSt7__cxx1112basic_stringIcSt11char_traitsIcESaIcEEE
FN:5747,_ZN5Catch21StreamingReporterBaseINS_15CompactReporterEE22reportInvalidArgumentsERKNSt7__cxx1112basic_stringIcSt11char_traitsIcESaIcEEE
FN:5747,_ZN5Catch21StreamingReporterBaseINS_15ConsoleReporterEE22reportInvalidArgumentsERKNSt7__cxx1112basic_stringIcSt11char_traitsIcESaIcEEE
FN:5747,_ZN5Catch21StreamingReporterBaseINS_21TestEventListenerBaseEE22reportInvalidArgumentsERKNSt7__cxx1112basic_stringIcSt11char_traitsIcESaIcEEE
FN:5749,_ZN5Catch21StreamingReporterBaseINS_11XmlReporterEE15testRunStartingERKNS_11TestRunInfoE
FN:5749,_ZN5Catch21StreamingReporterBaseINS_15CompactReporterEE15testRunStartingERKNS_11TestRunInfoE
FN:5749,_ZN5Catch21StreamingReporterBaseINS_15ConsoleReporterEE15testRunStartingERKNS_11TestRunInfoE
FN:5749,_ZN5Catch21StreamingReporterBaseINS_21TestEventListenerBaseEE15testRunStartingERKNS_11TestRunInfoE
FN:5753,_ZN5Catch21StreamingReporterBaseINS_11XmlReporterEE17testGroupStartingERKNS_9GroupInfoE
FN:5753,_ZN5Catch21StreamingReporterBaseINS_15CompactReporterEE17testGroupStartingERKNS_9GroupInfoE
FN:5753,_ZN5Catch21StreamingReporterBaseINS_15ConsoleReporterEE17testGroupStartingERKNS_9GroupInfoE
FN:5753,_ZN5Catch21StreamingReporterBaseINS_21TestEventListenerBaseEE17testGroupStartingERKNS_9GroupInfoE
FN:5757,_ZN5Catch21StreamingReporterBaseINS_11XmlReporterEE16testCaseStartingERKNS_12TestCaseInfoE
FN:5757,_ZN5Catch21StreamingReporterBaseINS_15CompactReporterEE16testCaseStartingERKNS_12TestCaseInfoE
FN:5757,_ZN5Catch21StreamingReporterBaseINS_15ConsoleReporterEE16testCaseStartingERKNS_12TestCaseInfoE
FN:5757,_ZN5Catch21StreamingReporterBaseINS_21TestEventListenerBaseEE16testCaseStartingERKNS_12TestCaseInfoE
FN:5760,_ZN5Catch21StreamingReporterBaseINS_11XmlReporterEE15sectionStartingERKNS_11SectionInfoE
FN:5760,_ZN5Catch21StreamingReporterBaseINS_15CompactReporterEE15sectionStartingERKNS_11SectionInfoE
FN:5760,_ZN5Catch21StreamingReporterBaseINS_15ConsoleReporterEE15sectionStartingERKNS_11SectionInfoE
FN:5760,_ZN5Catch21StreamingReporterBaseINS_21TestEventListenerBaseEE15sectionStartingERKNS_11SectionInfoE
FN:5764,_ZN5Catch21StreamingReporterBaseINS_11XmlReporterEE12sectionEndedERKNS_12SectionStatsE
FN:5764,_ZN5Catch21StreamingReporterBaseINS_15CompactReporterEE12sectionEndedERKNS_12SectionStatsE
FN:5764,_ZN5Catch21StreamingReporterBaseINS_15ConsoleReporterEE12sectionEndedERKNS_12SectionStatsE
FN:5764,_ZN5Catch21StreamingReporterBaseINS_21TestEventListenerBaseEE12sectionEndedERKNS_12SectionStatsE
FN:5767,_ZN5Catch21StreamingReporterBaseINS_11XmlReporterEE13testCaseEndedERKNS_13TestCaseStatsE
FN:5767,_ZN5Catch21StreamingReporterBaseINS_15CompactReporterEE13testCaseEndedERKNS_13TestCaseStatsE
FN:5767,_ZN5Catch21StreamingReporterBaseINS_15ConsoleReporterEE13testCaseEndedERKNS_13TestCaseStatsE
FN:5767,_ZN5Catch21StreamingReporterBaseINS_21TestEventListenerBaseEE13testCaseEndedERKNS_13TestCaseStatsE
FN:5770,_ZN5Catch21StreamingReporterBaseINS_11XmlReporterEE14testGroupEndedERKNS_14TestGroupStatsE
FN:5770,_ZN5Catch21StreamingReporterBaseINS_15CompactReporterEE14testGroupEndedERKNS_14TestGroupStatsE
FN:5770,_ZN5Catch21StreamingReporterBaseINS_15ConsoleReporterEE14testGroupEndedERKNS_14TestGroupStatsE
FN:5770,_ZN5Catch21StreamingReporterBaseINS_21TestEventListenerBaseEE14testGroupEndedERKNS_14TestGroupStatsE
FN:5773,_ZN5Catch21StreamingReporterBaseINS_11XmlReporterEE12testRunEndedERKNS_12TestRunStatsE
FN:5773,_ZN5Catch21StreamingReporterBaseINS_15CompactReporterEE12testRunEndedERKNS_12TestRunStatsE
FN:5773,_ZN5Catch21StreamingReporterBaseINS_15ConsoleReporterEE12testRunEndedERKNS_12TestRunStatsE
FN:5773,_ZN5Catch21StreamingReporterBaseINS_21TestEventListenerBaseEE12testRunEndedERKNS_12TestRunStatsE
FN:5779,_ZN5Catch21StreamingReporterBaseINS_11XmlReporterEE8skipTestERKNS_12TestCaseInfoE
FN:5779,_ZN5Catch21StreamingReporterBaseINS_15CompactReporterEE8skipTestERKNS_12TestCaseInfoE
FN:5779,_ZN5Catch21StreamingReporterBaseINS_15ConsoleReporterEE8skipTestERKNS_12TestCaseInfoE
FN:5779,_ZN5Catch21StreamingReporterBaseINS_21TestEventListenerBaseEE8skipTestERKNS_12TestCaseInfoE
FN:5800,_ZN5Catch22CumulativeReporterBaseINS_13JunitReporterEE4NodeINS_12TestRunStatsENS3_INS_14TestGroupStatsENS3_INS_13TestCaseStatsENS2_11SectionNodeEEEEEED0Ev
FN:5800,_ZN5Catch22CumulativeReporterBaseINS_13JunitReporterEE4NodeINS_12TestRunStatsENS3_INS_14TestGroupStatsENS3_INS_13TestCaseStatsENS2_11SectionNodeEEEEEED2Ev
FN:5800,_ZN5Catch22CumulativeReporterBaseINS_13JunitReporterEE4NodeINS_13TestCaseStatsENS2_11SectionNodeEED0Ev
FN:5800,_ZN5Catch22CumulativeReporterBaseINS_13JunitReporterEE4NodeINS_13TestCaseStatsENS2_11SectionNodeEED2Ev
FN:5800,_ZN5Catch22CumulativeReporterBaseINS_13JunitReporterEE4NodeINS_14TestGroupStatsENS3_INS_13TestCaseStatsENS2_11SectionNodeEEEED0Ev
FN:5800,_ZN5Catch22CumulativeReporterBaseINS_13JunitReporterEE4NodeINS_14TestGroupStatsENS3_INS_13TestCaseStatsENS2_11SectionNodeEEEED2Ev
FN:5807,_ZN5Catch22CumulativeReporterBaseINS_13JunitReporterEE11SectionNodeC2ERKNS_12SectionStatsE
FN:5808,_ZN5Catch22CumulativeReporterBaseINS_13JunitReporterEE11SectionNodeD0Ev
FN:5808,_ZN5Catch22CumulativeReporterBaseINS_13JunitReporterEE11SectionNodeD2Ev
FN:5829,_ZNK5Catch22CumulativeReporterBaseINS_13JunitReporterEE13BySectionInfoclERKSt10shared_ptrINS2_11SectionNodeEE
FN:5843,_ZN5Catch22CumulativeReporterBaseINS_13JunitReporterEEC2ERKNS_14ReporterConfigE
FN:5851,_ZN5Catch22CumulativeReporterBaseINS_13JunitReporterEED0Ev
FN:5851,_ZN5Catch22CumulativeReporterBaseINS_13JunitReporterEED2Ev
FN:5853,_ZNK5Catch22CumulativeReporterBaseINS_13JunitReporterEE14getPreferencesEv
FN:5861,_ZN5Catch22CumulativeReporterBaseINS_13JunitReporterEE15testRunStartingERKNS_11TestRunInfoE
FN:5862,_ZN5Catch22CumulativeReporterBaseINS_13JunitReporterEE17testGroupStartingERKNS_9GroupInfoE
FN:5864,_ZN5Catch22CumulativeReporterBaseINS_13JunitReporterEE16testCaseStartingERKNS_12TestCaseInfoE
FN:5866,_ZN5Catch22CumulativeReporterBaseINS_13JunitReporterEE15sectionStartingERKNS_11SectionInfoE
FN:5891,_ZN5Catch22CumulativeReporterBaseINS_13JunitReporterEE17assertionStartingERKNS_13AssertionInfoE
FN:5893,_ZN5Catch22CumulativeReporterBaseINS_13JunitReporterEE14assertionEndedERKNS_14AssertionStatsE
FN:5905,_ZN5Catch22CumulativeReporterBaseINS_13JunitReporterEE12sectionEndedERKNS_12SectionStatsE
FN:5911,_ZN5Catch22CumulativeReporterBaseINS_13JunitReporterEE13testCaseEndedERKNS_13TestCaseStatsE
FN:5922,_ZN5Catch22CumulativeReporterBaseINS_13JunitReporterEE14testGroupEndedERKNS_14TestGroupStatsE
FN:5927,_ZN5Catch22CumulativeReporterBaseINS_13JunitReporterEE12testRunEndedERKNS_12TestRunStatsE
FN:5935,_ZN5Catch22CumulativeReporterBaseINS_13JunitReporterEE8skipTestERKNS_12TestCaseInfoE
FN:6043,_ZNK5Catch17ReporterRegistrarINS_11XmlReporterEE15ReporterFactory6createERKNS_14ReporterConfigE
FN:6043,_ZNK5Catch17ReporterRegistrarINS_13JunitReporterEE15ReporterFactory6createERKNS_14ReporterConfigE
FN:6043,_ZNK5Catch17ReporterRegistrarINS_15CompactReporterEE15ReporterFactory6createERKNS_14ReporterConfigE
FN:6043,_ZNK5Catch17ReporterRegistrarINS_15ConsoleReporterEE15ReporterFactory6createERKNS_14ReporterConfigE
FN:6047,_ZNK5Catch17ReporterRegistrarINS_11XmlReporterEE15ReporterFactory14getDescriptionB5cxx11Ev
FN:6047,_ZNK5Catch17ReporterRegistrarINS_13JunitReporterEE15ReporterFactory14getDescriptionB5cxx11Ev
FN:6047,_ZNK5Catch17ReporterRegistrarINS_15CompactReporterEE15ReporterFactory14getDescriptionB5cxx11Ev
FN:6047,_ZNK5Catch17ReporterRegistrarINS_15ConsoleReporterEE15ReporterFactory14getDescriptionB5cxx11Ev
FN:6054,_ZN5Catch17ReporterRegistrarINS_11XmlReporterEEC2ERKNSt7__cxx1112basic_stringIcSt11char_traitsIcESaIcEEE
FN:6054,_ZN5Catch17ReporterRegistrarINS_13JunitReporterEEC2ERKNSt7__cxx1112basic_stringIcSt11char_traitsIcESaIcEEE
FN:6054,_ZN5Catch17ReporterRegistrarINS_15CompactReporterEEC2ERKNSt7__cxx1112basic_stringIcSt11char_traitsIcESaIcEEE
FN:6054,_ZN5Catch17ReporterRegistrarINS_15ConsoleReporterEEC2ERKNSt7__cxx1112basic_stringIcSt11char_traitsIcESaIcEEE
FN:6279,_ZN5Catch9XmlWriter14writeAttributeIA12_cEERS0_RKNSt7__cxx1112basic_stringIcSt11char_traitsIcESaIcEEERKT_
FN:6279,_ZN5Catch9XmlWriter14writeAttributeIA1_cEERS0_RKNSt7__cxx1112basic_stringIcSt11char_traitsIcESaIcEEERKT_
FN:6279,_ZN5Catch9XmlWriter14writeAttributeIA4_cEERS0_RKNSt7__cxx1112basic_stringIcSt11char_traitsIcESaIcEEERKT_
FN:6279,_ZN5Catch9XmlWriter14writeAttributeIA5_cEERS0_RKNSt7__cxx1112basic_stringIcSt11char_traitsIcESaIcEEERKT_
FN:6279,_ZN5Catch9XmlWriter14writeAttributeIA8_cEERS0_RKNSt7__cxx1112basic_stringIcSt11char_traitsIcESaIcEEERKT_
FN:6279,_ZN5Catch9XmlWriter14writeAttributeINS_9StringRefEEERS0_RKNSt7__cxx1112basic_stringIcSt11char_traitsIcESaIcEEERKT_
FN:6279,_ZN5Catch9XmlWriter14writeAttributeIPKcEERS0_RKNSt7__cxx1112basic_stringIcSt11char_traitsIcESaIcEEERKT_
FN:6279,_ZN5Catch9XmlWriter14writeAttributeIdEERS0_RKNSt7__cxx1112basic_stringIcSt11char_traitsIcESaIcEEERKT_
FN:6279,_ZN5Catch9XmlWriter14writeAttributeIjEERS0_RKNSt7__cxx1112basic_stringIcSt11char_traitsIcESaIcEEERKT_
FN:6279,_ZN5Catch9XmlWriter14writeAttributeImEERS0_RKNSt7__cxx1112basic_stringIcSt11char_traitsIcESaIcEEERKT_
FN:7467,_ZN5Catch16TestCaseTrackingeqERKNS0_15NameAndLocationES3_
FN:7564,_ZNK5Catch16TestCaseTracking11TrackerBase10hasStartedEv
FN:7858,_ZN5Catch6Detail6ApproxC2Ed
FN:7865,_ZN5Catch6Detail6Approx6customEv
FN:7869,_ZNK5Catch6Detail6ApproxngEv
FN:7875,_ZNK5Catch6Detail6Approx8toStringB5cxx11Ev
FN:7881,_ZNK5Catch6Detail6Approx22equalityComparisonImplEd
FN:7888,_ZN5Catch6Detail6Approx9setMarginEd
FN:7895,_ZN5Catch6Detail6Approx10setEpsilonEd
FN:7905,_ZN5Catch8literalsli2_aEe
FN:7908,_ZN5Catch8literalsli2_aEy
FN:7913,_ZN5Catch11StringMakerINS_6Detail6ApproxEvE7convertB5cxx11ERKS2_
FN:8203,_ZN5Catch14LazyExpressionC2Eb
FN:8207,_ZN5Catch14LazyExpressionC2ERKS0_
FN:8209,_ZNK5Catch14LazyExpressioncvbEv
FN:8213,_ZN5CatchlsERSoRKNS_14LazyExpressionE
FN:8229,_ZN5Catch16AssertionHandlerC2ERKNS_9StringRefERKNS_14SourceLineInfoES1_NS_17ResultDisposition5FlagsE
FN:8238,_ZN5Catch16AssertionHandler10handleExprERKNS_20ITransientExpressionE
FN:8241,_ZN5Catch16AssertionHandler13handleMessageENS_9ResultWas6OfTypeERKNS_9StringRefE
FN:8245,_ZNK5Catch16AssertionHandler11allowThrowsEv
FN:8249,_ZN5Catch16AssertionHandler8completeEv
FN:8267,_ZN5Catch16AssertionHandler12setCompletedEv
FN:8271,_ZN5Catch16AssertionHandler33handleUnexpectedInflightExceptionEv
FN:8275,_ZN5Catch16AssertionHandler31handleExceptionThrownAsExpectedEv
FN:8278,_ZN5Catch16AssertionHandler34handleExceptionNotThrownAsExpectedEv
FN:8282,_ZN5Catch16AssertionHandler34handleUnexpectedExceptionNotThrownEv
FN:8286,_ZN5Catch16AssertionHandler25handleThrowingCallSkippedEv
FN:8292,_ZN5Catch24handleExceptionMatchExprERNS_16AssertionHandlerERKNSt7__cxx1112basic_stringIcSt11char_traitsIcESaIcEEERKNS_9StringRefE
FN:8301,_ZN5Catch19AssertionResultDataC2ENS_9ResultWas6OfTypeERKNS_14LazyExpressionE
FN:8305,_ZNK5Catch19AssertionResultData21reconstructExpressionB5cxx11Ev
FN:8317,_ZN5Catch15AssertionResultC2ERKNS_13AssertionInfoERKNS_19AssertionResultDataE
FN:8323,_ZNK5Catch15AssertionResult9succeededEv
FN:8328,_ZNK5Catch15AssertionResult4isOkEv
FN:8332,_ZNK5Catch15AssertionResult13getResultTypeEv
FN:8336,_ZNK5Catch15AssertionResult13hasExpressionEv
FN:8340,_ZNK5Catch15AssertionResult10hasMessageEv
FN:8344,_ZNK5Catch15AssertionResult13getExpressionB5cxx11Ev
FN:8357,_ZNK5Catch15AssertionResult20getExpressionInMacroB5cxx11Ev
FN:8371,_ZNK5Catch15AssertionResult21hasExpandedExpressionEv
FN:8375,_ZNK5Catch15AssertionResult21getExpandedExpressionB5cxx11Ev
FN:8382,_ZNK5Catch15AssertionResult10getMessageB5cxx11Ev
FN:8385,_ZNK5Catch15AssertionResult13getSourceInfoEv
FN:8389,_ZNK5Catch15AssertionResult16getTestMacroNameEv
FN:8404,_ZN5Catch24handleExceptionMatchExprERNS_16AssertionHandlerERKNS_8Matchers4Impl11MatcherBaseINSt7__cxx1112basic_stringIcSt11char_traitsIcESaIcEEEEERKNS_9StringRefE
FN:8485,_ZN5Catch5clara8TextFlow12isWhitespaceEc
FN:8489,_ZN5Catch5clara8TextFlow17isBreakableBeforeEc
FN:8493,_ZN5Catch5clara8TextFlow16isBreakableAfterEc
FN:8524,_ZNK5Catch5clara8TextFlow6Column8iterator10isBoundaryEm
FN:8534,_ZN5Catch5clara8TextFlow6Column8iterator10calcLengthEv
FN:8569,_ZNK5Catch5clara8TextFlow6Column8iterator18addIndentAndSuffixERKNSt7__cxx1112basic_stringIcSt11char_traitsIcESaIcEEE
FN:8580,_ZN5Catch5clara8TextFlow6Column8iteratorC2ERKS2_
FN:8588,_ZNK5Catch5clara8TextFlow6Column8iteratordeB5cxx11Ev
FN:8594,_ZN5Catch5clara8TextFlow6Column8iteratorppEv
FN:8628,_ZN5Catch5clara8TextFlow6ColumnC2ERKNSt7__cxx1112basic_stringIcSt11char_traitsIcESaIcEEE
FN:8648,_ZN5Catch5clara8TextFlowlsERSoRKNS1_6ColumnE
FN:8672,_ZN5Catch5clara8TextFlow6SpacerC2Em
FN:8690,_ZN5Catch5clara8TextFlow7Columns8iteratorC2ERKS2_NS3_6EndTagE
FN:8706,_ZN5Catch5clara8TextFlow7Columns8iteratorC2ERKS2_
FN:8721,_ZNK5Catch5clara8TextFlow7Columns8iteratordeB5cxx11Ev
FN:8739,_ZN5Catch5clara8TextFlow7Columns8iteratorppEv
FN:8761,_ZN5Catch5clara8TextFlow7ColumnsplERKNS1_6ColumnE
FN:8767,_ZN5Catch5clara8TextFlowlsERSoRKNS1_7ColumnsE
FN:8787,_ZN5Catch5clara8TextFlow6ColumnplERKS2_
FN:8839,_ZN5Catch5clara6detail4ArgsC2EiPKPKc
FN:8878,_ZN5Catch5clara6detail11TokenStream10loadBufferEv
FN:8912,_ZN5Catch5clara6detail11TokenStreamC2EN9__gnu_cxx17__normal_iteratorIPKNSt7__cxx1112basic_stringIcSt11char_traitsIcESaIcEEESt6vectorISA_SaISA_EEEESG_
FN:8922,_ZNK5Catch5clara6detail11TokenStreamdeEv
FN:8932,_ZN5Catch5clara6detail11TokenStreamppEv
FN:8979,_ZN5Catch5clara6detail15ResultValueBaseINS1_10ParseStateEEaSERKS4_
FN:9008,_ZN5Catch5clara6detail11BasicResultINS1_10ParseStateEEC2INS1_15ParseResultTypeEEERKNS2_IT_EE
FN:9008,_ZN5Catch5clara6detail11BasicResultINS1_10ParseStateEEC2IvEERKNS2_IT_EE
FN:9026,_ZNK5Catch5clara6detail11BasicResultINS1_10ParseStateEE9enforceOkEv
FN:9026,_ZNK5Catch5clara6detail11BasicResultINS1_15ParseResultTypeEE9enforceOkEv
FN:9026,_ZNK5Catch5clara6detail11BasicResultIvE9enforceOkEv
FN:9038,_ZN5Catch5clara6detail11BasicResultINS1_10ParseStateEEC2ENS1_10ResultBase4TypeERKNSt7__cxx1112basic_stringIcSt11char_traitsIcESaIcEEE
FN:9038,_ZN5Catch5clara6detail11BasicResultINS1_15ParseResultTypeEEC2ENS1_10ResultBase4TypeERKNSt7__cxx1112basic_stringIcSt11char_traitsIcESaIcEEE
FN:9038,_ZN5Catch5clara6detail11BasicResultIvEC2ENS1_10ResultBase4TypeERKNSt7__cxx1112basic_stringIcSt11char_traitsIcESaIcEEE
FN:9079,_ZN5Catch5clara6detail11convertIntoIdEENS1_11BasicResultINS1_15ParseResultTypeEEERKNSt7__cxx1112basic_stringIcSt11char_traitsIcESaIcEEERT_
FN:9079,_ZN5Catch5clara6detail11convertIntoIiEENS1_11BasicResultINS1_15ParseResultTypeEEERKNSt7__cxx1112basic_stringIcSt11char_traitsIcESaIcEEERT_
FN:9079,_ZN5Catch5clara6detail11convertIntoIjEENS1_11BasicResultINS1_15ParseResultTypeEEERKNSt7__cxx1112basic_stringIcSt11char_traitsIcESaIcEEERT_
FN:9079,_ZN5Catch5clara6detail11convertIntoIlEENS1_11BasicResultINS1_15ParseResultTypeEEERKNSt7__cxx1112basic_stringIcSt11char_traitsIcESaIcEEERT_
FN:9092,_ZN5Catch5clara6detail11convertIntoERKNSt7__cxx1112basic_stringIcSt11char_traitsIcESaIcEEERb
FN:9124,_ZNK5Catch5clara6detail8BoundRef11isContainerEv
FN:9125,_ZNK5Catch5clara6detail8BoundRef6isFlagEv
FN:9132,_ZNK5Catch5clara6detail16BoundFlagRefBase6isFlagEv
FN:9141,_ZN5Catch5clara6detail13BoundValueRefINSt7__cxx1112basic_stringIcSt11char_traitsIcESaIcEEEE8setValueERKS8_
FN:9141,_ZN5Catch5clara6detail13BoundValueRefIdE8setValueERKNSt7__cxx1112basic_stringIcSt11char_traitsIcESaIcEEE
FN:9141,_ZN5Catch5clara6detail13BoundValueRefIjE8setValueERKNSt7__cxx1112basic_stringIcSt11char_traitsIcESaIcEEE
FN:9141,_ZN5Catch5clara6detail13BoundValueRefIlE8setValueERKNSt7__cxx1112basic_stringIcSt11char_traitsIcESaIcEEE
FN:9152,_ZNK5Catch5clara6detail13BoundValueRefISt6vectorINSt7__cxx1112basic_stringIcSt11char_traitsIcESaIcEEESaIS9_EEE11isContainerEv
FN:9154,_ZN5Catch5clara6detail13BoundValueRefISt6vectorINSt7__cxx1112basic_stringIcSt11char_traitsIcESaIcEEESaIS9_EEE8setValueERKS9_
FN:9168,_ZN5Catch5clara6detail12BoundFlagRef7setFlagEb
FN:9194,_ZN5Catch5clara6detail12invokeLambdaINSt7__cxx1112basic_stringIcSt11char_traitsIcESaIcEEEZNS_21makeCommandLineParserERNS_10ConfigDataEEUlRKS8_E0_EENS1_11BasicResultINS1_15ParseResultTypeEEERKT0_SC_
FN:9194,_ZN5Catch5clara6detail12invokeLambdaINSt7__cxx1112basic_stringIcSt11char_traitsIcESaIcEEEZNS_21makeCommandLineParserERNS_10ConfigDataEEUlRKS8_E1_EENS1_11BasicResultINS1_15ParseResultTypeEEERKT0_SC_
FN:9194,_ZN5Catch5clara6detail12invokeLambdaINSt7__cxx1112basic_stringIcSt11char_traitsIcESaIcEEEZNS_21makeCommandLineParserERNS_10ConfigDataEEUlRKS8_E2_EENS1_11BasicResultINS1_15ParseResultTypeEEERKT0_SC_
FN:9194,_ZN5Catch5clara6detail12invokeLambdaINSt7__cxx1112basic_stringIcSt11char_traitsIcESaIcEEEZNS_21makeCommandLineParserERNS_10ConfigDataEEUlRKS8_E3_EENS1_11BasicResultINS1_15ParseResultTypeEEERKT0_SC_
FN:9194,_ZN5Catch5clara6detail12invokeLambdaINSt7__cxx1112basic_stringIcSt11char_traitsIcESaIcEEEZNS_21makeCommandLineParserERNS_10ConfigDataEEUlRKS8_E4_EENS1_11BasicResultINS1_15ParseResultTypeEEERKT0_SC_
FN:9194,_ZN5Catch5clara6detail12invokeLambdaINSt7__cxx1112basic_stringIcSt11char_traitsIcESaIcEEEZNS_21makeCommandLineParserERNS_10ConfigDataEEUlRKS8_E5_EENS1_11BasicResultINS1_15ParseResultTypeEEERKT0_SC_
FN:9194,_ZN5Catch5clara6detail12invokeLambdaINSt7__cxx1112basic_stringIcSt11char_traitsIcESaIcEEEZNS_21makeCommandLineParserERNS_10ConfigDataEEUlRKS8_E6_EENS1_11BasicResultINS1_15ParseResultTypeEEERKT0_SC_
FN:9194,_ZN5Catch5clara6detail12invokeLambdaINSt7__cxx1112basic_stringIcSt11char_traitsIcESaIcEEEZNS_21makeCommandLineParserERNS_10ConfigDataEEUlRKS8_E_EENS1_11BasicResultINS1_15ParseResultTypeEEERKT0_SC_
FN:9194,_ZN5Catch5clara6detail12invokeLambdaIbZNS_21makeCommandLineParserERNS_10ConfigDataEEUlbE9_EENS1_11BasicResultINS1_15ParseResultTypeEEERKT0_RKNSt7__cxx1112basic_stringIcSt11char_traitsIcESaIcEEE
FN:9194,_ZN5Catch5clara6detail12invokeLambdaIiZNS_21makeCommandLineParserERNS_10ConfigDataEEUliE8_EENS1_11BasicResultINS1_15ParseResultTypeEEERKT0_RKNSt7__cxx1112basic_stringIcSt11char_traitsIcESaIcEEE
FN:9209,_ZN5Catch5clara6detail11BoundLambdaIZNS_21makeCommandLineParserERNS_10ConfigDataEEUlRKNSt7__cxx1112basic_stringIcSt11char_traitsIcESaIcEEEE0_E8setValueESC_
FN:9209,_ZN5Catch5clara6detail11BoundLambdaIZNS_21makeCommandLineParserERNS_10ConfigDataEEUlRKNSt7__cxx1112basic_stringIcSt11char_traitsIcESaIcEEEE1_E8setValueESC_
FN:9209,_ZN5Catch5clara6detail11BoundLambdaIZNS_21makeCommandLineParserERNS_10ConfigDataEEUlRKNSt7__cxx1112basic_stringIcSt11char_traitsIcESaIcEEEE2_E8setValueESC_
FN:9209,_ZN5Catch5clara6detail11BoundLambdaIZNS_21makeCommandLineParserERNS_10ConfigDataEEUlRKNSt7__cxx1112basic_stringIcSt11char_traitsIcESaIcEEEE3_E8setValueESC_
FN:9209,_ZN5Catch5clara6detail11BoundLambdaIZNS_21makeCommandLineParserERNS_10ConfigDataEEUlRKNSt7__cxx1112basic_stringIcSt11char_traitsIcESaIcEEEE4_E8setValueESC_
FN:9209,_ZN5Catch5clara6detail11BoundLambdaIZNS_21makeCommandLineParserERNS_10ConfigDataEEUlRKNSt7__cxx1112basic_stringIcSt11char_traitsIcESaIcEEEE5_E8setValueESC_
FN:9209,_ZN5Catch5clara6detail11BoundLambdaIZNS_21makeCommandLineParserERNS_10ConfigDataEEUlRKNSt7__cxx1112basic_stringIcSt11char_traitsIcESaIcEEEE6_E8setValueESC_
FN:9209,_ZN5Catch5clara6detail11BoundLambdaIZNS_21makeCommandLineParserERNS_10ConfigDataEEUlRKNSt7__cxx1112basic_stringIcSt11char_traitsIcESaIcEEEE_E8setValueESC_
FN:9209,_ZN5Catch5clara6detail11BoundLambdaIZNS_21makeCommandLineParserERNS_10ConfigDataEEUlbE9_E8setValueERKNSt7__cxx1112basic_stringIcSt11char_traitsIcESaIcEEE
FN:9209,_ZN5Catch5clara6detail11BoundLambdaIZNS_21makeCommandLineParserERNS_10ConfigDataEEUliE8_E8setValueERKNSt7__cxx1112basic_stringIcSt11char_traitsIcESaIcEEE
FN:9223,_ZN5Catch5clara6detail15BoundFlagLambdaIZNS1_4HelpC4ERbEUlbE_E7setFlagEb
FN:9223,_ZN5Catch5clara6detail15BoundFlagLambdaIZNS_21makeCommandLineParserERNS_10ConfigDataEEUlbE7_E7setFlagEb
FN:9235,_ZNK5Catch5clara6detail10ParserBase8validateEv
FN:9237,_ZNK5Catch5clara6detail10ParserBase11cardinalityEv
FN:9239,_ZNK5Catch5clara6detail10ParserBase5parseERKNS1_4ArgsE
FN:9263,_ZN5Catch5clara6detail13ParserRefImplINS1_3OptEEC2ERKSt10shared_ptrINS1_8BoundRefEE
FN:9267,_ZN5Catch5clara6detail13ParserRefImplINS1_3ArgEEC2ISt6vectorINSt7__cxx1112basic_stringIcSt11char_traitsIcESaIcEEESaISC_EEEERT_RKSC_
FN:9267,_ZN5Catch5clara6detail13ParserRefImplINS1_3OptEEC2INSt7__cxx1112basic_stringIcSt11char_traitsIcESaIcEEEEERT_RKSB_
FN:9267,_ZN5Catch5clara6detail13ParserRefImplINS1_3OptEEC2ISt6vectorINSt7__cxx1112basic_stringIcSt11char_traitsIcESaIcEEESaISC_EEEERT_RKSC_
FN:9267,_ZN5Catch5clara6detail13ParserRefImplINS1_3OptEEC2IdEERT_RKNSt7__cxx1112basic_stringIcSt11char_traitsIcESaIcEEE
FN:9267,_ZN5Catch5clara6detail13ParserRefImplINS1_3OptEEC2IjEERT_RKNSt7__cxx1112basic_stringIcSt11char_traitsIcESaIcEEE
FN:9267,_ZN5Catch5clara6detail13ParserRefImplINS1_3OptEEC2IlEERT_RKNSt7__cxx1112basic_stringIcSt11char_traitsIcESaIcEEE
FN:9273,_ZN5Catch5clara6detail13ParserRefImplINS1_3OptEEC2IZNS_21makeCommandLineParserERNS_10ConfigDataEEUlRKNSt7__cxx1112basic_stringIcSt11char_traitsIcESaIcEEEE0_EERKT_SF_
FN:9273,_ZN5Catch5clara6detail13ParserRefImplINS1_3OptEEC2IZNS_21makeCommandLineParserERNS_10ConfigDataEEUlRKNSt7__cxx1112basic_stringIcSt11char_traitsIcESaIcEEEE1_EERKT_SF_
FN:9273,_ZN5Catch5clara6detail13ParserRefImplINS1_3OptEEC2IZNS_21makeCommandLineParserERNS_10ConfigDataEEUlRKNSt7__cxx1112basic_stringIcSt11char_traitsIcESaIcEEEE2_EERKT_SF_
FN:9273,_ZN5Catch5clara6detail13ParserRefImplINS1_3OptEEC2IZNS_21makeCommandLineParserERNS_10ConfigDataEEUlRKNSt7__cxx1112basic_stringIcSt11char_traitsIcESaIcEEEE3_EERKT_SF_
FN:9273,_ZN5Catch5clara6detail13ParserRefImplINS1_3OptEEC2IZNS_21makeCommandLineParserERNS_10ConfigDataEEUlRKNSt7__cxx1112basic_stringIcSt11char_traitsIcESaIcEEEE4_EERKT_SF_
FN:9273,_ZN5Catch5clara6detail13ParserRefImplINS1_3OptEEC2IZNS_21makeCommandLineParserERNS_10ConfigDataEEUlRKNSt7__cxx1112basic_stringIcSt11char_traitsIcESaIcEEEE5_EERKT_SF_
FN:9273,_ZN5Catch5clara6detail13ParserRefImplINS1_3OptEEC2IZNS_21makeCommandLineParserERNS_10ConfigDataEEUlRKNSt7__cxx1112basic_stringIcSt11char_traitsIcESaIcEEEE6_EERKT_SF_
FN:9273,_ZN5Catch5clara6detail13ParserRefImplINS1_3OptEEC2IZNS_21makeCommandLineParserERNS_10ConfigDataEEUlRKNSt7__cxx1112basic_stringIcSt11char_traitsIcESaIcEEEE_EERKT_SF_
FN:9273,_ZN5Catch5clara6detail13ParserRefImplINS1_3OptEEC2IZNS_21makeCommandLineParserERNS_10ConfigDataEEUlbE9_EERKT_RKNSt7__cxx1112basic_stringIcSt11char_traitsIcESaIcEEE
FN:9273,_ZN5Catch5clara6detail13ParserRefImplINS1_3OptEEC2IZNS_21makeCommandLineParserERNS_10ConfigDataEEUliE8_EERKT_RKNSt7__cxx1112basic_stringIcSt11char_traitsIcESaIcEEE
FN:9297,_ZNK5Catch5clara6detail13ParserRefImplINS1_3ArgEE11cardinalityEv
FN:9297,_ZNK5Catch5clara6detail13ParserRefImplINS1_3OptEE11cardinalityEv
FN:9319,_ZN5Catch5clara6detail7ExeNameC2ERNSt7__cxx1112basic_stringIcSt11char_traitsIcESaIcEEE
FN:9329,_ZNK5Catch5clara6detail7ExeName5parseERKNSt7__cxx1112basic_stringIcSt11char_traitsIcESaIcEEERKNS1_11TokenStreamE
FN:9334,_ZN5Catch5clara6detail7ExeName3setERKNSt7__cxx1112basic_stringIcSt11char_traitsIcESaIcEEE
FN:9353,_ZNK5Catch5clara6detail3Arg5parseERKNSt7__cxx1112basic_stringIcSt11char_traitsIcESaIcEEERKNS1_11TokenStreamE
FN:9389,_ZN5Catch5clara6detail3OptC2IZNS1_4HelpC4ERbEUlbE_EERKT_
FN:9389,_ZN5Catch5clara6detail3OptC2IZNS_21makeCommandLineParserERNS_10ConfigDataEEUlbE7_EERKT_
FN:9391,_ZN5Catch5clara6detail3OptC2ERb
FN:9404,_ZNK5Catch5clara6detail3Opt14getHelpColumnsEv
FN:9419,_ZNK5Catch5clara6detail3Opt7isMatchERKNSt7__cxx1112basic_stringIcSt11char_traitsIcESaIcEEE
FN:9430,_ZNK5Catch5clara6detail3Opt5parseERKNSt7__cxx1112basic_stringIcSt11char_traitsIcESaIcEEERKNS1_11TokenStreamE
FN:9466,_ZNK5Catch5clara6detail3Opt8validateEv
FN:9485,_ZN5Catch5clara6detail4HelpC2ERb
FN:9526,_ZNK5Catch5clara6detail6ParserorINS1_3ArgEEES2_RKT_
FN:9526,_ZNK5Catch5clara6detail6ParserorINS1_3OptEEES2_RKT_
FN:9526,_ZNK5Catch5clara6detail6ParserorINS1_4HelpEEES2_RKT_
FN:9526,_ZNK5Catch5clara6detail6ParserorINS1_7ExeNameEEES2_RKT_
FN:9536,_ZNK5Catch5clara6detail6Parser14getHelpColumnsEv
FN:9545,_ZNK5Catch5clara6detail6Parser13writeToStreamERSo
FN:9591,_ZNK5Catch5clara6detail6Parser8validateEv
FN:9607,_ZNK5Catch5clara6detail6Parser5parseERKNSt7__cxx1112basic_stringIcSt11char_traitsIcESaIcEEERKNS1_11TokenStreamE
FN:9656,_ZNK5Catch5clara6detail20ComposableParserImplINS1_7ExeNameEEorINS1_4HelpEEENS1_6ParserERKT_
FN:9711,_ZN5Catch21makeCommandLineParserERNS_10ConfigDataE
FN:9715,_ZZN5Catch21makeCommandLineParserERNS_10ConfigDataEENKUlRKNSt7__cxx1112basic_stringIcSt11char_traitsIcESaIcEEEE_clES9_
FN:9716,_ZZZN5Catch21makeCommandLineParserERNS_10ConfigDataEENKUlRKNSt7__cxx1112basic_stringIcSt11char_traitsIcESaIcEEEE_clES9_ENKUlvE_clEv
FN:9731,_ZZN5Catch21makeCommandLineParserERNS_10ConfigDataEENKUlRKNSt7__cxx1112basic_stringIcSt11char_traitsIcESaIcEEEE0_clES9_
FN:9752,_ZZN5Catch21makeCommandLineParserERNS_10ConfigDataEENKUlRKNSt7__cxx1112basic_stringIcSt11char_traitsIcESaIcEEEE1_clES9_
FN:9763,_ZZN5Catch21makeCommandLineParserERNS_10ConfigDataEENKUlRKNSt7__cxx1112basic_stringIcSt11char_traitsIcESaIcEEEE2_clES9_
FN:9769,_ZZN5Catch21makeCommandLineParserERNS_10ConfigDataEENKUlRKNSt7__cxx1112basic_stringIcSt11char_traitsIcESaIcEEEE3_clES9_
FN:9782,_ZZN5Catch21makeCommandLineParserERNS_10ConfigDataEENKUlRKNSt7__cxx1112basic_stringIcSt11char_traitsIcESaIcEEEE4_clES9_
FN:9796,_ZZN5Catch21makeCommandLineParserERNS_10ConfigDataEENKUlRKNSt7__cxx1112basic_stringIcSt11char_traitsIcESaIcEEEE5_clES9_
FN:9808,_ZZN5Catch21makeCommandLineParserERNS_10ConfigDataEENKUlRKNSt7__cxx1112basic_stringIcSt11char_traitsIcESaIcEEEE6_clES9_
FN:9929,_ZNK5Catch14SourceLineInfoeqERKS0_
FN:9932,_ZNK5Catch14SourceLineInfoltERKS0_
FN:9938,_ZN5CatchlsERSoRKNS_14SourceLineInfoE
FN:9947,_ZNK5Catch13StreamEndStoppsB5cxx11Ev
FN:9951,_ZN5Catch11NonCopyableC2Ev
FN:9952,_ZN5Catch11NonCopyableD0Ev
FN:9952,_ZN5Catch11NonCopyableD2Ev
FN:9960,_ZN5Catch6ConfigC2ERKNS_10ConfigDataE
FN:9985,_ZNK5Catch6Config11getFilenameB5cxx11Ev
FN:9989,_ZNK5Catch6Config9listTestsEv
FN:9990,_ZNK5Catch6Config17listTestNamesOnlyEv
FN:9991,_ZNK5Catch6Config8listTagsEv
FN:9992,_ZNK5Catch6Config13listReportersEv
FN:9994,_ZNK5Catch6Config14getProcessNameB5cxx11Ev
FN:9995,_ZNK5Catch6Config15getReporterNameB5cxx11Ev
FN:9997,_ZNK5Catch6Config14getTestsOrTagsB5cxx11Ev
FN:9998,_ZNK5Catch6Config16getSectionsToRunB5cxx11Ev
FN:10000,_ZNK5Catch6Config8testSpecEv
FN:10001,_ZNK5Catch6Config14hasTestFiltersEv
FN:10003,_ZNK5Catch6Config8showHelpEv
FN:10006,_ZNK5Catch6Config11allowThrowsEv
FN:10007,_ZNK5Catch6Config6streamEv
FN:10008,_ZNK5Catch6Config4nameB5cxx11Ev
FN:10009,_ZNK5Catch6Config24includeSuccessfulResultsEv
FN:10010,_ZNK5Catch6Config26warnAboutMissingAssertionsEv
FN:10011,_ZNK5Catch6Config16warnAboutNoTestsEv
FN:10012,_ZNK5Catch6Config13showDurationsEv
FN:10013,_ZNK5Catch6Config11minDurationEv
FN:10014,_ZNK5Catch6Config8runOrderEv
FN:10015,_ZNK5Catch6Config7rngSeedEv
FN:10016,_ZNK5Catch6Config9useColourEv
FN:10017,_ZNK5Catch6Config16shouldDebugBreakEv
FN:10018,_ZNK5Catch6Config10abortAfterEv
FN:10019,_ZNK5Catch6Config14showInvisiblesEv
FN:10020,_ZNK5Catch6Config9verbosityEv
FN:10022,_ZNK5Catch6Config19benchmarkNoAnalysisEv
FN:10023,_ZNK5Catch6Config16benchmarkSamplesEv
FN:10024,_ZNK5Catch6Config27benchmarkConfidenceIntervalEv
FN:10025,_ZNK5Catch6Config18benchmarkResamplesEv
FN:10026,_ZNK5Catch6Config19benchmarkWarmupTimeEv
FN:10028,_ZN5Catch6Config10openStreamEv
FN:10067,_ZN5Catch12_GLOBAL__N_112NoColourImpl3useENS_6Colour4CodeE
FN:10069,_ZN5Catch12_GLOBAL__N_112NoColourImpl8instanceEv
FN:10164,_ZN5Catch12_GLOBAL__N_115PosixColourImpl3useENS_6Colour4CodeE
FN:10185,_ZN5Catch12_GLOBAL__N_115PosixColourImpl8instanceEv
FN:10191,_ZN5Catch12_GLOBAL__N_115PosixColourImpl9setColourEPKc
FN:10209,_ZN5Catch12_GLOBAL__N_122platformColourInstanceEv
FN:10239,_ZN5Catch6ColourC2ENS0_4CodeE
FN:10240,_ZN5Catch6ColourC2EOS0_
FN:10244,_ZN5Catch6ColouraSEOS0_
FN:10250,_ZN5Catch6ColourD2Ev
FN:10252,_ZN5Catch6Colour3useENS0_4CodeE
FN:10263,_ZN5CatchlsERSoRKNS_6ColourE
FN:10281,_ZN5Catch7Context16getResultCaptureEv
FN:10284,_ZN5Catch7Context9getRunnerEv
FN:10288,_ZNK5Catch7Context9getConfigEv
FN:10295,_ZN5Catch7Context16setResultCaptureEPNS_14IResultCaptureE
FN:10298,_ZN5Catch7Context9setRunnerEPNS_7IRunnerE
FN:10301,_ZN5Catch7Context9setConfigERKSt10shared_ptrIKNS_7IConfigEE
FN:10315,_ZN5Catch15IMutableContext13createContextEv
FN:10320,_ZN5Catch14cleanUpContextEv
FN:10324,_ZN5Catch8IContextD0Ev
FN:10324,_ZN5Catch8IContextD2Ev
FN:10325,_ZN5Catch15IMutableContextD0Ev
FN:10325,_ZN5Catch15IMutableContextD2Ev
FN:10326,_ZN5Catch7ContextD0Ev
FN:10326,_ZN5Catch7ContextD2Ev
FN:10328,_ZN5Catch3rngEv
FN:10366,_ZN5Catch19writeToDebugConsoleERKNSt7__cxx1112basic_stringIcSt11char_traitsIcESaIcEEE
FN:10447,_ZN5Catch16isDebuggerActiveEv
FN:10489,_ZN5Catch20ITransientExpressionD0Ev
FN:10489,_ZN5Catch20ITransientExpressionD2Ev
FN:10491,_ZN5Catch29formatReconstructedExpressionERSoRKNSt7__cxx1112basic_stringIcSt11char_traitsIcESaIcEEENS_9StringRefES8_
FN:10516,_ZN5Catch17throw_logic_errorERKNSt7__cxx1112basic_stringIcSt11char_traitsIcESaIcEEE
FN:10521,_ZN5Catch18throw_domain_errorERKNSt7__cxx1112basic_stringIcSt11char_traitsIcESaIcEEE
FN:10526,_ZN5Catch19throw_runtime_errorERKNSt7__cxx1112basic_stringIcSt11char_traitsIcESaIcEEE
FN:10564,_ZN5Catch26IMutableEnumValuesRegistryD0Ev
FN:10564,_ZN5Catch26IMutableEnumValuesRegistryD2Ev
FN:10571,_ZN5Catch6Detail12_GLOBAL__N_119extractInstanceNameENS_9StringRefE
FN:10581,_ZN5Catch6Detail10parseEnumsENS_9StringRefE
FN:10591,_ZN5Catch6Detail8EnumInfoD2Ev
FN:10593,_ZNK5Catch6Detail8EnumInfo6lookupEi
FN:10601,_ZN5Catch6Detail12makeEnumInfoENS_9StringRefES1_RKSt6vectorIiSaIiEE
FN:10615,_ZN5Catch6Detail18EnumValuesRegistry12registerEnumENS_9StringRefES2_RKSt6vectorIiSaIiEE
FN:10629,_ZN5Catch10ErrnoGuardC2Ev
FN:10630,_ZN5Catch10ErrnoGuardD2Ev
FN:10662,_ZN5Catch27ExceptionTranslatorRegistryD0Ev
FN:10662,_ZN5Catch27ExceptionTranslatorRegistryD2Ev
FN:10665,_ZN5Catch27ExceptionTranslatorRegistry18registerTranslatorEPKNS_20IExceptionTranslatorE
FN:10670,_ZNK5Catch27ExceptionTranslatorRegistry24translateActiveExceptionB5cxx11Ev
FN:10712,_ZNK5Catch27ExceptionTranslatorRegistry14tryTranslatorsB5cxx11Ev
FN:10743,_ZN12_GLOBAL__N_111reportFatalEPKc
FN:10829,_ZN5Catch21FatalConditionHandler12handleSignalEi
FN:10842,_ZN5Catch21FatalConditionHandlerC2Ev
FN:10858,_ZN5Catch21FatalConditionHandlerD2Ev
FN:10862,_ZN5Catch21FatalConditionHandler5resetEv
FN:10900,_ZN5Catch17IGeneratorTrackerD0Ev
FN:10900,_ZN5Catch17IGeneratorTrackerD2Ev
FN:10902,_ZNK5Catch18GeneratorException4whatEv
FN:10908,_ZN5Catch10Generators20GeneratorUntypedBaseD0Ev
FN:10908,_ZN5Catch10Generators20GeneratorUntypedBaseD2Ev
FN:10910,_ZN5Catch10Generators23acquireGeneratorTrackerENS_9StringRefERKNS_14SourceLineInfoE
FN:10920,_ZN5Catch14IResultCaptureD0Ev
FN:10920,_ZN5Catch14IResultCaptureD2Ev
FN:10926,_ZN5Catch7IConfigD0Ev
FN:10926,_ZN5Catch7IConfigD2Ev
FN:10932,_ZN5Catch20IExceptionTranslatorD0Ev
FN:10932,_ZN5Catch20IExceptionTranslatorD2Ev
FN:10933,_ZN5Catch28IExceptionTranslatorRegistryD0Ev
FN:10933,_ZN5Catch28IExceptionTranslatorRegistryD2Ev
FN:10939,_ZN5Catch12IRegistryHubD0Ev
FN:10939,_ZN5Catch12IRegistryHubD2Ev
FN:10940,_ZN5Catch19IMutableRegistryHubD0Ev
FN:10940,_ZN5Catch19IMutableRegistryHubD2Ev
FN:11001,_ZN5Catch14ReporterConfigC2ERKSt10shared_ptrIKNS_7IConfigEE
FN:11004,_ZN5Catch14ReporterConfigC2ERKSt10shared_ptrIKNS_7IConfigEERSo
FN:11007,_ZNK5Catch14ReporterConfig6streamEv
FN:11008,_ZNK5Catch14ReporterConfig10fullConfigEv
FN:11010,_ZN5Catch11TestRunInfoC2ERKNSt7__cxx1112basic_stringIcSt11char_traitsIcESaIcEEE
FN:11012,_ZN5Catch9GroupInfoC2ERKNSt7__cxx1112basic_stringIcSt11char_traitsIcESaIcEEEmm
FN:11020,_ZN5Catch14AssertionStatsC2ERKNS_15AssertionResultERKSt6vectorINS_11MessageInfoESaIS5_EERKNS_6TotalsE
FN:11040,_ZN5Catch14AssertionStatsD0Ev
FN:11040,_ZN5Catch14AssertionStatsD2Ev
FN:11042,_ZN5Catch12SectionStatsC2ERKNS_11SectionInfoERKNS_6CountsEdb
FN:11052,_ZN5Catch12SectionStatsD0Ev
FN:11052,_ZN5Catch12SectionStatsD2Ev
FN:11054,_ZN5Catch13TestCaseStatsC2ERKNS_12TestCaseInfoERKNS_6TotalsERKNSt7__cxx1112basic_stringIcSt11char_traitsIcESaIcEEESE_b
FN:11066,_ZN5Catch13TestCaseStatsD0Ev
FN:11066,_ZN5Catch13TestCaseStatsD2Ev
FN:11068,_ZN5Catch14TestGroupStatsC2ERKNS_9GroupInfoERKNS_6TotalsEb
FN:11076,_ZN5Catch14TestGroupStatsC2ERKNS_9GroupInfoE
FN:11081,_ZN5Catch14TestGroupStatsD0Ev
FN:11081,_ZN5Catch14TestGroupStatsD2Ev
FN:11083,_ZN5Catch12TestRunStatsC2ERKNS_11TestRunInfoERKNS_6TotalsEb
FN:11091,_ZN5Catch12TestRunStatsD0Ev
FN:11091,_ZN5Catch12TestRunStatsD2Ev
FN:11093,_ZN5Catch18IStreamingReporter21fatalErrorEncounteredENS_9StringRefE
FN:11094,_ZNK5Catch18IStreamingReporter7isMultiEv
FN:11096,_ZN5Catch16IReporterFactoryD0Ev
FN:11096,_ZN5Catch16IReporterFactoryD2Ev
FN:11097,_ZN5Catch17IReporterRegistryD0Ev
FN:11097,_ZN5Catch17IReporterRegistryD2Ev
FN:11104,_ZN5Catch7IRunnerD0Ev
FN:11104,_ZN5Catch7IRunnerD2Ev
FN:11110,_ZN5Catch12ITestInvokerD0Ev
FN:11110,_ZN5Catch12ITestInvokerD2Ev
FN:11111,_ZN5Catch17ITestCaseRegistryD0Ev
FN:11111,_ZN5Catch17ITestCaseRegistryD2Ev
FN:11135,_ZN5Catch12LeakDetectorC2Ev
FN:11139,_ZN5Catch12LeakDetectorD2Ev
FN:11185,_ZN5Catch9listTestsERKNS_6ConfigE
FN:11219,_ZN5Catch18listTestsNamesOnlyERKNS_6ConfigE
FN:11236,_ZN5Catch7TagInfo3addERKNSt7__cxx1112basic_stringIcSt11char_traitsIcESaIcEEE
FN:11241,_ZNK5Catch7TagInfo3allB5cxx11Ev
FN:11257,_ZN5Catch8listTagsERKNS_6ConfigE
FN:11292,_ZN5Catch13listReportersEv
FN:11314,_ZN5Catch4listERKSt10shared_ptrINS_6ConfigEE
FN:11336,_ZNK5Catch8Matchers4Impl18MatcherUntypedBase8toStringB5cxx11Ev
FN:11342,_ZN5Catch8Matchers4Impl18MatcherUntypedBaseD0Ev
FN:11342,_ZN5Catch8Matchers4Impl18MatcherUntypedBaseD2Ev
FN:11358,_ZNK5Catch8Matchers9Exception23ExceptionMessageMatcher5matchERKSt9exception
FN:11362,_ZNK5Catch8Matchers9Exception23ExceptionMessageMatcher8describeB5cxx11Ev
FN:11367,_ZN5Catch8Matchers7MessageERKNSt7__cxx1112basic_stringIcSt11char_traitsIcESaIcEEE
FN:11481,_ZN5Catch12_GLOBAL__N_15writeIdEEvRSoT_
FN:11481,_ZN5Catch12_GLOBAL__N_15writeIfEEvRSoT_
FN:11497,_ZN5Catch8Matchers8Floating16WithinAbsMatcherC2Edd
FN:11505,_ZNK5Catch8Matchers8Floating16WithinAbsMatcher5matchERKd
FN:11509,_ZNK5Catch8Matchers8Floating16WithinAbsMatcher8describeB5cxx11Ev
FN:11513,_ZN5Catch8Matchers8Floating17WithinUlpsMatcherC2EdmNS1_17FloatingPointKindE
FN:11526,_ZNK5Catch8Matchers8Floating17WithinUlpsMatcher5matchERKd
FN:11541,_ZNK5Catch8Matchers8Floating17WithinUlpsMatcher8describeB5cxx11Ev
FN:11569,_ZN5Catch8Matchers8Floating16WithinRelMatcherC2Edd
FN:11576,_ZNK5Catch8Matchers8Floating16WithinRelMatcher5matchERKd
FN:11582,_ZNK5Catch8Matchers8Floating16WithinRelMatcher8describeB5cxx11Ev
FN:11590,_ZN5Catch8Matchers9WithinULPEdm
FN:11594,_ZN5Catch8Matchers9WithinULPEfm
FN:11598,_ZN5Catch8Matchers9WithinAbsEdd
FN:11602,_ZN5Catch8Matchers9WithinRelEdd
FN:11606,_ZN5Catch8Matchers9WithinRelEd
FN:11610,_ZN5Catch8Matchers9WithinRelEff
FN:11614,_ZN5Catch8Matchers9WithinRelEf
FN:11624,_ZN5Catch8Matchers7Generic6Detail19finalizeDescriptionERKNSt7__cxx1112basic_stringIcSt11char_traitsIcESaIcEEE
FN:11641,_ZN5Catch8Matchers9StdString11CasedStringC2ERKNSt7__cxx1112basic_stringIcSt11char_traitsIcESaIcEEENS_13CaseSensitive6ChoiceE
FN:11645,_ZNK5Catch8Matchers9StdString11CasedString12adjustStringERKNSt7__cxx1112basic_stringIcSt11char_traitsIcESaIcEEE
FN:11650,_ZNK5Catch8Matchers9StdString11CasedString21caseSensitivitySuffixB5cxx11Ev
FN:11656,_ZN5Catch8Matchers9StdString17StringMatcherBaseC2ERKNSt7__cxx1112basic_stringIcSt11char_traitsIcESaIcEEERKNS1_11CasedStringE
FN:11661,_ZNK5Catch8Matchers9StdString17StringMatcherBase8describeB5cxx11Ev
FN:11673,_ZN5Catch8Matchers9StdString13EqualsMatcherC2ERKNS1_11CasedStringE
FN:11675,_ZNK5Catch8Matchers9StdString13EqualsMatcher5matchERKNSt7__cxx1112basic_stringIcSt11char_traitsIcESaIcEEE
FN:11679,_ZN5Catch8Matchers9StdString15ContainsMatcherC2ERKNS1_11CasedStringE
FN:11681,_ZNK5Catch8Matchers9StdString15ContainsMatcher5matchERKNSt7__cxx1112basic_stringIcSt11char_traitsIcESaIcEEE
FN:11685,_ZN5Catch8Matchers9StdString17StartsWithMatcherC2ERKNS1_11CasedStringE
FN:11687,_ZNK5Catch8Matchers9StdString17StartsWithMatcher5matchERKNSt7__cxx1112basic_stringIcSt11char_traitsIcESaIcEEE
FN:11691,_ZN5Catch8Matchers9StdString15EndsWithMatcherC2ERKNS1_11CasedStringE
FN:11693,_ZNK5Catch8Matchers9StdString15EndsWithMatcher5matchERKNSt7__cxx1112basic_stringIcSt11char_traitsIcESaIcEEE
FN:11697,_ZN5Catch8Matchers9StdString12RegexMatcherC2ENSt7__cxx1112basic_stringIcSt11char_traitsIcESaIcEEENS_13CaseSensitive6ChoiceE
FN:11699,_ZNK5Catch8Matchers9StdString12RegexMatcher5matchERKNSt7__cxx1112basic_stringIcSt11char_traitsIcESaIcEEE
FN:11708,_ZNK5Catch8Matchers9StdString12RegexMatcher8describeB5cxx11Ev
FN:11714,_ZN5Catch8Matchers6EqualsERKNSt7__cxx1112basic_stringIcSt11char_traitsIcESaIcEEENS_13CaseSensitive6ChoiceE
FN:11717,_ZN5Catch8Matchers8ContainsERKNSt7__cxx1112basic_stringIcSt11char_traitsIcESaIcEEENS_13CaseSensitive6ChoiceE
FN:11720,_ZN5Catch8Matchers8EndsWithERKNSt7__cxx1112basic_stringIcSt11char_traitsIcESaIcEEENS_13CaseSensitive6ChoiceE
FN:11723,_ZN5Catch8Matchers10StartsWithERKNSt7__cxx1112basic_stringIcSt11char_traitsIcESaIcEEENS_13CaseSensitive6ChoiceE
FN:11727,_ZN5Catch8Matchers7MatchesERKNSt7__cxx1112basic_stringIcSt11char_traitsIcESaIcEEENS_13CaseSensitive6ChoiceE
FN:11748,_ZN5Catch11MessageInfoC2ERKNS_9StringRefERKNS_14SourceLineInfoENS_9ResultWas6OfTypeE
FN:11757,_ZNK5Catch11MessageInfoeqERKS0_
FN:11761,_ZNK5Catch11MessageInfoltERKS0_
FN:11770,_ZN5Catch14MessageBuilderC2ERKNS_9StringRefERKNS_14SourceLineInfoENS_9ResultWas6OfTypeE
FN:11777,_ZN5Catch13ScopedMessageC2ERKNS_14MessageBuilderE
FN:11784,_ZN5Catch13ScopedMessageC2EOS0_
FN:11790,_ZN5Catch13ScopedMessageD2Ev
FN:11796,_ZN5Catch8CapturerC2ENS_9StringRefERKNS_14SourceLineInfoENS_9ResultWas6OfTypeES1_
FN:11797,_ZZN5Catch8CapturerC4ENS_9StringRefERKNS_14SourceLineInfoENS_9ResultWas6OfTypeES1_ENKUlmmE_clEmm
FN:11806,_ZZN5Catch8CapturerC4ENS_9StringRefERKNS_14SourceLineInfoENS_9ResultWas6OfTypeES1_ENKUlmcE0_clEmc
FN:11853,_ZN5Catch8CapturerD2Ev
FN:11861,_ZN5Catch8Capturer12captureValueEmRKNSt7__cxx1112basic_stringIcSt11char_traitsIcESaIcEEE
FN:11998,_ZN5Catch16RedirectedStreamC2ERSoS1_
FN:12006,_ZN5Catch16RedirectedStreamD2Ev
FN:12010,_ZN5Catch16RedirectedStdOutC2Ev
FN:12011,_ZNK5Catch16RedirectedStdOut3strB5cxx11Ev
FN:12013,_ZN5Catch16RedirectedStdErrC2Ev
FN:12017,_ZNK5Catch16RedirectedStdErr3strB5cxx11Ev
FN:12019,_ZN5Catch17RedirectedStreamsC2ERNSt7__cxx1112basic_stringIcSt11char_traitsIcESaIcEEES7_
FN:12024,_ZN5Catch17RedirectedStreamsD2Ev
FN:12122,_ZN5Catch5isnanEf
FN:12125,_ZN5Catch5isnanEd
FN:12163,_ZN5Catch11SimplePcg32C2Ej
FN:12167,_ZN5Catch11SimplePcg324seedEj
FN:12174,_ZN5Catch11SimplePcg327discardEm
FN:12182,_ZN5Catch11SimplePcg32clEv
FN:12193,_ZN5CatcheqERKNS_11SimplePcg32ES2_
FN:12197,_ZN5CatchneERKNS_11SimplePcg32ES2_
FN:12228,_ZN5Catch12TestRegistryD0Ev
FN:12228,_ZN5Catch12TestRegistryD2Ev
FN:12357,_ZN5Catch9SingletonINS_12_GLOBAL__N_111RegistryHubENS_12IRegistryHubENS_19IMutableRegistryHubEE11getInternalEv
FN:12357,_ZN5Catch9SingletonINS_13StringStreamsES1_S1_E11getInternalEv
FN:12386,_ZN5Catch12_GLOBAL__N_111RegistryHubC2Ev
FN:12387,_ZNK5Catch12_GLOBAL__N_111RegistryHub19getReporterRegistryEv
FN:12390,_ZNK5Catch12_GLOBAL__N_111RegistryHub19getTestCaseRegistryEv
FN:12393,_ZNK5Catch12_GLOBAL__N_111RegistryHub30getExceptionTranslatorRegistryEv
FN:12396,_ZNK5Catch12_GLOBAL__N_111RegistryHub19getTagAliasRegistryEv
FN:12399,_ZNK5Catch12_GLOBAL__N_111RegistryHub27getStartupExceptionRegistryEv
FN:12404,_ZN5Catch12_GLOBAL__N_111RegistryHub16registerReporterERKNSt7__cxx1112basic_stringIcSt11char_traitsIcESaIcEEERKSt10shared_ptrINS_16IReporterFactoryEE
FN:12407,_ZN5Catch12_GLOBAL__N_111RegistryHub16registerListenerERKSt10shared_ptrINS_16IReporterFactoryEE
FN:12410,_ZN5Catch12_GLOBAL__N_111RegistryHub12registerTestERKNS_8TestCaseE
FN:12413,_ZN5Catch12_GLOBAL__N_111RegistryHub18registerTranslatorEPKNS_20IExceptionTranslatorE
FN:12416,_ZN5Catch12_GLOBAL__N_111RegistryHub16registerTagAliasERKNSt7__cxx1112basic_stringIcSt11char_traitsIcESaIcEEES9_RKNS_14SourceLineInfoE
FN:12419,_ZN5Catch12_GLOBAL__N_111RegistryHub24registerStartupExceptionEv
FN:12426,_ZN5Catch12_GLOBAL__N_111RegistryHub28getMutableEnumValuesRegistryEv
FN:12442,_ZN5Catch14getRegistryHubEv
FN:12445,_ZN5Catch21getMutableRegistryHubEv
FN:12448,_ZN5Catch7cleanUpEv
FN:12452,_ZN5Catch24translateActiveExceptionB5cxx11Ev
FN:12462,_ZN5Catch16ReporterRegistryD0Ev
FN:12462,_ZN5Catch16ReporterRegistryD2Ev
FN:12464,_ZNK5Catch16ReporterRegistry6createERKNSt7__cxx1112basic_stringIcSt11char_traitsIcESaIcEEERKSt10shared_ptrIKNS_7IConfigEE
FN:12471,_ZN5Catch16ReporterRegistry16registerReporterERKNSt7__cxx1112basic_stringIcSt11char_traitsIcESaIcEEERKSt10shared_ptrINS_16IReporterFactoryEE
FN:12474,_ZN5Catch16ReporterRegistry16registerListenerERKSt10shared_ptrINS_16IReporterFactoryEE
FN:12478,_ZNK5Catch16ReporterRegistry12getFactoriesB5cxx11Ev
FN:12481,_ZNK5Catch16ReporterRegistry12getListenersEv
FN:12491,_ZN5Catch4isOkENS_9ResultWas6OfTypeE
FN:12494,_ZN5Catch10isJustInfoEi
FN:12498,_ZN5CatchorENS_17ResultDisposition5FlagsES1_
FN:12502,_ZN5Catch23shouldContinueOnFailureEi
FN:12503,_ZN5Catch21shouldSuppressFailureEi
FN:12524,_ZN5Catch10Generators16GeneratorTracker7acquireERNS_16TestCaseTracking14TrackerContextERKNS2_15NameAndLocationE
FN:12561,_ZNK5Catch10Generators16GeneratorTracker18isGeneratorTrackerEv
FN:12562,_ZNK5Catch10Generators16GeneratorTracker12hasGeneratorEv
FN:12565,_ZN5Catch10Generators16GeneratorTracker5closeEv
FN:12595,_ZNK5Catch10Generators16GeneratorTracker12getGeneratorEv
FN:12598,_ZN5Catch10Generators16GeneratorTracker12setGeneratorEOSt10unique_ptrINS0_20GeneratorUntypedBaseESt14default_deleteIS3_EE
FN:12602,_ZN5Catch10Generators16GeneratorTrackerD0Ev
FN:12602,_ZN5Catch10Generators16GeneratorTrackerD2Ev
FN:12605,_ZN5Catch10RunContextC2ERKSt10shared_ptrIKNS_7IConfigEEOSt10unique_ptrINS_18IStreamingReporterESt14default_deleteIS8_EE
FN:12619,_ZN5Catch10RunContextD0Ev
FN:12619,_ZN5Catch10RunContextD2Ev
FN:12623,_ZN5Catch10RunContext17testGroupStartingERKNSt7__cxx1112basic_stringIcSt11char_traitsIcESaIcEEEmm
FN:12627,_ZN5Catch10RunContext14testGroupEndedERKNSt7__cxx1112basic_stringIcSt11char_traitsIcESaIcEEERKNS_6TotalsEmm
FN:12631,_ZN5Catch10RunContext7runTestERKNS_8TestCaseE
FN:12671,_ZNK5Catch10RunContext6configEv
FN:12675,_ZNK5Catch10RunContext8reporterEv
FN:12679,_ZN5Catch10RunContext14assertionEndedERKNS_15AssertionResultE
FN:12705,_ZN5Catch10RunContext18resetAssertionInfoEv
FN:12710,_ZN5Catch10RunContext14sectionStartedERKNS_11SectionInfoERNS_6CountsE
FN:12724,_ZN5Catch10RunContext23acquireGeneratorTrackerENS_9StringRefERKNS_14SourceLineInfoE
FN:12732,_ZN5Catch10RunContext24testForMissingAssertionsERNS_6CountsE
FN:12744,_ZN5Catch10RunContext12sectionEndedERKNS_14SectionEndInfoE
FN:12758,_ZN5Catch10RunContext17sectionEndedEarlyERKNS_14SectionEndInfoE
FN:12783,_ZN5Catch10RunContext17pushScopedMessageERKNS_11MessageInfoE
FN:12787,_ZN5Catch10RunContext16popScopedMessageERKNS_11MessageInfoE
FN:12791,_ZN5Catch10RunContext22emplaceUnscopedMessageERKNS_14MessageBuilderE
FN:12795,_ZNK5Catch10RunContext18getCurrentTestNameB5cxx11Ev
FN:12801,_ZNK5Catch10RunContext13getLastResultEv
FN:12805,_ZN5Catch10RunContext22exceptionEarlyReportedEv
FN:12809,_ZN5Catch10RunContext25handleFatalErrorConditionENS_9StringRefE
FN:12847,_ZN5Catch10RunContext19lastAssertionPassedEv
FN:12851,_ZN5Catch10RunContext15assertionPassedEv
FN:12858,_ZNK5Catch10RunContext8abortingEv
FN:12862,_ZN5Catch10RunContext14runCurrentTestERNSt7__cxx1112basic_stringIcSt11char_traitsIcESaIcEEES7_
FN:12913,_ZN5Catch10RunContext20invokeActiveTestCaseEv
FN:12919,_ZN5Catch10RunContext24handleUnfinishedSectionsEv
FN:12930,_ZN5Catch10RunContext10handleExprERKNS_13AssertionInfoERKNS_20ITransientExpressionERNS_17AssertionReactionE
FN:12953,_ZN5Catch10RunContext10reportExprERKNS_13AssertionInfoENS_9ResultWas6OfTypeEPKNS_20ITransientExpressionEb
FN:12968,_ZN5Catch10RunContext13handleMessageERKNS_13AssertionInfoENS_9ResultWas6OfTypeERKNS_9StringRefERNS_17AssertionReactionE
FN:12985,_ZN5Catch10RunContext34handleUnexpectedExceptionNotThrownERKNS_13AssertionInfoERNS_17AssertionReactionE
FN:12992,_ZN5Catch10RunContext33handleUnexpectedInflightExceptionERKNS_13AssertionInfoERKNSt7__cxx1112basic_stringIcSt11char_traitsIcESaIcEEERNS_17AssertionReactionE
FN:13006,_ZN5Catch10RunContext16populateReactionERNS_17AssertionReactionE
FN:13011,_ZN5Catch10RunContext16handleIncompleteERKNS_13AssertionInfoE
FN:13021,_ZN5Catch10RunContext13handleNonExprERKNS_13AssertionInfoENS_9ResultWas6OfTypeERNS_17AssertionReactionE
FN:13036,_ZN5Catch16getResultCaptureEv
FN:13043,_ZN5Catch7seedRngERKNS_7IConfigE
FN:13050,_ZN5Catch7rngSeedEv
FN:13060,_ZN5Catch7SectionC2ERKNS_11SectionInfoE
FN:13067,_ZN5Catch7SectionD0Ev
FN:13067,_ZN5Catch7SectionD2Ev
FN:13078,_ZNK5Catch7SectioncvbEv
FN:13088,_ZN5Catch11SectionInfoC2ERKNS_14SourceLineInfoERKNSt7__cxx1112basic_stringIcSt11char_traitsIcESaIcEEE
FN:13190,_ZN5Catch12_GLOBAL__N_114createReporterERKNSt7__cxx1112basic_stringIcSt11char_traitsIcESaIcEEERKSt10shared_ptrIKNS_7IConfigEE
FN:13197,_ZN5Catch12_GLOBAL__N_112makeReporterERKSt10shared_ptrINS_6ConfigEE
FN:13219,_ZN5Catch12_GLOBAL__N_19TestGroupC2ERKSt10shared_ptrINS_6ConfigEE
FN:13237,_ZN5Catch12_GLOBAL__N_19TestGroup7executeEv
FN:13273,_ZN5Catch12_GLOBAL__N_120applyFilenamesAsTagsERKNS_7IConfigE
FN:13297,_ZN5Catch7SessionC2Ev
FN:13328,_ZN5Catch7SessionD0Ev
FN:13328,_ZN5Catch7SessionD2Ev
FN:13332,_ZNK5Catch7Session8showHelpEv
FN:13338,_ZN5Catch7Session11libIdentifyEv
FN:13346,_ZN5Catch7Session16applyCommandLineEiPKPKc
FN:13395,_ZN5Catch7Session13useConfigDataERKNS_10ConfigDataE
FN:13400,_ZN5Catch7Session3runEv
FN:13413,_ZNK5Catch7Session3cliEv
FN:13416,_ZN5Catch7Session3cliERKNS_5clara6detail6ParserE
FN:13419,_ZN5Catch7Session10configDataEv
FN:13422,_ZN5Catch7Session6configEv
FN:13428,_ZN5Catch7Session11runInternalEv
FN:13476,_ZN5Catch12_GLOBAL__N_1L13getSingletonsEv
FN:13484,_ZN5Catch10ISingletonD0Ev
FN:13484,_ZN5Catch10ISingletonD2Ev
FN:13486,_ZN5Catch12addSingletonEPNS_10ISingletonE
FN:13489,_ZN5Catch17cleanupSingletonsEv
FN:13503,_ZN5Catch24StartupExceptionRegistry3addERKNSt15__exception_ptr13exception_ptrE
FN:13512,_ZNK5Catch24StartupExceptionRegistry13getExceptionsEv
FN:13530,_ZN5Catch7IStreamD0Ev
FN:13530,_ZN5Catch7IStreamD2Ev
FN:13543,_ZN5Catch6Detail12_GLOBAL__N_113StreamBufImplINS1_17OutputDebugWriterELm256EED0Ev
FN:13543,_ZN5Catch6Detail12_GLOBAL__N_113StreamBufImplINS1_17OutputDebugWriterELm256EED2Ev
FN:13548,_ZN5Catch6Detail12_GLOBAL__N_113StreamBufImplINS1_17OutputDebugWriterELm256EE8overflowEi
FN:13560,_ZN5Catch6Detail12_GLOBAL__N_113StreamBufImplINS1_17OutputDebugWriterELm256EE4syncEv
FN:13583,_ZN5Catch6Detail12_GLOBAL__N_110FileStreamC2ENS_9StringRefE
FN:13587,_ZN5Catch6Detail12_GLOBAL__N_110FileStreamD0Ev
FN:13587,_ZN5Catch6Detail12_GLOBAL__N_110FileStreamD2Ev
FN:13589,_ZNK5Catch6Detail12_GLOBAL__N_110FileStream6streamEv
FN:13602,_ZN5Catch6Detail12_GLOBAL__N_110CoutStreamD0Ev
FN:13602,_ZN5Catch6Detail12_GLOBAL__N_110CoutStreamD2Ev
FN:13605,_ZNK5Catch6Detail12_GLOBAL__N_110CoutStream6streamEv
FN:13614,_ZN5Catch6Detail12_GLOBAL__N_114DebugOutStreamC2Ev
FN:13619,_ZN5Catch6Detail12_GLOBAL__N_114DebugOutStreamD0Ev
FN:13619,_ZN5Catch6Detail12_GLOBAL__N_114DebugOutStreamD2Ev
FN:13622,_ZNK5Catch6Detail12_GLOBAL__N_114DebugOutStream6streamEv
FN:13629,_ZN5Catch10makeStreamERKNS_9StringRefE
FN:13648,_ZN5Catch13StringStreams3addEv
FN:13660,_ZN5Catch13StringStreams7releaseEm
FN:13666,_ZN5Catch20ReusableStringStreamC2Ev
FN:13671,_ZN5Catch20ReusableStringStreamD0Ev
FN:13671,_ZN5Catch20ReusableStringStreamD2Ev
FN:13677,_ZNK5Catch20ReusableStringStream3strB5cxx11Ev
FN:13684,_ZN5Catch4coutEv
FN:13685,_ZN5Catch4cerrEv
FN:13686,_ZN5Catch4clogEv
FN:13701,_ZN5Catch12_GLOBAL__N_19toLowerChEc
FN:13706,_ZN5Catch10startsWithERKNSt7__cxx1112basic_stringIcSt11char_traitsIcESaIcEEES7_
FN:13709,_ZN5Catch10startsWithERKNSt7__cxx1112basic_stringIcSt11char_traitsIcESaIcEEEc
FN:13712,_ZN5Catch8endsWithERKNSt7__cxx1112basic_stringIcSt11char_traitsIcESaIcEEES7_
FN:13715,_ZN5Catch8endsWithERKNSt7__cxx1112basic_stringIcSt11char_traitsIcESaIcEEEc
FN:13718,_ZN5Catch8containsERKNSt7__cxx1112basic_stringIcSt11char_traitsIcESaIcEEES7_
FN:13721,_ZN5Catch14toLowerInPlaceERNSt7__cxx1112basic_stringIcSt11char_traitsIcESaIcEEE
FN:13724,_ZN5Catch7toLowerERKNSt7__cxx1112basic_stringIcSt11char_traitsIcESaIcEEE
FN:13729,_ZN5Catch4trimERKNSt7__cxx1112basic_stringIcSt11char_traitsIcESaIcEEE
FN:13737,_ZN5Catch4trimENS_9StringRefE
FN:13749,_ZN5Catch14replaceInPlaceERNSt7__cxx1112basic_stringIcSt11char_traitsIcESaIcEEERKS5_S8_
FN:13763,_ZN5Catch14splitStringRefENS_9StringRefEc
FN:13778,_ZN5Catch9pluraliseC2EmRKNSt7__cxx1112basic_stringIcSt11char_traitsIcESaIcEEE
FN:13783,_ZN5CatchlsERSoRKNS_9pluraliseE
FN:13800,_ZN5Catch9StringRefC2EPKc
FN:13804,_ZNK5Catch9StringRef5c_strEv
FN:13808,_ZNK5Catch9StringRef4dataEv
FN:13812,_ZNK5Catch9StringRef6substrEmm
FN:13819,_ZNK5Catch9StringRefeqERKS0_
FN:13824,_ZN5CatchlsERSoRKNS_9StringRefE
FN:13828,_ZN5CatchpLERNSt7__cxx1112basic_stringIcSt11char_traitsIcESaIcEEERKNS_9StringRefE
FN:13838,_ZN5Catch8TagAliasC2ERKNSt7__cxx1112basic_stringIcSt11char_traitsIcESaIcEEENS_14SourceLineInfoE
FN:13845,_ZN5Catch22RegistrarForTagAliasesC2EPKcS2_RKNS_14SourceLineInfoE
FN:13862,_ZN5Catch16TagAliasRegistryD0Ev
FN:13862,_ZN5Catch16TagAliasRegistryD2Ev
FN:13864,_ZNK5Catch16TagAliasRegistry4findERKNSt7__cxx1112basic_stringIcSt11char_traitsIcESaIcEEE
FN:13872,_ZNK5Catch16TagAliasRegistry13expandAliasesERKNSt7__cxx1112basic_stringIcSt11char_traitsIcESaIcEEE
FN:13885,_ZN5Catch16TagAliasRegistry3addERKNSt7__cxx1112basic_stringIcSt11char_traitsIcESaIcEEES8_RKNS_14SourceLineInfoE
FN:13895,_ZN5Catch17ITagAliasRegistryD0Ev
FN:13895,_ZN5Catch17ITagAliasRegistryD2Ev
FN:13897,_ZN5Catch17ITagAliasRegistry3getEv
FN:13913,_ZN5Catch12_GLOBAL__N_115parseSpecialTagERKNSt7__cxx1112basic_stringIcSt11char_traitsIcESaIcEEE
FN:13930,_ZN5Catch12_GLOBAL__N_113isReservedTagERKNSt7__cxx1112basic_stringIcSt11char_traitsIcESaIcEEE
FN:13933,_ZN5Catch12_GLOBAL__N_121enforceNotReservedTagERKNSt7__cxx1112basic_stringIcSt11char_traitsIcESaIcEEERKNS_14SourceLineInfoE
FN:13941,_ZN5Catch12makeTestCaseEPNS_12ITestInvokerERKNSt7__cxx1112basic_stringIcSt11char_traitsIcESaIcEEERKNS_11NameAndTagsERKNS_14SourceLineInfoE
FN:13990,_ZN5Catch7setTagsERNS_12TestCaseInfoESt6vectorINSt7__cxx1112basic_stringIcSt11char_traitsIcESaIcEEESaIS8_EE
FN:14003,_ZN5Catch12TestCaseInfoC2ERKNSt7__cxx1112basic_stringIcSt11char_traitsIcESaIcEEES8_S8_RKSt6vectorIS6_SaIS6_EERKNS_14SourceLineInfoE
FN:14017,_ZNK5Catch12TestCaseInfo8isHiddenEv
FN:14020,_ZNK5Catch12TestCaseInfo6throwsEv
FN:14023,_ZNK5Catch12TestCaseInfo8okToFailEv
FN:14026,_ZNK5Catch12TestCaseInfo14expectedToFailEv
FN:14030,_ZNK5Catch12TestCaseInfo12tagsAsStringB5cxx11Ev
FN:14047,_ZN5Catch8TestCaseC2EPNS_12ITestInvokerEONS_12TestCaseInfoE
FN:14049,_ZNK5Catch8TestCase8withNameERKNSt7__cxx1112basic_stringIcSt11char_traitsIcESaIcEEE
FN:14055,_ZNK5Catch8TestCase6invokeEv
FN:14059,_ZNK5Catch8TestCaseeqERKS0_
FN:14065,_ZNK5Catch8TestCaseltERKS0_
FN:14069,_ZNK5Catch8TestCase15getTestCaseInfoEv
FN:14085,_ZN5Catch12_GLOBAL__N_110TestHasherC2ERNS_11SimplePcg32E
FN:14106,_ZN5Catch9sortTestsERKNS_7IConfigERKSt6vectorINS_8TestCaseESaIS4_EE
FN:14151,_ZN5Catch11isThrowSafeERKNS_8TestCaseERKNS_7IConfigE
FN:14155,_ZN5Catch9matchTestERKNS_8TestCaseERKNS_8TestSpecERKNS_7IConfigE
FN:14159,_ZN5Catch27enforceNoDuplicateTestCasesERKSt6vectorINS_8TestCaseESaIS1_EE
FN:14170,_ZN5Catch11filterTestsERKSt6vectorINS_8TestCaseESaIS1_EERKNS_8TestSpecERKNS_7IConfigE
FN:14181,_ZN5Catch21getAllTestCasesSortedERKNS_7IConfigE
FN:14185,_ZN5Catch12TestRegistry12registerTestERKNS_8TestCaseE
FN:14195,_ZNK5Catch12TestRegistry11getAllTestsEv
FN:14198,_ZNK5Catch12TestRegistry17getAllTestsSortedERKNS_7IConfigE
FN:14210,_ZN5Catch21TestInvokerAsFunctionC2EPFvvE
FN:14212,_ZNK5Catch21TestInvokerAsFunction6invokeEv
FN:14216,_ZN5Catch16extractClassNameB5cxx11ERKNS_9StringRefE
FN:14247,_ZN5Catch16TestCaseTracking15NameAndLocationC2ERKNSt7__cxx1112basic_stringIcSt11char_traitsIcESaIcEEERKNS_14SourceLineInfoE
FN:14252,_ZN5Catch16TestCaseTracking8ITrackerD0Ev
FN:14252,_ZN5Catch16TestCaseTracking8ITrackerD2Ev
FN:14254,_ZN5Catch16TestCaseTracking14TrackerContext8startRunEv
FN:14261,_ZN5Catch16TestCaseTracking14TrackerContext6endRunEv
FN:14267,_ZN5Catch16TestCaseTracking14TrackerContext10startCycleEv
FN:14271,_ZN5Catch16TestCaseTracking14TrackerContext13completeCycleEv
FN:14275,_ZNK5Catch16TestCaseTracking14TrackerContext14completedCycleEv
FN:14278,_ZN5Catch16TestCaseTracking14TrackerContext14currentTrackerEv
FN:14281,_ZN5Catch16TestCaseTracking14TrackerContext17setCurrentTrackerEPNS0_8ITrackerE
FN:14285,_ZN5Catch16TestCaseTracking11TrackerBaseC2ERKNS0_15NameAndLocationERNS0_14TrackerContextEPNS0_8ITrackerE
FN:14291,_ZNK5Catch16TestCaseTracking11TrackerBase10isCompleteEv
FN:14294,_ZNK5Catch16TestCaseTracking11TrackerBase23isSuccessfullyCompletedEv
FN:14297,_ZNK5Catch16TestCaseTracking11TrackerBase6isOpenEv
FN:14300,_ZNK5Catch16TestCaseTracking11TrackerBase11hasChildrenEv
FN:14304,_ZN5Catch16TestCaseTracking11TrackerBase8addChildERKSt10shared_ptrINS0_8ITrackerEE
FN:14308,_ZN5Catch16TestCaseTracking11TrackerBase9findChildERKNS0_15NameAndLocationE
FN:14310,_ZZN5Catch16TestCaseTracking11TrackerBase9findChildERKNS0_15NameAndLocationEENKUlRKSt10shared_ptrINS0_8ITrackerEEE_clES9_
FN:14319,_ZN5Catch16TestCaseTracking11TrackerBase6parentEv
FN:14324,_ZN5Catch16TestCaseTracking11TrackerBase9openChildEv
FN:14332,_ZNK5Catch16TestCaseTracking11TrackerBase16isSectionTrackerEv
FN:14333,_ZNK5Catch16TestCaseTracking11TrackerBase18isGeneratorTrackerEv
FN:14335,_ZN5Catch16TestCaseTracking11TrackerBase4openEv
FN:14342,_ZN5Catch16TestCaseTracking11TrackerBase5closeEv
FN:14371,_ZN5Catch16TestCaseTracking11TrackerBase4failEv
FN:14378,_ZN5Catch16TestCaseTracking11TrackerBase23markAsNeedingAnotherRunEv
FN:14382,_ZN5Catch16TestCaseTracking11TrackerBase12moveToParentEv
FN:14386,_ZN5Catch16TestCaseTracking11TrackerBase10moveToThisEv
FN:14390,_ZN5Catch16TestCaseTracking14SectionTrackerC2ERKNS0_15NameAndLocationERNS0_14TrackerContextEPNS0_8ITrackerE
FN:14403,_ZNK5Catch16TestCaseTracking14SectionTracker10isCompleteEv
FN:14414,_ZNK5Catch16TestCaseTracking14SectionTracker16isSectionTrackerEv
FN:14416,_ZN5Catch16TestCaseTracking14SectionTracker7acquireERNS0_14TrackerContextERKNS0_15NameAndLocationE
FN:14434,_ZN5Catch16TestCaseTracking14SectionTracker7tryOpenEv
FN:14439,_ZN5Catch16TestCaseTracking14SectionTracker17addInitialFiltersERKSt6vectorINSt7__cxx1112basic_stringIcSt11char_traitsIcESaIcEEESaIS8_EE
FN:14447,_ZN5Catch16TestCaseTracking14SectionTracker14addNextFiltersERKSt6vectorINSt7__cxx1112basic_stringIcSt11char_traitsIcESaIcEEESaIS8_EE
FN:14468,_ZN5Catch15makeTestInvokerEPFvvE
FN:14472,_ZN5Catch11NameAndTagsC2ERKNS_9StringRefES3_
FN:14474,_ZN5Catch7AutoRegC2EPNS_12ITestInvokerERKNS_14SourceLineInfoERKNS_9StringRefERKNS_11NameAndTagsE
FN:14489,_ZN5Catch7AutoRegD0Ev
FN:14489,_ZN5Catch7AutoRegD2Ev
FN:14501,_ZN5Catch8TestSpec7PatternC2ERKNSt7__cxx1112basic_stringIcSt11char_traitsIcESaIcEEE
FN:14505,_ZN5Catch8TestSpec7PatternD0Ev
FN:14505,_ZN5Catch8TestSpec7PatternD2Ev
FN:14507,_ZNK5Catch8TestSpec7Pattern4nameB5cxx11Ev
FN:14511,_ZN5Catch8TestSpec11NamePatternC2ERKNSt7__cxx1112basic_stringIcSt11char_traitsIcESaIcEEES9_
FN:14516,_ZNK5Catch8TestSpec11NamePattern7matchesERKNS_12TestCaseInfoE
FN:14520,_ZN5Catch8TestSpec10TagPatternC2ERKNSt7__cxx1112basic_stringIcSt11char_traitsIcESaIcEEES9_
FN:14525,_ZNK5Catch8TestSpec10TagPattern7matchesERKNS_12TestCaseInfoE
FN:14531,_ZN5Catch8TestSpec15ExcludedPatternC2ERKSt10shared_ptrINS0_7PatternEE
FN:14536,_ZNK5Catch8TestSpec15ExcludedPattern7matchesERKNS_12TestCaseInfoE
FN:14540,_ZNK5Catch8TestSpec6Filter7matchesERKNS_12TestCaseInfoE
FN:14544,_ZNK5Catch8TestSpec6Filter4nameB5cxx11Ev
FN:14551,_ZNK5Catch8TestSpec10hasFiltersEv
FN:14555,_ZNK5Catch8TestSpec7matchesERKNS_12TestCaseInfoE
FN:14556,_ZZNK5Catch8TestSpec7matchesERKNS_12TestCaseInfoEENKUlRKNS0_6FilterEE_clES6_
FN:14559,_ZNK5Catch8TestSpec15matchesByFilterERKSt6vectorINS_8TestCaseESaIS2_EERKNS_7IConfigE
FN:14562,_ZZNK5Catch8TestSpec15matchesByFilterERKSt6vectorINS_8TestCaseESaIS2_EERKNS_7IConfigEENKUlRKNS0_6FilterEE_clESC_
FN:14572,_ZNK5Catch8TestSpec14getInvalidArgsB5cxx11Ev
FN:14582,_ZN5Catch14TestSpecParserC2ERKNS_17ITagAliasRegistryE
FN:14584,_ZN5Catch14TestSpecParser5parseERKNSt7__cxx1112basic_stringIcSt11char_traitsIcESaIcEEE
FN:14602,_ZN5Catch14TestSpecParser8testSpecEv
FN:14606,_ZN5Catch14TestSpecParser9visitCharEc
FN:14644,_ZN5Catch14TestSpecParser15processNoneCharEc
FN:14662,_ZN5Catch14TestSpecParser15processNameCharEc
FN:14671,_ZN5Catch14TestSpecParser16processOtherCharEc
FN:14678,_ZN5Catch14TestSpecParser12startNewModeENS0_4ModeE
FN:14681,_ZN5Catch14TestSpecParser7endModeEv
FN:14696,_ZN5Catch14TestSpecParser6escapeEv
FN:14701,_ZNK5Catch14TestSpecParser13isControlCharEc
FN:14718,_ZN5Catch14TestSpecParser9addFilterEv
FN:14725,_ZN5Catch14TestSpecParser12saveLastModeEv
FN:14729,_ZN5Catch14TestSpecParser20revertBackToLastModeEv
FN:14733,_ZN5Catch14TestSpecParser8separateEv
FN:14748,_ZN5Catch14TestSpecParser17preprocessPatternB5cxx11Ev
FN:14764,_ZN5Catch14TestSpecParser14addNamePatternEv
FN:14778,_ZN5Catch14TestSpecParser13addTagPatternEv
FN:14805,_ZN5Catch13parseTestSpecERKNSt7__cxx1112basic_stringIcSt11char_traitsIcESaIcEEE
FN:14819,_ZN5Catch31getCurrentNanosecondsSinceEpochEv
FN:14824,_ZN5Catch12_GLOBAL__N_123estimateClockResolutionEv
FN:14854,_ZN5Catch27getEstimatedClockResolutionEv
FN:14859,_ZN5Catch5Timer5startEv
FN:14862,_ZNK5Catch5Timer21getElapsedNanosecondsEv
FN:14865,_ZNK5Catch5Timer22getElapsedMicrosecondsEv
FN:14868,_ZNK5Catch5Timer22getElapsedMillisecondsEv
FN:14871,_ZNK5Catch5Timer17getElapsedSecondsEv
FN:14915,_ZN5Catch6Detail17rawMemoryToStringB5cxx11EPKvm
FN:14933,_ZN5Catch10fpToStringIdEENSt7__cxx1112basic_stringIcSt11char_traitsIcESaIcEEET_i
FN:14933,_ZN5Catch10fpToStringIfEENSt7__cxx1112basic_stringIcSt11char_traitsIcESaIcEEET_i
FN:14960,_ZN5Catch11StringMakerINSt7__cxx1112basic_stringIcSt11char_traitsIcESaIcEEEvE7convertERKS6_
FN:14989,_ZN5Catch11StringMakerIPKcvE7convertB5cxx11ES2_
FN:14996,_ZN5Catch11StringMakerIPcvE7convertB5cxx11ES1_
FN:15005,_ZN5Catch11StringMakerINSt7__cxx1112basic_stringIwSt11char_traitsIwESaIwEEEvE7convertERKS6_
FN:15020,_ZN5Catch11StringMakerIPKwvE7convertB5cxx11ES2_
FN:15027,_ZN5Catch11StringMakerIPwvE7convertB5cxx11ES1_
FN:15043,_ZN5Catch11StringMakerIivE7convertB5cxx11Ei
FN:15046,_ZN5Catch11StringMakerIlvE7convertB5cxx11El
FN:15049,_ZN5Catch11StringMakerIxvE7convertB5cxx11Ex
FN:15058,_ZN5Catch11StringMakerIjvE7convertB5cxx11Ej
FN:15061,_ZN5Catch11StringMakerImvE7convertB5cxx11Em
FN:15064,_ZN5Catch11StringMakerIyvE7convertB5cxx11Ey
FN:15073,_ZN5Catch11StringMakerIbvE7convertB5cxx11Eb
FN:15077,_ZN5Catch11StringMakerIavE7convertB5cxx11Ea
FN:15094,_ZN5Catch11StringMakerIcvE7convertB5cxx11Ec
FN:15097,_ZN5Catch11StringMakerIhvE7convertB5cxx11Eh
FN:15101,_ZN5Catch11StringMakerIDnvE7convertB5cxx11EDn
FN:15107,_ZN5Catch11StringMakerIfvE7convertB5cxx11Ef
FN:15113,_ZN5Catch11StringMakerIdvE7convertB5cxx11Ed
FN:15117,_ZN5Catch12ratio_stringISt5ratioILl1ELl1000000000000000000EEE6symbolB5cxx11Ev
FN:15118,_ZN5Catch12ratio_stringISt5ratioILl1ELl1000000000000000EEE6symbolB5cxx11Ev
FN:15119,_ZN5Catch12ratio_stringISt5ratioILl1ELl1000000000000EEE6symbolB5cxx11Ev
FN:15120,_ZN5Catch12ratio_stringISt5ratioILl1ELl1000000000EEE6symbolB5cxx11Ev
FN:15121,_ZN5Catch12ratio_stringISt5ratioILl1ELl1000000EEE6symbolB5cxx11Ev
FN:15122,_ZN5Catch12ratio_stringISt5ratioILl1ELl1000EEE6symbolB5cxx11Ev
FN:15135,_ZNK5Catch6CountsmiERKS0_
FN:15143,_ZN5Catch6CountspLERKS0_
FN:15150,_ZNK5Catch6Counts5totalEv
FN:15153,_ZNK5Catch6Counts9allPassedEv
FN:15156,_ZNK5Catch6Counts5allOkEv
FN:15160,_ZNK5Catch6TotalsmiERKS0_
FN:15167,_ZN5Catch6TotalspLERKS0_
FN:15173,_ZNK5Catch6Totals5deltaERKS0_
FN:15226,_ZN5Catch19uncaught_exceptionsEv
FN:15243,_ZN5Catch7VersionC2EjjjPKcj
FN:15256,_ZN5CatchlsERSoRKNS_7VersionE
FN:15268,_ZN5Catch14libraryVersionEv
FN:15279,_ZN5Catch15WildcardPatternC2ERKNSt7__cxx1112basic_stringIcSt11char_traitsIcESaIcEEENS_13CaseSensitive6ChoiceE
FN:15294,_ZNK5Catch15WildcardPattern7matchesERKNSt7__cxx1112basic_stringIcSt11char_traitsIcESaIcEEE
FN:15309,_ZNK5Catch15WildcardPattern15normaliseStringERKNSt7__cxx1112basic_stringIcSt11char_traitsIcESaIcEEE
FN:15323,_ZN5Catch12_GLOBAL__N_113trailingBytesEh
FN:15336,_ZN5Catch12_GLOBAL__N_111headerValueEh
FN:15349,_ZN5Catch12_GLOBAL__N_113hexEscapeCharERSoh
FN:15367,_ZN5CatchorENS_13XmlFormattingES0_
FN:15374,_ZN5CatchanENS_13XmlFormattingES0_
FN:15381,_ZN5Catch9XmlEncodeC2ERKNSt7__cxx1112basic_stringIcSt11char_traitsIcESaIcEEENS0_7ForWhatE
FN:15386,_ZNK5Catch9XmlEncode8encodeToERSo
FN:15480,_ZN5CatchlsERSoRKNS_9XmlEncodeE
FN:15485,_ZN5Catch9XmlWriter13ScopedElementC2EPS0_NS_13XmlFormattingE
FN:15490,_ZN5Catch9XmlWriter13ScopedElementC2EOS1_
FN:15497,_ZN5Catch9XmlWriter13ScopedElementaSEOS1_
FN:15508,_ZN5Catch9XmlWriter13ScopedElementD2Ev
FN:15514,_ZN5Catch9XmlWriter13ScopedElement9writeTextERKNSt7__cxx1112basic_stringIcSt11char_traitsIcESaIcEEENS_13XmlFormattingE
FN:15519,_ZN5Catch9XmlWriterC2ERSo
FN:15524,_ZN5Catch9XmlWriterD2Ev
FN:15531,_ZN5Catch9XmlWriter12startElementERKNSt7__cxx1112basic_stringIcSt11char_traitsIcESaIcEEENS_13XmlFormattingE
FN:15545,_ZN5Catch9XmlWriter13scopedElementERKNSt7__cxx1112basic_stringIcSt11char_traitsIcESaIcEEENS_13XmlFormattingE
FN:15551,_ZN5Catch9XmlWriter10endElementENS_13XmlFormattingE
FN:15570,_ZN5Catch9XmlWriter14writeAttributeERKNSt7__cxx1112basic_stringIcSt11char_traitsIcESaIcEEES8_
FN:15576,_ZN5Catch9XmlWriter14writeAttributeERKNSt7__cxx1112basic_stringIcSt11char_traitsIcESaIcEEEb
FN:15581,_ZN5Catch9XmlWriter9writeTextERKNSt7__cxx1112basic_stringIcSt11char_traitsIcESaIcEEENS_13XmlFormattingE
FN:15594,_ZN5Catch9XmlWriter12writeCommentERKNSt7__cxx1112basic_stringIcSt11char_traitsIcESaIcEEENS_13XmlFormattingE
FN:15604,_ZN5Catch9XmlWriter18writeStylesheetRefERKNSt7__cxx1112basic_stringIcSt11char_traitsIcESaIcEEE
FN:15608,_ZN5Catch9XmlWriter14writeBlankLineEv
FN:15614,_ZN5Catch9XmlWriter15ensureTagClosedEv
FN:15622,_ZN5Catch9XmlWriter15applyFormattingENS_13XmlFormattingE
FN:15626,_ZN5Catch9XmlWriter16writeDeclarationEv
FN:15630,_ZN5Catch9XmlWriter18newlineIfNecessaryEv
FN:15647,_ZN5Catch25prepareExpandedExpressionERNS_15AssertionResultE
FN:15653,_ZN5Catch20getFormattedDurationB5cxx11Ed
FN:15671,_ZN5Catch18shouldShowDurationERKNS_7IConfigEd
FN:15682,_ZN5Catch16serializeFiltersERKSt6vectorINSt7__cxx1112basic_stringIcSt11char_traitsIcESaIcEEESaIS6_EE
FN:15697,_ZN5Catch21TestEventListenerBaseC2ERKNS_14ReporterConfigE
FN:15700,_ZN5Catch21TestEventListenerBase23getSupportedVerbositiesEv
FN:15704,_ZN5Catch21TestEventListenerBase17assertionStartingERKNS_13AssertionInfoE
FN:15706,_ZN5Catch21TestEventListenerBase14assertionEndedERKNS_14AssertionStatsE
FN:15742,_ZN5Catch12_GLOBAL__N_111printTotalsERSoRKNS_6TotalsE
FN:15786,_ZN5Catch12_GLOBAL__N_116AssertionPrinter5printEv
FN:15855,_ZNK5Catch12_GLOBAL__N_116AssertionPrinter15printSourceInfoEv
FN:15860,_ZNK5Catch12_GLOBAL__N_116AssertionPrinter15printResultTypeENS_6Colour4CodeERKNSt7__cxx1112basic_stringIcSt11char_traitsIcESaIcEEE
FN:15870,_ZNK5Catch12_GLOBAL__N_116AssertionPrinter10printIssueERKNSt7__cxx1112basic_stringIcSt11char_traitsIcESaIcEEE
FN:15874,_ZN5Catch12_GLOBAL__N_116AssertionPrinter18printExpressionWasEv
FN:15885,_ZNK5Catch12_GLOBAL__N_116AssertionPrinter23printOriginalExpressionEv
FN:15891,_ZNK5Catch12_GLOBAL__N_116AssertionPrinter28printReconstructedExpressionEv
FN:15901,_ZN5Catch12_GLOBAL__N_116AssertionPrinter12printMessageEv
FN:15908,_ZN5Catch12_GLOBAL__N_116AssertionPrinter22printRemainingMessagesENS_6Colour4CodeE
FN:15944,_ZN5Catch15CompactReporter14getDescriptionB5cxx11Ev
FN:15948,_ZN5Catch15CompactReporter19noMatchingTestCasesERKNSt7__cxx1112basic_stringIcSt11char_traitsIcESaIcEEE
FN:15952,_ZN5Catch15CompactReporter17assertionStartingERKNS_13AssertionInfoE
FN:15954,_ZN5Catch15CompactReporter14assertionEndedERKNS_14AssertionStatsE
FN:15973,_ZN5Catch15CompactReporter12sectionEndedERKNS_12SectionStatsE
FN:15980,_ZN5Catch15CompactReporter12testRunEndedERKNS_12TestRunStatsE
FN:15986,_ZN5Catch15CompactReporterD0Ev
FN:15986,_ZN5Catch15CompactReporterD2Ev
FN:16018,_ZN5Catch12_GLOBAL__N_123ConsoleAssertionPrinterC2ERSoRKNS_14AssertionStatsEb
FN:16092,_ZNK5Catch12_GLOBAL__N_123ConsoleAssertionPrinter5printEv
FN:16105,_ZNK5Catch12_GLOBAL__N_123ConsoleAssertionPrinter15printResultTypeEv
FN:16111,_ZNK5Catch12_GLOBAL__N_123ConsoleAssertionPrinter23printOriginalExpressionEv
FN:16119,_ZNK5Catch12_GLOBAL__N_123ConsoleAssertionPrinter28printReconstructedExpressionEv
FN:16126,_ZNK5Catch12_GLOBAL__N_123ConsoleAssertionPrinter12printMessageEv
FN:16135,_ZNK5Catch12_GLOBAL__N_123ConsoleAssertionPrinter15printSourceInfoEv
FN:16255,_ZN5Catch12TablePrinterC2ERSoSt6vectorINS_12_GLOBAL__N_110ColumnInfoESaIS4_EE
FN:16279,_ZN5Catch12TablePrinter5closeEv
FN:16324,_ZN5Catch15ConsoleReporterC2ERKNS_14ReporterConfigE
FN:16327,_ZZN5Catch15ConsoleReporterC4ERKNS_14ReporterConfigEENKUlvE_clEv
FN:16347,_ZN5Catch15ConsoleReporterD0Ev
FN:16347,_ZN5Catch15ConsoleReporterD2Ev
FN:16349,_ZN5Catch15ConsoleReporter14getDescriptionB5cxx11Ev
FN:16353,_ZN5Catch15ConsoleReporter19noMatchingTestCasesERKNSt7__cxx1112basic_stringIcSt11char_traitsIcESaIcEEE
FN:16357,_ZN5Catch15ConsoleReporter22reportInvalidArgumentsERKNSt7__cxx1112basic_stringIcSt11char_traitsIcESaIcEEE
FN:16361,_ZN5Catch15ConsoleReporter17assertionStartingERKNS_13AssertionInfoE
FN:16363,_ZN5Catch15ConsoleReporter14assertionEndedERKNS_14AssertionStatsE
FN:16380,_ZN5Catch15ConsoleReporter15sectionStartingERKNS_11SectionInfoE
FN:16385,_ZN5Catch15ConsoleReporter12sectionEndedERKNS_12SectionStatsE
FN:16454,_ZN5Catch15ConsoleReporter13testCaseEndedERKNS_13TestCaseStatsE
FN:16459,_ZN5Catch15ConsoleReporter14testGroupEndedERKNS_14TestGroupStatsE
FN:16468,_ZN5Catch15ConsoleReporter12testRunEndedERKNS_12TestRunStatsE
FN:16474,_ZN5Catch15ConsoleReporter15testRunStartingERKNS_11TestRunInfoE
FN:16479,_ZN5Catch15ConsoleReporter9lazyPrintEv
FN:16485,_ZN5Catch15ConsoleReporter37lazyPrintWithoutClosingBenchmarkTableEv
FN:16497,_ZN5Catch15ConsoleReporter16lazyPrintRunInfoEv
FN:16509,_ZN5Catch15ConsoleReporter18lazyPrintGroupInfoEv
FN:16515,_ZN5Catch15ConsoleReporter29printTestCaseAndSectionHeaderEv
FN:16537,_ZN5Catch15ConsoleReporter17printClosedHeaderERKNSt7__cxx1112basic_stringIcSt11char_traitsIcESaIcEEE
FN:16541,_ZN5Catch15ConsoleReporter15printOpenHeaderERKNSt7__cxx1112basic_stringIcSt11char_traitsIcESaIcEEE
FN:16551,_ZN5Catch15ConsoleReporter17printHeaderStringERKNSt7__cxx1112basic_stringIcSt11char_traitsIcESaIcEEEm
FN:16565,_ZN5Catch13SummaryColumn6addRowEm
FN:16585,_ZN5Catch15ConsoleReporter11printTotalsERKNS_6TotalsE
FN:16614,_ZN5Catch15ConsoleReporter15printSummaryRowERKNSt7__cxx1112basic_stringIcSt11char_traitsIcESaIcEEERKSt6vectorINS_13SummaryColumnESaISA_EEm
FN:16632,_ZN5Catch15ConsoleReporter18printTotalsDividerERKNS_6TotalsE
FN:16653,_ZN5Catch15ConsoleReporter19printSummaryDividerEv
FN:16657,_ZN5Catch15ConsoleReporter16printTestFiltersEv
FN:16686,_ZN5Catch12_GLOBAL__N_119getCurrentTimestampEv
FN:16712,_ZN5Catch12_GLOBAL__N_111fileNameTagERKSt6vectorINSt7__cxx1112basic_stringIcSt11char_traitsIcESaIcEEESaIS7_EE
FN:16722,_ZN5Catch13JunitReporterC2ERKNS_14ReporterConfigE
FN:16730,_ZN5Catch13JunitReporterD0Ev
FN:16730,_ZN5Catch13JunitReporterD2Ev
FN:16732,_ZN5Catch13JunitReporter14getDescriptionB5cxx11Ev
FN:16736,_ZN5Catch13JunitReporter19noMatchingTestCasesERKNSt7__cxx1112basic_stringIcSt11char_traitsIcESaIcEEE
FN:16738,_ZN5Catch13JunitReporter15testRunStartingERKNS_11TestRunInfoE
FN:16743,_ZN5Catch13JunitReporter17testGroupStartingERKNS_9GroupInfoE
FN:16751,_ZN5Catch13JunitReporter16testCaseStartingERKNS_12TestCaseInfoE
FN:16755,_ZN5Catch13JunitReporter14assertionEndedERKNS_14AssertionStatsE
FN:16761,_ZN5Catch13JunitReporter13testCaseEndedERKNS_13TestCaseStatsE
FN:16767,_ZN5Catch13JunitReporter14testGroupEndedERKNS_14TestGroupStatsE
FN:16773,_ZN5Catch13JunitReporter22testRunEndedCumulativeEv
FN:16777,_ZN5Catch13JunitReporter10writeGroupERKNS_22CumulativeReporterBaseIS0_E4NodeINS_14TestGroupStatsENS3_INS_13TestCaseStatsENS2_11SectionNodeEEEEEd
FN:16815,_ZN5Catch13JunitReporter13writeTestCaseERKNS_22CumulativeReporterBaseIS0_E4NodeINS_13TestCaseStatsENS2_11SectionNodeEEE
FN:16837,_ZN5Catch13JunitReporter12writeSectionERKNSt7__cxx1112basic_stringIcSt11char_traitsIcESaIcEEES8_RKNS_22CumulativeReporterBaseIS0_E11SectionNodeE
FN:16877,_ZN5Catch13JunitReporter15writeAssertionsERKNS_22CumulativeReporterBaseIS0_E11SectionNodeE
FN:16882,_ZN5Catch13JunitReporter14writeAssertionERKNS_14AssertionStatsE
FN:16950,_ZN5Catch17ListeningReporterC2Ev
FN:16955,_ZN5Catch17ListeningReporter11addListenerEOSt10unique_ptrINS_18IStreamingReporterESt14default_deleteIS2_EE
FN:16959,_ZN5Catch17ListeningReporter11addReporterEOSt10unique_ptrINS_18IStreamingReporterESt14default_deleteIS2_EE
FN:16965,_ZNK5Catch17ListeningReporter14getPreferencesEv
FN:16969,_ZN5Catch17ListeningReporter23getSupportedVerbositiesEv
FN:16973,_ZN5Catch17ListeningReporter19noMatchingTestCasesERKNSt7__cxx1112basic_stringIcSt11char_traitsIcESaIcEEE
FN:16980,_ZN5Catch17ListeningReporter22reportInvalidArgumentsERKNSt7__cxx1112basic_stringIcSt11char_traitsIcESaIcEEE
FN:17015,_ZN5Catch17ListeningReporter15testRunStartingERKNS_11TestRunInfoE
FN:17022,_ZN5Catch17ListeningReporter17testGroupStartingERKNS_9GroupInfoE
FN:17029,_ZN5Catch17ListeningReporter16testCaseStartingERKNS_12TestCaseInfoE
FN:17036,_ZN5Catch17ListeningReporter15sectionStartingERKNS_11SectionInfoE
FN:17043,_ZN5Catch17ListeningReporter17assertionStartingERKNS_13AssertionInfoE
FN:17051,_ZN5Catch17ListeningReporter14assertionEndedERKNS_14AssertionStatsE
FN:17058,_ZN5Catch17ListeningReporter12sectionEndedERKNS_12SectionStatsE
FN:17065,_ZN5Catch17ListeningReporter13testCaseEndedERKNS_13TestCaseStatsE
FN:17072,_ZN5Catch17ListeningReporter14testGroupEndedERKNS_14TestGroupStatsE
FN:17079,_ZN5Catch17ListeningReporter12testRunEndedERKNS_12TestRunStatsE
FN:17086,_ZN5Catch17ListeningReporter8skipTestERKNS_12TestCaseInfoE
FN:17093,_ZNK5Catch17ListeningReporter7isMultiEv
FN:17109,_ZN5Catch11XmlReporterC2ERKNS_14ReporterConfigE
FN:17117,_ZN5Catch11XmlReporterD0Ev
FN:17117,_ZN5Catch11XmlReporterD2Ev
FN:17119,_ZN5Catch11XmlReporter14getDescriptionB5cxx11Ev
FN:17123,_ZNK5Catch11XmlReporter16getStylesheetRefB5cxx11Ev
FN:17127,_ZN5Catch11XmlReporter15writeSourceInfoERKNS_14SourceLineInfoE
FN:17133,_ZN5Catch11XmlReporter19noMatchingTestCasesERKNSt7__cxx1112basic_stringIcSt11char_traitsIcESaIcEEE
FN:17137,_ZN5Catch11XmlReporter15testRunStartingERKNS_11TestRunInfoE
FN:17152,_ZN5Catch11XmlReporter17testGroupStartingERKNS_9GroupInfoE
FN:17158,_ZN5Catch11XmlReporter16testCaseStartingERKNS_12TestCaseInfoE
FN:17172,_ZN5Catch11XmlReporter15sectionStartingERKNS_11SectionInfoE
FN:17182,_ZN5Catch11XmlReporter17assertionStartingERKNS_13AssertionInfoE
FN:17184,_ZN5Catch11XmlReporter14assertionEndedERKNS_14AssertionStatsE
FN:17258,_ZN5Catch11XmlReporter12sectionEndedERKNS_12SectionStatsE
FN:17273,_ZN5Catch11XmlReporter13testCaseEndedERKNS_13TestCaseStatsE
FN:17289,_ZN5Catch11XmlReporter14testGroupEndedERKNS_14TestGroupStatsE
FN:17303,_ZN5Catch11XmlReporter12testRunEndedERKNS_12TestRunStatsE
FNDA:0,_ZN12_GLOBAL__N_111reportFatalEPKc
FNDA:0,_ZN5Catch10ErrnoGuardC2Ev
FNDA:0,_ZN5Catch10ErrnoGuardD2Ev
FNDA:0,_ZN5Catch10Generators10GeneratorsI8VecSpaceE4nextEv
FNDA:0,_ZN5Catch10Generators10GeneratorsI8VecSpaceE8populateEOS2_
FNDA:0,_ZN5Catch10Generators10GeneratorsI8VecSpaceE8populateIS2_JS2_S2_EEEvOT_DpOT0_
FNDA:0,_ZN5Catch10Generators10GeneratorsI8VecSpaceEC2IJNS0_16GeneratorWrapperIS2_EES2_EEEDpOT_
FNDA:0,_ZN5Catch10Generators10GeneratorsI8VecSpaceEC2IJNS0_16GeneratorWrapperIS2_EES2_S2_S2_EEEDpOT_
FNDA:0,_ZN5Catch10Generators10GeneratorsIN4mfem13AssemblyLevelEE4nextEv
FNDA:0,_ZN5Catch10Generators10GeneratorsIN4mfem13AssemblyLevelEE8populateEOS3_
FNDA:0,_ZN5Catch10Generators10GeneratorsIN4mfem13AssemblyLevelEE8populateINS0_16GeneratorWrapperIS3_EEJS3_S3_EEEvOT_DpOT0_
FNDA:0,_ZN5Catch10Generators10GeneratorsIN4mfem13AssemblyLevelEEC2IJNS0_16GeneratorWrapperIS3_EES3_S3_EEEDpOT_
FNDA:0,_ZN5Catch10Generators10GeneratorsIN4mfem13FiniteElement7MapTypeEE4nextEv
FNDA:0,_ZN5Catch10Generators10GeneratorsIN4mfem13FiniteElement7MapTypeEE8populateEOS4_
FNDA:0,_ZN5Catch10Generators10GeneratorsIN4mfem13FiniteElement7MapTypeEEC2IJNS0_16GeneratorWrapperIS4_EES4_EEEDpOT_
FNDA:0,_ZN5Catch10Generators10GeneratorsIN4mfem13QVectorLayoutEE4nextEv
FNDA:0,_ZN5Catch10Generators10GeneratorsIN4mfem13QVectorLayoutEE8populateEOS3_
FNDA:0,_ZN5Catch10Generators10GeneratorsIN4mfem13QVectorLayoutEEC2IJNS0_16GeneratorWrapperIS3_EES3_EEEDpOT_
FNDA:0,_ZN5Catch10Generators10GeneratorsIN4mfem7Element4TypeEE4nextEv
FNDA:0,_ZN5Catch10Generators10GeneratorsIN4mfem7Element4TypeEE8populateEOS4_
FNDA:0,_ZN5Catch10Generators10GeneratorsIN4mfem7Element4TypeEE8populateINS0_16GeneratorWrapperIS4_EEJS4_S4_EEEvOT_DpOT0_
FNDA:0,_ZN5Catch10Generators10GeneratorsIN4mfem7Element4TypeEEC2IJNS0_16GeneratorWrapperIS4_EES4_EEEDpOT_
FNDA:0,_ZN5Catch10Generators10GeneratorsIN4mfem7Element4TypeEEC2IJNS0_16GeneratorWrapperIS4_EES4_S4_EEEDpOT_
FNDA:0,_ZN5Catch10Generators10GeneratorsIRA21_KcE4nextEv
FNDA:0,_ZN5Catch10Generators10GeneratorsIRA21_KcE8populateES4_
FNDA:0,_ZN5Catch10Generators10GeneratorsIRA21_KcE8populateINS0_16GeneratorWrapperIS4_EEJRA28_S2_RA27_S2_RA29_S2_SC_EEEvOT_DpOT0_
FNDA:0,_ZN5Catch10Generators10GeneratorsIRA21_KcE8populateIRA24_S2_JS8_RA27_S2_EEEvOT_DpOT0_
FNDA:0,_ZN5Catch10Generators10GeneratorsIRA21_KcE8populateIRA27_S2_JRA29_S2_S8_EEEvOT_DpOT0_
FNDA:0,_ZN5Catch10Generators10GeneratorsIRA21_KcEC2IJNS0_16GeneratorWrapperIS4_EERA24_S2_SA_RA27_S2_EEEDpOT_
FNDA:0,_ZN5Catch10Generators10GeneratorsIRA21_KcEC2IJNS0_16GeneratorWrapperIS4_EERA28_S2_RA27_S2_RA29_S2_SC_EEEDpOT_
FNDA:0,_ZN5Catch10Generators10GeneratorsIbE4nextEv
FNDA:0,_ZN5Catch10Generators10GeneratorsIbE8populateEOb
FNDA:0,_ZN5Catch10Generators10GeneratorsIbEC2IJNS0_16GeneratorWrapperIbEEbEEEDpOT_
FNDA:0,_ZN5Catch10Generators10GeneratorsIiE4nextEv
FNDA:0,_ZN5Catch10Generators10GeneratorsIiE8populateINS0_16GeneratorWrapperIiEEJiiEEEvOT_DpOT0_
FNDA:0,_ZN5Catch10Generators10GeneratorsIiE8populateINS0_16GeneratorWrapperIiEEJiiiiEEEvOT_DpOT0_
FNDA:0,_ZN5Catch10Generators10GeneratorsIiE8populateIiJiiiiEEEvOT_DpOT0_
FNDA:0,_ZN5Catch10Generators10GeneratorsIiEC2IJNS0_16GeneratorWrapperIiEEiiEEEDpOT_
FNDA:0,_ZN5Catch10Generators10GeneratorsIiEC2IJNS0_16GeneratorWrapperIiEEiiiiEEEDpOT_
FNDA:0,_ZN5Catch10Generators10GeneratorsIiEC2IJNS0_16GeneratorWrapperIiEEiiiiiEEEDpOT_
FNDA:0,_ZN5Catch10Generators14RangeGeneratorIiE4nextEv
FNDA:0,_ZN5Catch10Generators14RangeGeneratorIiEC2ERKiS4_S4_
FNDA:0,_ZN5Catch10Generators14makeGeneratorsI8VecSpaceJS2_EEENS0_10GeneratorsIT_EEOS4_DpOT0_
FNDA:0,_ZN5Catch10Generators14makeGeneratorsI8VecSpaceJS2_S2_S2_EEENS0_10GeneratorsIT_EEOS4_DpOT0_
FNDA:0,_ZN5Catch10Generators14makeGeneratorsIN4mfem13AssemblyLevelEJS3_S3_EEENS0_10GeneratorsIT_EEOS5_DpOT0_
FNDA:0,_ZN5Catch10Generators14makeGeneratorsIN4mfem13FiniteElement7MapTypeEJS4_EEENS0_10GeneratorsIT_EEOS6_DpOT0_
FNDA:0,_ZN5Catch10Generators14makeGeneratorsIN4mfem13QVectorLayoutEJS3_EEENS0_10GeneratorsIT_EEOS5_DpOT0_
FNDA:0,_ZN5Catch10Generators14makeGeneratorsIN4mfem7Element4TypeEJS4_EEENS0_10GeneratorsIT_EEOS6_DpOT0_
FNDA:0,_ZN5Catch10Generators14makeGeneratorsIN4mfem7Element4TypeEJS4_S4_EEENS0_10GeneratorsIT_EEOS6_DpOT0_
FNDA:0,_ZN5Catch10Generators14makeGeneratorsIRA21_KcJRA24_S2_S6_RA27_S2_EEENS0_10GeneratorsIT_EEOSA_DpOT0_
FNDA:0,_ZN5Catch10Generators14makeGeneratorsIRA21_KcJRA28_S2_RA27_S2_RA29_S2_S8_EEENS0_10GeneratorsIT_EEOSC_DpOT0_
FNDA:0,_ZN5Catch10Generators14makeGeneratorsIbJbEEENS0_10GeneratorsIT_EEOS3_DpOT0_
FNDA:0,_ZN5Catch10Generators14makeGeneratorsIiJiiEEENS0_10GeneratorsIT_EEOS3_DpOT0_
FNDA:0,_ZN5Catch10Generators14makeGeneratorsIiJiiiiEEENS0_10GeneratorsIT_EEOS3_DpOT0_
FNDA:0,_ZN5Catch10Generators14makeGeneratorsIiJiiiiiEEENS0_10GeneratorsIT_EEOS3_DpOT0_
FNDA:0,_ZN5Catch10Generators16GeneratorTracker5closeEv
FNDA:0,_ZN5Catch10Generators16GeneratorTrackerD0Ev
FNDA:0,_ZN5Catch10Generators16GeneratorTrackerD2Ev
FNDA:0,_ZN5Catch10Generators20GeneratorUntypedBaseD0Ev
FNDA:0,_ZN5Catch10Generators20SingleValueGeneratorI8VecSpaceE4nextEv
FNDA:0,_ZN5Catch10Generators20SingleValueGeneratorIN4mfem13AssemblyLevelEE4nextEv
FNDA:0,_ZN5Catch10Generators20SingleValueGeneratorIN4mfem13FiniteElement7MapTypeEE4nextEv
FNDA:0,_ZN5Catch10Generators20SingleValueGeneratorIN4mfem13QVectorLayoutEE4nextEv
FNDA:0,_ZN5Catch10Generators20SingleValueGeneratorIN4mfem7Element4TypeEE4nextEv
FNDA:0,_ZN5Catch10Generators20SingleValueGeneratorIRA21_KcE4nextEv
FNDA:0,_ZN5Catch10Generators20SingleValueGeneratorIbE4nextEv
FNDA:0,_ZN5Catch10Generators20SingleValueGeneratorIiE4nextEv
FNDA:0,_ZN5Catch10Generators2pf11make_uniqueINS0_10GeneratorsI8VecSpaceEEJS5_EEESt10unique_ptrIT_St14default_deleteIS7_EEDpOT0_
FNDA:0,_ZN5Catch10Generators2pf11make_uniqueINS0_10GeneratorsIN4mfem13AssemblyLevelEEEJS6_EEESt10unique_ptrIT_St14default_deleteIS8_EEDpOT0_
FNDA:0,_ZN5Catch10Generators2pf11make_uniqueINS0_10GeneratorsIN4mfem13FiniteElement7MapTypeEEEJS7_EEESt10unique_ptrIT_St14default_deleteIS9_EEDpOT0_
FNDA:0,_ZN5Catch10Generators2pf11make_uniqueINS0_10GeneratorsIN4mfem13QVectorLayoutEEEJS6_EEESt10unique_ptrIT_St14default_deleteIS8_EEDpOT0_
FNDA:0,_ZN5Catch10Generators2pf11make_uniqueINS0_10GeneratorsIN4mfem7Element4TypeEEEJS7_EEESt10unique_ptrIT_St14default_deleteIS9_EEDpOT0_
FNDA:0,_ZN5Catch10Generators2pf11make_uniqueINS0_10GeneratorsIRA21_KcEEJS7_EEESt10unique_ptrIT_St14default_deleteIS9_EEDpOT0_
FNDA:0,_ZN5Catch10Generators2pf11make_uniqueINS0_10GeneratorsIbEEJS4_EEESt10unique_ptrIT_St14default_deleteIS6_EEDpOT0_
FNDA:0,_ZN5Catch10Generators2pf11make_uniqueINS0_14RangeGeneratorIiEEJRKiS6_EEESt10unique_ptrIT_St14default_deleteIS8_EEDpOT0_
FNDA:0,_ZN5Catch10Generators5rangeIiEENS0_16GeneratorWrapperIT_EERKS3_S6_
FNDA:0,_ZN5Catch10Generators5valueI8VecSpaceEENS0_16GeneratorWrapperIT_EEOS4_
FNDA:0,_ZN5Catch10Generators5valueIN4mfem13AssemblyLevelEEENS0_16GeneratorWrapperIT_EEOS5_
FNDA:0,_ZN5Catch10Generators5valueIN4mfem13FiniteElement7MapTypeEEENS0_16GeneratorWrapperIT_EEOS6_
FNDA:0,_ZN5Catch10Generators5valueIN4mfem13QVectorLayoutEEENS0_16GeneratorWrapperIT_EEOS5_
FNDA:0,_ZN5Catch10Generators5valueIN4mfem7Element4TypeEEENS0_16GeneratorWrapperIT_EEOS6_
FNDA:0,_ZN5Catch10Generators5valueIRA21_KcEENS0_16GeneratorWrapperIT_EEOS6_
FNDA:0,_ZN5Catch10Generators5valueIbEENS0_16GeneratorWrapperIT_EEOS3_
FNDA:0,_ZN5Catch10Generators8generateIZL29____C_A_T_C_H____T_E_S_T____0vEUlvE0_EEDTcldtcl7declvalIDTclfp1_EEEE3getEENS_9StringRefERKNS_14SourceLineInfoERKT_
FNDA:0,_ZN5Catch10Generators8generateIZL29____C_A_T_C_H____T_E_S_T____0vEUlvE1_EEDTcldtcl7declvalIDTclfp1_EEEE3getEENS_9StringRefERKNS_14SourceLineInfoERKT_
FNDA:0,_ZN5Catch10Generators8generateIZL29____C_A_T_C_H____T_E_S_T____0vEUlvE2_EEDTcldtcl7declvalIDTclfp1_EEEE3getEENS_9StringRefERKNS_14SourceLineInfoERKT_
FNDA:0,_ZN5Catch10Generators8generateIZL29____C_A_T_C_H____T_E_S_T____0vEUlvE_EEDTcldtcl7declvalIDTclfp1_EEEE3getEENS_9StringRefERKNS_14SourceLineInfoERKT_
FNDA:0,_ZN5Catch10Generators8generateIZL29____C_A_T_C_H____T_E_S_T____1vEUlvE0_EEDTcldtcl7declvalIDTclfp1_EEEE3getEENS_9StringRefERKNS_14SourceLineInfoERKT_
FNDA:0,_ZN5Catch10Generators8generateIZL29____C_A_T_C_H____T_E_S_T____1vEUlvE1_EEDTcldtcl7declvalIDTclfp1_EEEE3getEENS_9StringRefERKNS_14SourceLineInfoERKT_
FNDA:0,_ZN5Catch10Generators8generateIZL29____C_A_T_C_H____T_E_S_T____1vEUlvE2_EEDTcldtcl7declvalIDTclfp1_EEEE3getEENS_9StringRefERKNS_14SourceLineInfoERKT_
FNDA:0,_ZN5Catch10Generators8generateIZL29____C_A_T_C_H____T_E_S_T____1vEUlvE_EEDTcldtcl7declvalIDTclfp1_EEEE3getEENS_9StringRefERKNS_14SourceLineInfoERKT_
FNDA:0,_ZN5Catch10Generators8generateIZL29____C_A_T_C_H____T_E_S_T____7vEUlvE0_EEDTcldtcl7declvalIDTclfp1_EEEE3getEENS_9StringRefERKNS_14SourceLineInfoERKT_
FNDA:0,_ZN5Catch10Generators8generateIZL29____C_A_T_C_H____T_E_S_T____7vEUlvE_EEDTcldtcl7declvalIDTclfp1_EEEE3getEENS_9StringRefERKNS_14SourceLineInfoERKT_
FNDA:0,_ZN5Catch10Generators8generateIZL29____C_A_T_C_H____T_E_S_T____9vEUlvE_EEDTcldtcl7declvalIDTclfp1_EEEE3getEENS_9StringRefERKNS_14SourceLineInfoERKT_
FNDA:0,_ZN5Catch10Generators8generateIZL30____C_A_T_C_H____T_E_S_T____12vEUlvE0_EEDTcldtcl7declvalIDTclfp1_EEEE3getEENS_9StringRefERKNS_14SourceLineInfoERKT_
FNDA:0,_ZN5Catch10Generators8generateIZL30____C_A_T_C_H____T_E_S_T____12vEUlvE_EEDTcldtcl7declvalIDTclfp1_EEEE3getEENS_9StringRefERKNS_14SourceLineInfoERKT_
FNDA:0,_ZN5Catch10Generators8generateIZN10ea_kernelsL29____C_A_T_C_H____T_E_S_T____1EvEUlvE0_EEDTcldtcl7declvalIDTclfp1_EEEE3getEENS_9StringRefERKNS_14SourceLineInfoERKT_
FNDA:0,_ZN5Catch10Generators8generateIZN10ea_kernelsL29____C_A_T_C_H____T_E_S_T____1EvEUlvE1_EEDTcldtcl7declvalIDTclfp1_EEEE3getEENS_9StringRefERKNS_14SourceLineInfoERKT_
FNDA:0,_ZN5Catch10Generators8generateIZN10ea_kernelsL29____C_A_T_C_H____T_E_S_T____1EvEUlvE2_EEDTcldtcl7declvalIDTclfp1_EEEE3getEENS_9StringRefERKNS_14SourceLineInfoERKT_
FNDA:0,_ZN5Catch10Generators8generateIZN10ea_kernelsL29____C_A_T_C_H____T_E_S_T____1EvEUlvE3_EEDTcldtcl7declvalIDTclfp1_EEEE3getEENS_9StringRefERKNS_14SourceLineInfoERKT_
FNDA:0,_ZN5Catch10Generators8generateIZN10ea_kernelsL29____C_A_T_C_H____T_E_S_T____1EvEUlvE4_EEDTcldtcl7declvalIDTclfp1_EEEE3getEENS_9StringRefERKNS_14SourceLineInfoERKT_
FNDA:0,_ZN5Catch10Generators8generateIZN10ea_kernelsL29____C_A_T_C_H____T_E_S_T____1EvEUlvE5_EEDTcldtcl7declvalIDTclfp1_EEEE3getEENS_9StringRefERKNS_14SourceLineInfoERKT_
FNDA:0,_ZN5Catch10Generators8generateIZN10ea_kernelsL29____C_A_T_C_H____T_E_S_T____1EvEUlvE_EEDTcldtcl7declvalIDTclfp1_EEEE3getEENS_9StringRefERKNS_14SourceLineInfoERKT_
FNDA:0,_ZN5Catch10Generators8generateIZN10pa_kernelsL30____C_A_T_C_H____T_E_S_T____28EvEUlvE0_EEDTcldtcl7declvalIDTclfp1_EEEE3getEENS_9StringRefERKNS_14SourceLineInfoERKT_
FNDA:0,_ZN5Catch10Generators8generateIZN10pa_kernelsL30____C_A_T_C_H____T_E_S_T____28EvEUlvE1_EEDTcldtcl7declvalIDTclfp1_EEEE3getEENS_9StringRefERKNS_14SourceLineInfoERKT_
FNDA:0,_ZN5Catch10Generators8generateIZN10pa_kernelsL30____C_A_T_C_H____T_E_S_T____28EvEUlvE_EEDTcldtcl7declvalIDTclfp1_EEEE3getEENS_9StringRefERKNS_14SourceLineInfoERKT_
FNDA:0,_ZN5Catch10Generators8generateIZN10pa_kernelsL30____C_A_T_C_H____T_E_S_T____35EvEUlvE0_EEDTcldtcl7declvalIDTclfp1_EEEE3getEENS_9StringRefERKNS_14SourceLineInfoERKT_
FNDA:0,_ZN5Catch10Generators8generateIZN10pa_kernelsL30____C_A_T_C_H____T_E_S_T____35EvEUlvE_EEDTcldtcl7declvalIDTclfp1_EEEE3getEENS_9StringRefERKNS_14SourceLineInfoERKT_
FNDA:0,_ZN5Catch10ISingletonD0Ev
FNDA:0,_ZN5Catch10ISingletonD2Ev
FNDA:0,_ZN5Catch10RunContext10handleExprERKNS_13AssertionInfoERKNS_20ITransientExpressionERNS_17AssertionReactionE
FNDA:0,_ZN5Catch10RunContext10reportExprERKNS_13AssertionInfoENS_9ResultWas6OfTypeEPKNS_20ITransientExpressionEb
FNDA:0,_ZN5Catch10RunContext13handleMessageERKNS_13AssertionInfoENS_9ResultWas6OfTypeERKNS_9StringRefERNS_17AssertionReactionE
FNDA:0,_ZN5Catch10RunContext13handleNonExprERKNS_13AssertionInfoENS_9ResultWas6OfTypeERNS_17AssertionReactionE
FNDA:0,_ZN5Catch10RunContext14assertionEndedERKNS_15AssertionResultE
FNDA:0,_ZN5Catch10RunContext14testGroupEndedERKNSt7__cxx1112basic_stringIcSt11char_traitsIcESaIcEEERKNS_6TotalsEmm
FNDA:0,_ZN5Catch10RunContext15assertionPassedEv
FNDA:0,_ZN5Catch10RunContext16handleIncompleteERKNS_13AssertionInfoE
FNDA:0,_ZN5Catch10RunContext16popScopedMessageERKNS_11MessageInfoE
FNDA:0,_ZN5Catch10RunContext16populateReactionERNS_17AssertionReactionE
FNDA:0,_ZN5Catch10RunContext17pushScopedMessageERKNS_11MessageInfoE
FNDA:0,_ZN5Catch10RunContext17sectionEndedEarlyERKNS_14SectionEndInfoE
FNDA:0,_ZN5Catch10RunContext18resetAssertionInfoEv
FNDA:0,_ZN5Catch10RunContext19lastAssertionPassedEv
FNDA:0,_ZN5Catch10RunContext22emplaceUnscopedMessageERKNS_14MessageBuilderE
FNDA:0,_ZN5Catch10RunContext22exceptionEarlyReportedEv
FNDA:0,_ZN5Catch10RunContext24handleUnfinishedSectionsEv
FNDA:0,_ZN5Catch10RunContext25handleFatalErrorConditionENS_9StringRefE
FNDA:0,_ZN5Catch10RunContext33handleUnexpectedInflightExceptionERKNS_13AssertionInfoERKNSt7__cxx1112basic_stringIcSt11char_traitsIcESaIcEEERNS_17AssertionReactionE
FNDA:0,_ZN5Catch10RunContext34handleUnexpectedExceptionNotThrownERKNS_13AssertionInfoERNS_17AssertionReactionE
FNDA:0,_ZN5Catch10RunContextD0Ev
FNDA:0,_ZN5Catch10RunContextD2Ev
FNDA:0,_ZN5Catch10fpToStringIdEENSt7__cxx1112basic_stringIcSt11char_traitsIcESaIcEEET_i
FNDA:0,_ZN5Catch10fpToStringIfEENSt7__cxx1112basic_stringIcSt11char_traitsIcESaIcEEET_i
FNDA:0,_ZN5Catch10isJustInfoEi
FNDA:0,_ZN5Catch10startsWithERKNSt7__cxx1112basic_stringIcSt11char_traitsIcESaIcEEEc
FNDA:0,_ZN5Catch11MessageInfoC2ERKNS_9StringRefERKNS_14SourceLineInfoENS_9ResultWas6OfTypeE
FNDA:0,_ZN5Catch11NonCopyableC2Ev
FNDA:0,_ZN5Catch11NonCopyableD0Ev
FNDA:0,_ZN5Catch11NonCopyableD2Ev
FNDA:0,_ZN5Catch11SimplePcg324seedEj
FNDA:0,_ZN5Catch11SimplePcg327discardEm
FNDA:0,_ZN5Catch11SimplePcg32C2Ej
FNDA:0,_ZN5Catch11SimplePcg32clEv
FNDA:0,_ZN5Catch11StringMakerIDnvE7convertB5cxx11EDn
FNDA:0,_ZN5Catch11StringMakerIN4mfem8Geometry4TypeEvE7convertIS3_EENSt9enable_ifIXsrNS_6Detail18IsStreamInsertableIT_EE5valueENSt7__cxx1112basic_stringIcSt11char_traitsIcESaIcEEEE4typeERKS9_
FNDA:0,_ZN5Catch11StringMakerIN8tinyxml28XMLErrorEvE7convertIS2_EENSt9enable_ifIXsrNS_6Detail18IsStreamInsertableIT_EE5valueENSt7__cxx1112basic_stringIcSt11char_traitsIcESaIcEEEE4typeERKS8_
FNDA:0,_ZN5Catch11StringMakerINS_14SourceLineInfoEvE7convertIS1_EENSt9enable_ifIXsrNS_6Detail18IsStreamInsertableIT_EE5valueENSt7__cxx1112basic_stringIcSt11char_traitsIcESaIcEEEE4typeERKS7_
FNDA:0,_ZN5Catch11StringMakerINS_6Detail6ApproxEvE7convertB5cxx11ERKS2_
FNDA:0,_ZN5Catch11StringMakerINSt7__cxx1112basic_stringIcSt11char_traitsIcESaIcEEEvE7convertERKS6_
FNDA:0,_ZN5Catch11StringMakerINSt7__cxx1112basic_stringIwSt11char_traitsIwESaIwEEEvE7convertERKS6_
FNDA:0,_ZN5Catch11StringMakerIPKN8tinyxml210XMLElementEvE7convertIS3_EENSt7__cxx1112basic_stringIcSt11char_traitsIcESaIcEEEPT_
FNDA:0,_ZN5Catch11StringMakerIPKcvE7convertB5cxx11ES2_
FNDA:0,_ZN5Catch11StringMakerIPKdvE7convertIS1_EENSt7__cxx1112basic_stringIcSt11char_traitsIcESaIcEEEPT_
FNDA:0,_ZN5Catch11StringMakerIPKwvE7convertB5cxx11ES2_
FNDA:0,_ZN5Catch11StringMakerIPN4mfem12GridFunctionEvE7convertIS2_EENSt7__cxx1112basic_stringIcSt11char_traitsIcESaIcEEEPT_
FNDA:0,_ZN5Catch11StringMakerIPN4mfem18QuadratureFunctionEvE7convertIS2_EENSt7__cxx1112basic_stringIcSt11char_traitsIcESaIcEEEPT_
FNDA:0,_ZN5Catch11StringMakerIPN4mfem4MeshEvE7convertIS2_EENSt7__cxx1112basic_stringIcSt11char_traitsIcESaIcEEEPT_
FNDA:0,_ZN5Catch11StringMakerIPcvE7convertB5cxx11ES1_
FNDA:0,_ZN5Catch11StringMakerIPdvE7convertIdEENSt7__cxx1112basic_stringIcSt11char_traitsIcESaIcEEEPT_
FNDA:0,_ZN5Catch11StringMakerIPwvE7convertB5cxx11ES1_
FNDA:0,_ZN5Catch11StringMakerIavE7convertB5cxx11Ea
FNDA:0,_ZN5Catch11StringMakerIbvE7convertB5cxx11Eb
FNDA:0,_ZN5Catch11StringMakerIcvE7convertB5cxx11Ec
FNDA:0,_ZN5Catch11StringMakerIdvE7convertB5cxx11Ed
FNDA:0,_ZN5Catch11StringMakerIfvE7convertB5cxx11Ef
FNDA:0,_ZN5Catch11StringMakerIhvE7convertB5cxx11Eh
FNDA:0,_ZN5Catch11StringMakerIivE7convertB5cxx11Ei
FNDA:0,_ZN5Catch11StringMakerIjvE7convertB5cxx11Ej
FNDA:0,_ZN5Catch11StringMakerIlvE7convertB5cxx11El
FNDA:0,_ZN5Catch11StringMakerImvE7convertB5cxx11Em
FNDA:0,_ZN5Catch11StringMakerIxvE7convertB5cxx11Ex
FNDA:0,_ZN5Catch11StringMakerIyvE7convertB5cxx11Ey
FNDA:0,_ZN5Catch11TestRunInfoC2ERKNSt7__cxx1112basic_stringIcSt11char_traitsIcESaIcEEE
FNDA:0,_ZN5Catch11XmlReporter12sectionEndedERKNS_12SectionStatsE
FNDA:0,_ZN5Catch11XmlReporter12testRunEndedERKNS_12TestRunStatsE
FNDA:0,_ZN5Catch11XmlReporter13testCaseEndedERKNS_13TestCaseStatsE
FNDA:0,_ZN5Catch11XmlReporter14assertionEndedERKNS_14AssertionStatsE
FNDA:0,_ZN5Catch11XmlReporter14getDescriptionB5cxx11Ev
FNDA:0,_ZN5Catch11XmlReporter14testGroupEndedERKNS_14TestGroupStatsE
FNDA:0,_ZN5Catch11XmlReporter15sectionStartingERKNS_11SectionInfoE
FNDA:0,_ZN5Catch11XmlReporter15testRunStartingERKNS_11TestRunInfoE
FNDA:0,_ZN5Catch11XmlReporter15writeSourceInfoERKNS_14SourceLineInfoE
FNDA:0,_ZN5Catch11XmlReporter16testCaseStartingERKNS_12TestCaseInfoE
FNDA:0,_ZN5Catch11XmlReporter17assertionStartingERKNS_13AssertionInfoE
FNDA:0,_ZN5Catch11XmlReporter17testGroupStartingERKNS_9GroupInfoE
FNDA:0,_ZN5Catch11XmlReporter19noMatchingTestCasesERKNSt7__cxx1112basic_stringIcSt11char_traitsIcESaIcEEE
FNDA:0,_ZN5Catch11XmlReporterC2ERKNS_14ReporterConfigE
FNDA:0,_ZN5Catch11XmlReporterD0Ev
FNDA:0,_ZN5Catch11XmlReporterD2Ev
FNDA:0,_ZN5Catch11filterTestsERKSt6vectorINS_8TestCaseESaIS1_EERKNS_8TestSpecERKNS_7IConfigE
FNDA:0,_ZN5Catch11isThrowSafeERKNS_8TestCaseERKNS_7IConfigE
FNDA:0,_ZN5Catch12IRegistryHubD0Ev
FNDA:0,_ZN5Catch12IRegistryHubD2Ev
FNDA:0,_ZN5Catch12ITestInvokerD0Ev
FNDA:0,_ZN5Catch12ITestInvokerD2Ev
FNDA:0,_ZN5Catch12LeakDetectorC2Ev
FNDA:0,_ZN5Catch12LeakDetectorD2Ev
FNDA:0,_ZN5Catch12SectionStatsC2ERKNS_11SectionInfoERKNS_6CountsEdb
FNDA:0,_ZN5Catch12SectionStatsD0Ev
FNDA:0,_ZN5Catch12SectionStatsD2Ev
FNDA:0,_ZN5Catch12SectionStatsaSERKS0_
FNDA:0,_ZN5Catch12TestRegistryD0Ev
FNDA:0,_ZN5Catch12TestRegistryD2Ev
FNDA:0,_ZN5Catch12TestRunStatsC2ERKNS_11TestRunInfoERKNS_6TotalsEb
FNDA:0,_ZN5Catch12TestRunStatsC2ERKS0_
FNDA:0,_ZN5Catch12TestRunStatsD0Ev
FNDA:0,_ZN5Catch12TestRunStatsD2Ev
FNDA:0,_ZN5Catch12_GLOBAL__N_110TestHasherC2ERNS_11SimplePcg32E
FNDA:0,_ZN5Catch12_GLOBAL__N_111RegistryHub16registerListenerERKSt10shared_ptrINS_16IReporterFactoryEE
FNDA:0,_ZN5Catch12_GLOBAL__N_111RegistryHub16registerTagAliasERKNSt7__cxx1112basic_stringIcSt11char_traitsIcESaIcEEES9_RKNS_14SourceLineInfoE
FNDA:0,_ZN5Catch12_GLOBAL__N_111RegistryHub18registerTranslatorEPKNS_20IExceptionTranslatorE
FNDA:0,_ZN5Catch12_GLOBAL__N_111RegistryHub24registerStartupExceptionEv
FNDA:0,_ZN5Catch12_GLOBAL__N_111RegistryHub28getMutableEnumValuesRegistryEv
FNDA:0,_ZN5Catch12_GLOBAL__N_111fileNameTagERKSt6vectorINSt7__cxx1112basic_stringIcSt11char_traitsIcESaIcEEESaIS7_EE
FNDA:0,_ZN5Catch12_GLOBAL__N_111headerValueEh
FNDA:0,_ZN5Catch12_GLOBAL__N_111printTotalsERSoRKNS_6TotalsE
FNDA:0,_ZN5Catch12_GLOBAL__N_112NoColourImpl3useENS_6Colour4CodeE
FNDA:0,_ZN5Catch12_GLOBAL__N_112NoColourImpl8instanceEv
FNDA:0,_ZN5Catch12_GLOBAL__N_113hexEscapeCharERSoh
FNDA:0,_ZN5Catch12_GLOBAL__N_113trailingBytesEh
FNDA:0,_ZN5Catch12_GLOBAL__N_116AssertionPrinter12printMessageEv
FNDA:0,_ZN5Catch12_GLOBAL__N_116AssertionPrinter18printExpressionWasEv
FNDA:0,_ZN5Catch12_GLOBAL__N_116AssertionPrinter22printRemainingMessagesENS_6Colour4CodeE
FNDA:0,_ZN5Catch12_GLOBAL__N_116AssertionPrinter5printEv
FNDA:0,_ZN5Catch12_GLOBAL__N_119getCurrentTimestampEv
FNDA:0,_ZN5Catch12_GLOBAL__N_120applyFilenamesAsTagsERKNS_7IConfigE
FNDA:0,_ZN5Catch12_GLOBAL__N_123ConsoleAssertionPrinterC2ERSoRKNS_14AssertionStatsEb
FNDA:0,_ZN5Catch12_GLOBAL__N_123estimateClockResolutionEv
FNDA:0,_ZN5Catch12_GLOBAL__N_15writeIdEEvRSoT_
FNDA:0,_ZN5Catch12_GLOBAL__N_15writeIfEEvRSoT_
FNDA:0,_ZN5Catch12addSingletonEPNS_10ISingletonE
FNDA:0,_ZN5Catch12ratio_stringISt5ratioILl1ELl1000000000000000000EEE6symbolB5cxx11Ev
FNDA:0,_ZN5Catch12ratio_stringISt5ratioILl1ELl1000000000000000EEE6symbolB5cxx11Ev
FNDA:0,_ZN5Catch12ratio_stringISt5ratioILl1ELl1000000000000EEE6symbolB5cxx11Ev
FNDA:0,_ZN5Catch12ratio_stringISt5ratioILl1ELl1000000000EEE6symbolB5cxx11Ev
FNDA:0,_ZN5Catch12ratio_stringISt5ratioILl1ELl1000000EEE6symbolB5cxx11Ev
FNDA:0,_ZN5Catch12ratio_stringISt5ratioILl1ELl1000EEE6symbolB5cxx11Ev
FNDA:0,_ZN5Catch13JunitReporter10writeGroupERKNS_22CumulativeReporterBaseIS0_E4NodeINS_14TestGroupStatsENS3_INS_13TestCaseStatsENS2_11SectionNodeEEEEEd
FNDA:0,_ZN5Catch13JunitReporter12writeSectionERKNSt7__cxx1112basic_stringIcSt11char_traitsIcESaIcEEES8_RKNS_22CumulativeReporterBaseIS0_E11SectionNodeE
FNDA:0,_ZN5Catch13JunitReporter13testCaseEndedERKNS_13TestCaseStatsE
FNDA:0,_ZN5Catch13JunitReporter13writeTestCaseERKNS_22CumulativeReporterBaseIS0_E4NodeINS_13TestCaseStatsENS2_11SectionNodeEEE
FNDA:0,_ZN5Catch13JunitReporter14assertionEndedERKNS_14AssertionStatsE
FNDA:0,_ZN5Catch13JunitReporter14getDescriptionB5cxx11Ev
FNDA:0,_ZN5Catch13JunitReporter14testGroupEndedERKNS_14TestGroupStatsE
FNDA:0,_ZN5Catch13JunitReporter14writeAssertionERKNS_14AssertionStatsE
FNDA:0,_ZN5Catch13JunitReporter15testRunStartingERKNS_11TestRunInfoE
FNDA:0,_ZN5Catch13JunitReporter15writeAssertionsERKNS_22CumulativeReporterBaseIS0_E11SectionNodeE
FNDA:0,_ZN5Catch13JunitReporter16testCaseStartingERKNS_12TestCaseInfoE
FNDA:0,_ZN5Catch13JunitReporter17testGroupStartingERKNS_9GroupInfoE
FNDA:0,_ZN5Catch13JunitReporter19noMatchingTestCasesERKNSt7__cxx1112basic_stringIcSt11char_traitsIcESaIcEEE
FNDA:0,_ZN5Catch13JunitReporter22testRunEndedCumulativeEv
FNDA:0,_ZN5Catch13JunitReporterC2ERKNS_14ReporterConfigE
FNDA:0,_ZN5Catch13JunitReporterD0Ev
FNDA:0,_ZN5Catch13JunitReporterD2Ev
FNDA:0,_ZN5Catch13ScopedMessageC2EOS0_
FNDA:0,_ZN5Catch13ScopedMessageC2ERKNS_14MessageBuilderE
FNDA:0,_ZN5Catch13ScopedMessageD2Ev
FNDA:0,_ZN5Catch13SummaryColumn6addRowEm
FNDA:0,_ZN5Catch13TestCaseStatsC2ERKNS_12TestCaseInfoERKNS_6TotalsERKNSt7__cxx1112basic_stringIcSt11char_traitsIcESaIcEEESE_b
FNDA:0,_ZN5Catch13TestCaseStatsC2ERKS0_
FNDA:0,_ZN5Catch13TestCaseStatsD0Ev
FNDA:0,_ZN5Catch13TestCaseStatsD2Ev
FNDA:0,_ZN5Catch13listReportersEv
FNDA:0,_ZN5Catch13parseTestSpecERKNSt7__cxx1112basic_stringIcSt11char_traitsIcESaIcEEE
FNDA:0,_ZN5Catch14AssertionStatsC2ERKNS_15AssertionResultERKSt6vectorINS_11MessageInfoESaIS5_EERKNS_6TotalsE
FNDA:0,_ZN5Catch14AssertionStatsC2ERKS0_
FNDA:0,_ZN5Catch14AssertionStatsD0Ev
FNDA:0,_ZN5Catch14AssertionStatsD2Ev
FNDA:0,_ZN5Catch14IResultCaptureD0Ev
FNDA:0,_ZN5Catch14IResultCaptureD2Ev
FNDA:0,_ZN5Catch14LazyExpressionC2ERKS0_
FNDA:0,_ZN5Catch14LazyExpressionC2Eb
FNDA:0,_ZN5Catch14MessageBuilderC2ERKNS_9StringRefERKNS_14SourceLineInfoENS_9ResultWas6OfTypeE
FNDA:0,_ZN5Catch14ReporterConfigC2ERKSt10shared_ptrIKNS_7IConfigEERSo
FNDA:0,_ZN5Catch14TestGroupStatsC2ERKNS_9GroupInfoE
FNDA:0,_ZN5Catch14TestGroupStatsC2ERKNS_9GroupInfoERKNS_6TotalsEb
FNDA:0,_ZN5Catch14TestGroupStatsC2ERKS0_
FNDA:0,_ZN5Catch14TestGroupStatsD0Ev
FNDA:0,_ZN5Catch14TestGroupStatsD2Ev
FNDA:0,_ZN5Catch14TestSpecParser12saveLastModeEv
FNDA:0,_ZN5Catch14TestSpecParser12startNewModeENS0_4ModeE
FNDA:0,_ZN5Catch14TestSpecParser15processNoneCharEc
FNDA:0,_ZN5Catch14TestSpecParser16addCharToPatternEc
FNDA:0,_ZN5Catch14TestSpecParser20revertBackToLastModeEv
FNDA:0,_ZN5Catch14TestSpecParser6escapeEv
FNDA:0,_ZN5Catch14TestSpecParser8separateEv
FNDA:0,_ZN5Catch14TestSpecParser8testSpecEv
FNDA:0,_ZN5Catch14TestSpecParserC2ERKNS_17ITagAliasRegistryE
FNDA:0,_ZN5Catch14cleanUpContextEv
FNDA:0,_ZN5Catch14getRegistryHubEv
FNDA:0,_ZN5Catch14libraryVersionEv
FNDA:0,_ZN5Catch14replaceInPlaceERNSt7__cxx1112basic_stringIcSt11char_traitsIcESaIcEEERKS5_S8_
FNDA:0,_ZN5Catch14splitStringRefENS_9StringRefEc
FNDA:0,_ZN5Catch15AssertionResultC2ERKNS_13AssertionInfoERKNS_19AssertionResultDataE
FNDA:0,_ZN5Catch15CompactReporter12sectionEndedERKNS_12SectionStatsE
FNDA:0,_ZN5Catch15CompactReporter12testRunEndedERKNS_12TestRunStatsE
FNDA:0,_ZN5Catch15CompactReporter14assertionEndedERKNS_14AssertionStatsE
FNDA:0,_ZN5Catch15CompactReporter14getDescriptionB5cxx11Ev
FNDA:0,_ZN5Catch15CompactReporter17assertionStartingERKNS_13AssertionInfoE
FNDA:0,_ZN5Catch15CompactReporter19noMatchingTestCasesERKNSt7__cxx1112basic_stringIcSt11char_traitsIcESaIcEEE
FNDA:0,_ZN5Catch15CompactReporterD0Ev
FNDA:0,_ZN5Catch15CompactReporterD2Ev
FNDA:0,_ZN5Catch15ConsoleReporter11printTotalsERKNS_6TotalsE
FNDA:0,_ZN5Catch15ConsoleReporter12testRunEndedERKNS_12TestRunStatsE
FNDA:0,_ZN5Catch15ConsoleReporter13testCaseEndedERKNS_13TestCaseStatsE
FNDA:0,_ZN5Catch15ConsoleReporter14assertionEndedERKNS_14AssertionStatsE
FNDA:0,_ZN5Catch15ConsoleReporter14getDescriptionB5cxx11Ev
FNDA:0,_ZN5Catch15ConsoleReporter14testGroupEndedERKNS_14TestGroupStatsE
FNDA:0,_ZN5Catch15ConsoleReporter15printOpenHeaderERKNSt7__cxx1112basic_stringIcSt11char_traitsIcESaIcEEE
FNDA:0,_ZN5Catch15ConsoleReporter15printSummaryRowERKNSt7__cxx1112basic_stringIcSt11char_traitsIcESaIcEEERKSt6vectorINS_13SummaryColumnESaISA_EEm
FNDA:0,_ZN5Catch15ConsoleReporter16lazyPrintRunInfoEv
FNDA:0,_ZN5Catch15ConsoleReporter17assertionStartingERKNS_13AssertionInfoE
FNDA:0,_ZN5Catch15ConsoleReporter17printClosedHeaderERKNSt7__cxx1112basic_stringIcSt11char_traitsIcESaIcEEE
FNDA:0,_ZN5Catch15ConsoleReporter17printHeaderStringERKNSt7__cxx1112basic_stringIcSt11char_traitsIcESaIcEEEm
FNDA:0,_ZN5Catch15ConsoleReporter18lazyPrintGroupInfoEv
FNDA:0,_ZN5Catch15ConsoleReporter18printTotalsDividerERKNS_6TotalsE
FNDA:0,_ZN5Catch15ConsoleReporter19noMatchingTestCasesERKNSt7__cxx1112basic_stringIcSt11char_traitsIcESaIcEEE
FNDA:0,_ZN5Catch15ConsoleReporter19printSummaryDividerEv
FNDA:0,_ZN5Catch15ConsoleReporter22reportInvalidArgumentsERKNSt7__cxx1112basic_stringIcSt11char_traitsIcESaIcEEE
FNDA:0,_ZN5Catch15ConsoleReporter29printTestCaseAndSectionHeaderEv
FNDA:0,_ZN5Catch15ConsoleReporter37lazyPrintWithoutClosingBenchmarkTableEv
FNDA:0,_ZN5Catch15ConsoleReporter9lazyPrintEv
FNDA:0,_ZN5Catch15ConsoleReporterD0Ev
FNDA:0,_ZN5Catch15ConsoleReporterD2Ev
FNDA:0,_ZN5Catch15IMutableContextD0Ev
FNDA:0,_ZN5Catch15IMutableContextD2Ev
FNDA:0,_ZN5Catch15WildcardPatternD0Ev
FNDA:0,_ZN5Catch15WildcardPatternD2Ev
FNDA:0,_ZN5Catch15throw_exceptionISt11logic_errorEEvRKT_
FNDA:0,_ZN5Catch15throw_exceptionISt12domain_errorEEvRKT_
FNDA:0,_ZN5Catch15throw_exceptionISt13runtime_errorEEvRKT_
FNDA:0,_ZN5Catch16AssertionHandler10handleExprERKNS_20ITransientExpressionE
FNDA:0,_ZN5Catch16AssertionHandler10handleExprIRKPKN8tinyxml210XMLElementEEEvRKNS_7ExprLhsIT_EE
FNDA:0,_ZN5Catch16AssertionHandler10handleExprIRKPKcEEvRKNS_7ExprLhsIT_EE
FNDA:0,_ZN5Catch16AssertionHandler10handleExprIRKPN4mfem12GridFunctionEEEvRKNS_7ExprLhsIT_EE
FNDA:0,_ZN5Catch16AssertionHandler10handleExprIRKPN4mfem18QuadratureFunctionEEEvRKNS_7ExprLhsIT_EE
FNDA:0,_ZN5Catch16AssertionHandler10handleExprIRKPN4mfem4MeshEEEvRKNS_7ExprLhsIT_EE
FNDA:0,_ZN5Catch16AssertionHandler10handleExprIbEEvRKNS_7ExprLhsIT_EE
FNDA:0,_ZN5Catch16AssertionHandler12setCompletedEv
FNDA:0,_ZN5Catch16AssertionHandler13handleMessageENS_9ResultWas6OfTypeERKNS_9StringRefE
FNDA:0,_ZN5Catch16AssertionHandler25handleThrowingCallSkippedEv
FNDA:0,_ZN5Catch16AssertionHandler31handleExceptionThrownAsExpectedEv
FNDA:0,_ZN5Catch16AssertionHandler33handleUnexpectedInflightExceptionEv
FNDA:0,_ZN5Catch16AssertionHandler34handleExceptionNotThrownAsExpectedEv
FNDA:0,_ZN5Catch16AssertionHandler34handleUnexpectedExceptionNotThrownEv
FNDA:0,_ZN5Catch16AssertionHandler8completeEv
FNDA:0,_ZN5Catch16AssertionHandlerC2ERKNS_9StringRefERKNS_14SourceLineInfoES1_NS_17ResultDisposition5FlagsE
FNDA:0,_ZN5Catch16IReporterFactoryD0Ev
FNDA:0,_ZN5Catch16IReporterFactoryD2Ev
FNDA:0,_ZN5Catch16RedirectedStdErrC2Ev
FNDA:0,_ZN5Catch16RedirectedStdOutC2Ev
FNDA:0,_ZN5Catch16RedirectedStreamC2ERSoS1_
FNDA:0,_ZN5Catch16RedirectedStreamD2Ev
FNDA:0,_ZN5Catch16ReporterRegistry16registerListenerERKSt10shared_ptrINS_16IReporterFactoryEE
FNDA:0,_ZN5Catch16ReporterRegistry16registerReporterERKNSt7__cxx1112basic_stringIcSt11char_traitsIcESaIcEEERKSt10shared_ptrINS_16IReporterFactoryEE
FNDA:0,_ZN5Catch16ReporterRegistryD0Ev
FNDA:0,_ZN5Catch16ReporterRegistryD2Ev
FNDA:0,_ZN5Catch16TagAliasRegistry3addERKNSt7__cxx1112basic_stringIcSt11char_traitsIcESaIcEEES8_RKNS_14SourceLineInfoE
FNDA:0,_ZN5Catch16TagAliasRegistryD0Ev
FNDA:0,_ZN5Catch16TagAliasRegistryD2Ev
FNDA:0,_ZN5Catch16TestCaseTracking11TrackerBase10moveToThisEv
FNDA:0,_ZN5Catch16TestCaseTracking11TrackerBase12moveToParentEv
FNDA:0,_ZN5Catch16TestCaseTracking11TrackerBase23markAsNeedingAnotherRunEv
FNDA:0,_ZN5Catch16TestCaseTracking11TrackerBase4failEv
FNDA:0,_ZN5Catch16TestCaseTracking11TrackerBase4openEv
FNDA:0,_ZN5Catch16TestCaseTracking14TrackerContext10startCycleEv
FNDA:0,_ZN5Catch16TestCaseTracking14TrackerContext13completeCycleEv
FNDA:0,_ZN5Catch16TestCaseTracking14TrackerContext14currentTrackerEv
FNDA:0,_ZN5Catch16TestCaseTracking14TrackerContext17setCurrentTrackerEPNS0_8ITrackerE
FNDA:0,_ZN5Catch16TestCaseTracking14TrackerContext6endRunEv
FNDA:0,_ZN5Catch16TestCaseTracking15NameAndLocationC2ERKNSt7__cxx1112basic_stringIcSt11char_traitsIcESaIcEEERKNS_14SourceLineInfoE
FNDA:0,_ZN5Catch16TestCaseTracking8ITrackerD0Ev
FNDA:0,_ZN5Catch16TestCaseTracking8ITrackerD2Ev
FNDA:0,_ZN5Catch16isDebuggerActiveEv
FNDA:0,_ZN5Catch17IGeneratorTrackerD0Ev
FNDA:0,_ZN5Catch17IGeneratorTrackerD2Ev
FNDA:0,_ZN5Catch17IReporterRegistryD0Ev
FNDA:0,_ZN5Catch17IReporterRegistryD2Ev
FNDA:0,_ZN5Catch17ITagAliasRegistry3getEv
FNDA:0,_ZN5Catch17ITagAliasRegistryD0Ev
FNDA:0,_ZN5Catch17ITagAliasRegistryD2Ev
FNDA:0,_ZN5Catch17ITestCaseRegistryD0Ev
FNDA:0,_ZN5Catch17ITestCaseRegistryD2Ev
FNDA:0,_ZN5Catch17ListeningReporter11addListenerEOSt10unique_ptrINS_18IStreamingReporterESt14default_deleteIS2_EE
FNDA:0,_ZN5Catch17ListeningReporter11addReporterEOSt10unique_ptrINS_18IStreamingReporterESt14default_deleteIS2_EE
FNDA:0,_ZN5Catch17ListeningReporter12sectionEndedERKNS_12SectionStatsE
FNDA:0,_ZN5Catch17ListeningReporter12testRunEndedERKNS_12TestRunStatsE
FNDA:0,_ZN5Catch17ListeningReporter13testCaseEndedERKNS_13TestCaseStatsE
FNDA:0,_ZN5Catch17ListeningReporter14assertionEndedERKNS_14AssertionStatsE
FNDA:0,_ZN5Catch17ListeningReporter14testGroupEndedERKNS_14TestGroupStatsE
FNDA:0,_ZN5Catch17ListeningReporter15sectionStartingERKNS_11SectionInfoE
FNDA:0,_ZN5Catch17ListeningReporter15testRunStartingERKNS_11TestRunInfoE
FNDA:0,_ZN5Catch17ListeningReporter16testCaseStartingERKNS_12TestCaseInfoE
FNDA:0,_ZN5Catch17ListeningReporter17assertionStartingERKNS_13AssertionInfoE
FNDA:0,_ZN5Catch17ListeningReporter17testGroupStartingERKNS_9GroupInfoE
FNDA:0,_ZN5Catch17ListeningReporter19noMatchingTestCasesERKNSt7__cxx1112basic_stringIcSt11char_traitsIcESaIcEEE
FNDA:0,_ZN5Catch17ListeningReporter22reportInvalidArgumentsERKNSt7__cxx1112basic_stringIcSt11char_traitsIcESaIcEEE
FNDA:0,_ZN5Catch17ListeningReporter23getSupportedVerbositiesEv
FNDA:0,_ZN5Catch17ListeningReporter8skipTestERKNS_12TestCaseInfoE
FNDA:0,_ZN5Catch17ListeningReporterC2Ev
FNDA:0,_ZN5Catch17RedirectedStreamsC2ERNSt7__cxx1112basic_stringIcSt11char_traitsIcESaIcEEES7_
FNDA:0,_ZN5Catch17RedirectedStreamsD2Ev
FNDA:0,_ZN5Catch17cleanupSingletonsEv
FNDA:0,_ZN5Catch17throw_logic_errorERKNSt7__cxx1112basic_stringIcSt11char_traitsIcESaIcEEE
FNDA:0,_ZN5Catch18IStreamingReporter21fatalErrorEncounteredENS_9StringRefE
FNDA:0,_ZN5Catch18IStreamingReporter22reportInvalidArgumentsERKNSt7__cxx1112basic_stringIcSt11char_traitsIcESaIcEEE
FNDA:0,_ZN5Catch18listTestsNamesOnlyERKNS_6ConfigE
FNDA:0,_ZN5Catch18throw_domain_errorERKNSt7__cxx1112basic_stringIcSt11char_traitsIcESaIcEEE
FNDA:0,_ZN5Catch19AssertionResultDataC2ENS_9ResultWas6OfTypeERKNS_14LazyExpressionE
FNDA:0,_ZN5Catch19IMutableRegistryHubD0Ev
FNDA:0,_ZN5Catch19IMutableRegistryHubD2Ev
FNDA:0,_ZN5Catch19throw_runtime_errorERKNSt7__cxx1112basic_stringIcSt11char_traitsIcESaIcEEE
FNDA:0,_ZN5Catch19uncaught_exceptionsEv
FNDA:0,_ZN5Catch19writeToDebugConsoleERKNSt7__cxx1112basic_stringIcSt11char_traitsIcESaIcEEE
FNDA:0,_ZN5Catch20IExceptionTranslatorD0Ev
FNDA:0,_ZN5Catch20IExceptionTranslatorD2Ev
FNDA:0,_ZN5Catch20ITransientExpressionD0Ev
FNDA:0,_ZN5Catch20ITransientExpressionD2Ev
FNDA:0,_ZN5Catch20ReusableStringStreamD0Ev
FNDA:0,_ZN5Catch20getFormattedDurationB5cxx11Ed
FNDA:0,_ZN5Catch21FatalConditionHandler12handleSignalEi
FNDA:0,_ZN5Catch21FatalConditionHandler5resetEv
FNDA:0,_ZN5Catch21FatalConditionHandlerD2Ev
FNDA:0,_ZN5Catch21StreamingReporterBaseINS_11XmlReporterEE12sectionEndedERKNS_12SectionStatsE
FNDA:0,_ZN5Catch21StreamingReporterBaseINS_11XmlReporterEE12testRunEndedERKNS_12TestRunStatsE
FNDA:0,_ZN5Catch21StreamingReporterBaseINS_11XmlReporterEE13testCaseEndedERKNS_13TestCaseStatsE
FNDA:0,_ZN5Catch21StreamingReporterBaseINS_11XmlReporterEE14testGroupEndedERKNS_14TestGroupStatsE
FNDA:0,_ZN5Catch21StreamingReporterBaseINS_11XmlReporterEE15sectionStartingERKNS_11SectionInfoE
FNDA:0,_ZN5Catch21StreamingReporterBaseINS_11XmlReporterEE15testRunStartingERKNS_11TestRunInfoE
FNDA:0,_ZN5Catch21StreamingReporterBaseINS_11XmlReporterEE16testCaseStartingERKNS_12TestCaseInfoE
FNDA:0,_ZN5Catch21StreamingReporterBaseINS_11XmlReporterEE17testGroupStartingERKNS_9GroupInfoE
FNDA:0,_ZN5Catch21StreamingReporterBaseINS_11XmlReporterEE19noMatchingTestCasesERKNSt7__cxx1112basic_stringIcSt11char_traitsIcESaIcEEE
FNDA:0,_ZN5Catch21StreamingReporterBaseINS_11XmlReporterEE22reportInvalidArgumentsERKNSt7__cxx1112basic_stringIcSt11char_traitsIcESaIcEEE
FNDA:0,_ZN5Catch21StreamingReporterBaseINS_11XmlReporterEE8skipTestERKNS_12TestCaseInfoE
FNDA:0,_ZN5Catch21StreamingReporterBaseINS_11XmlReporterEEC2ERKNS_14ReporterConfigE
FNDA:0,_ZN5Catch21StreamingReporterBaseINS_11XmlReporterEED0Ev
FNDA:0,_ZN5Catch21StreamingReporterBaseINS_11XmlReporterEED2Ev
FNDA:0,_ZN5Catch21StreamingReporterBaseINS_15CompactReporterEE12sectionEndedERKNS_12SectionStatsE
FNDA:0,_ZN5Catch21StreamingReporterBaseINS_15CompactReporterEE12testRunEndedERKNS_12TestRunStatsE
FNDA:0,_ZN5Catch21StreamingReporterBaseINS_15CompactReporterEE13testCaseEndedERKNS_13TestCaseStatsE
FNDA:0,_ZN5Catch21StreamingReporterBaseINS_15CompactReporterEE14testGroupEndedERKNS_14TestGroupStatsE
FNDA:0,_ZN5Catch21StreamingReporterBaseINS_15CompactReporterEE15sectionStartingERKNS_11SectionInfoE
FNDA:0,_ZN5Catch21StreamingReporterBaseINS_15CompactReporterEE15testRunStartingERKNS_11TestRunInfoE
FNDA:0,_ZN5Catch21StreamingReporterBaseINS_15CompactReporterEE16testCaseStartingERKNS_12TestCaseInfoE
FNDA:0,_ZN5Catch21StreamingReporterBaseINS_15CompactReporterEE17testGroupStartingERKNS_9GroupInfoE
FNDA:0,_ZN5Catch21StreamingReporterBaseINS_15CompactReporterEE19noMatchingTestCasesERKNSt7__cxx1112basic_stringIcSt11char_traitsIcESaIcEEE
FNDA:0,_ZN5Catch21StreamingReporterBaseINS_15CompactReporterEE22reportInvalidArgumentsERKNSt7__cxx1112basic_stringIcSt11char_traitsIcESaIcEEE
FNDA:0,_ZN5Catch21StreamingReporterBaseINS_15CompactReporterEE8skipTestERKNS_12TestCaseInfoE
FNDA:0,_ZN5Catch21StreamingReporterBaseINS_15CompactReporterEEC2ERKNS_14ReporterConfigE
FNDA:0,_ZN5Catch21StreamingReporterBaseINS_15CompactReporterEED0Ev
FNDA:0,_ZN5Catch21StreamingReporterBaseINS_15CompactReporterEED2Ev
FNDA:0,_ZN5Catch21StreamingReporterBaseINS_15ConsoleReporterEE12sectionEndedERKNS_12SectionStatsE
FNDA:0,_ZN5Catch21StreamingReporterBaseINS_15ConsoleReporterEE12testRunEndedERKNS_12TestRunStatsE
FNDA:0,_ZN5Catch21StreamingReporterBaseINS_15ConsoleReporterEE13testCaseEndedERKNS_13TestCaseStatsE
FNDA:0,_ZN5Catch21StreamingReporterBaseINS_15ConsoleReporterEE14testGroupEndedERKNS_14TestGroupStatsE
FNDA:0,_ZN5Catch21StreamingReporterBaseINS_15ConsoleReporterEE15sectionStartingERKNS_11SectionInfoE
FNDA:0,_ZN5Catch21StreamingReporterBaseINS_15ConsoleReporterEE15testRunStartingERKNS_11TestRunInfoE
FNDA:0,_ZN5Catch21StreamingReporterBaseINS_15ConsoleReporterEE19noMatchingTestCasesERKNSt7__cxx1112basic_stringIcSt11char_traitsIcESaIcEEE
FNDA:0,_ZN5Catch21StreamingReporterBaseINS_15ConsoleReporterEE22reportInvalidArgumentsERKNSt7__cxx1112basic_stringIcSt11char_traitsIcESaIcEEE
FNDA:0,_ZN5Catch21StreamingReporterBaseINS_15ConsoleReporterEE8skipTestERKNS_12TestCaseInfoE
FNDA:0,_ZN5Catch21StreamingReporterBaseINS_15ConsoleReporterEED0Ev
FNDA:0,_ZN5Catch21StreamingReporterBaseINS_15ConsoleReporterEED2Ev
FNDA:0,_ZN5Catch21StreamingReporterBaseINS_21TestEventListenerBaseEE12sectionEndedERKNS_12SectionStatsE
FNDA:0,_ZN5Catch21StreamingReporterBaseINS_21TestEventListenerBaseEE12testRunEndedERKNS_12TestRunStatsE
FNDA:0,_ZN5Catch21StreamingReporterBaseINS_21TestEventListenerBaseEE13testCaseEndedERKNS_13TestCaseStatsE
FNDA:0,_ZN5Catch21StreamingReporterBaseINS_21TestEventListenerBaseEE14testGroupEndedERKNS_14TestGroupStatsE
FNDA:0,_ZN5Catch21StreamingReporterBaseINS_21TestEventListenerBaseEE15sectionStartingERKNS_11SectionInfoE
FNDA:0,_ZN5Catch21StreamingReporterBaseINS_21TestEventListenerBaseEE15testRunStartingERKNS_11TestRunInfoE
FNDA:0,_ZN5Catch21StreamingReporterBaseINS_21TestEventListenerBaseEE16testCaseStartingERKNS_12TestCaseInfoE
FNDA:0,_ZN5Catch21StreamingReporterBaseINS_21TestEventListenerBaseEE17testGroupStartingERKNS_9GroupInfoE
FNDA:0,_ZN5Catch21StreamingReporterBaseINS_21TestEventListenerBaseEE19noMatchingTestCasesERKNSt7__cxx1112basic_stringIcSt11char_traitsIcESaIcEEE
FNDA:0,_ZN5Catch21StreamingReporterBaseINS_21TestEventListenerBaseEE22reportInvalidArgumentsERKNSt7__cxx1112basic_stringIcSt11char_traitsIcESaIcEEE
FNDA:0,_ZN5Catch21StreamingReporterBaseINS_21TestEventListenerBaseEE8skipTestERKNS_12TestCaseInfoE
FNDA:0,_ZN5Catch21StreamingReporterBaseINS_21TestEventListenerBaseEEC2ERKNS_14ReporterConfigE
FNDA:0,_ZN5Catch21StreamingReporterBaseINS_21TestEventListenerBaseEED0Ev
FNDA:0,_ZN5Catch21StreamingReporterBaseINS_21TestEventListenerBaseEED2Ev
FNDA:0,_ZN5Catch21TestEventListenerBase14assertionEndedERKNS_14AssertionStatsE
FNDA:0,_ZN5Catch21TestEventListenerBase17assertionStartingERKNS_13AssertionInfoE
FNDA:0,_ZN5Catch21TestEventListenerBase23getSupportedVerbositiesEv
FNDA:0,_ZN5Catch21TestEventListenerBaseC2ERKNS_14ReporterConfigE
FNDA:0,_ZN5Catch21TestInvokerAsFunctionC2EPFvvE
FNDA:0,_ZN5Catch21getMutableRegistryHubEv
FNDA:0,_ZN5Catch21shouldSuppressFailureEi
FNDA:0,_ZN5Catch22CumulativeReporterBaseINS_13JunitReporterEE11SectionNodeC2ERKNS_12SectionStatsE
FNDA:0,_ZN5Catch22CumulativeReporterBaseINS_13JunitReporterEE11SectionNodeD0Ev
FNDA:0,_ZN5Catch22CumulativeReporterBaseINS_13JunitReporterEE11SectionNodeD2Ev
FNDA:0,_ZN5Catch22CumulativeReporterBaseINS_13JunitReporterEE12sectionEndedERKNS_12SectionStatsE
FNDA:0,_ZN5Catch22CumulativeReporterBaseINS_13JunitReporterEE12testRunEndedERKNS_12TestRunStatsE
FNDA:0,_ZN5Catch22CumulativeReporterBaseINS_13JunitReporterEE13testCaseEndedERKNS_13TestCaseStatsE
FNDA:0,_ZN5Catch22CumulativeReporterBaseINS_13JunitReporterEE14assertionEndedERKNS_14AssertionStatsE
FNDA:0,_ZN5Catch22CumulativeReporterBaseINS_13JunitReporterEE14testGroupEndedERKNS_14TestGroupStatsE
FNDA:0,_ZN5Catch22CumulativeReporterBaseINS_13JunitReporterEE15sectionStartingERKNS_11SectionInfoE
FNDA:0,_ZN5Catch22CumulativeReporterBaseINS_13JunitReporterEE15testRunStartingERKNS_11TestRunInfoE
FNDA:0,_ZN5Catch22CumulativeReporterBaseINS_13JunitReporterEE16testCaseStartingERKNS_12TestCaseInfoE
FNDA:0,_ZN5Catch22CumulativeReporterBaseINS_13JunitReporterEE17assertionStartingERKNS_13AssertionInfoE
FNDA:0,_ZN5Catch22CumulativeReporterBaseINS_13JunitReporterEE17testGroupStartingERKNS_9GroupInfoE
FNDA:0,_ZN5Catch22CumulativeReporterBaseINS_13JunitReporterEE4NodeINS_12TestRunStatsENS3_INS_14TestGroupStatsENS3_INS_13TestCaseStatsENS2_11SectionNodeEEEEEED0Ev
FNDA:0,_ZN5Catch22CumulativeReporterBaseINS_13JunitReporterEE4NodeINS_12TestRunStatsENS3_INS_14TestGroupStatsENS3_INS_13TestCaseStatsENS2_11SectionNodeEEEEEED2Ev
FNDA:0,_ZN5Catch22CumulativeReporterBaseINS_13JunitReporterEE4NodeINS_13TestCaseStatsENS2_11SectionNodeEED0Ev
FNDA:0,_ZN5Catch22CumulativeReporterBaseINS_13JunitReporterEE4NodeINS_13TestCaseStatsENS2_11SectionNodeEED2Ev
FNDA:0,_ZN5Catch22CumulativeReporterBaseINS_13JunitReporterEE4NodeINS_14TestGroupStatsENS3_INS_13TestCaseStatsENS2_11SectionNodeEEEED0Ev
FNDA:0,_ZN5Catch22CumulativeReporterBaseINS_13JunitReporterEE4NodeINS_14TestGroupStatsENS3_INS_13TestCaseStatsENS2_11SectionNodeEEEED2Ev
FNDA:0,_ZN5Catch22CumulativeReporterBaseINS_13JunitReporterEE8skipTestERKNS_12TestCaseInfoE
FNDA:0,_ZN5Catch22CumulativeReporterBaseINS_13JunitReporterEEC2ERKNS_14ReporterConfigE
FNDA:0,_ZN5Catch22CumulativeReporterBaseINS_13JunitReporterEED0Ev
FNDA:0,_ZN5Catch22CumulativeReporterBaseINS_13JunitReporterEED2Ev
FNDA:0,_ZN5Catch22RegistrarForTagAliasesC2EPKcS2_RKNS_14SourceLineInfoE
FNDA:0,_ZN5Catch23shouldContinueOnFailureEi
FNDA:0,_ZN5Catch24StartupExceptionRegistry3addERKNSt15__exception_ptr13exception_ptrE
FNDA:0,_ZN5Catch24handleExceptionMatchExprERNS_16AssertionHandlerERKNS_8Matchers4Impl11MatcherBaseINSt7__cxx1112basic_stringIcSt11char_traitsIcESaIcEEEEERKNS_9StringRefE
FNDA:0,_ZN5Catch24handleExceptionMatchExprERNS_16AssertionHandlerERKNSt7__cxx1112basic_stringIcSt11char_traitsIcESaIcEEERKNS_9StringRefE
FNDA:0,_ZN5Catch24translateActiveExceptionB5cxx11Ev
FNDA:0,_ZN5Catch25prepareExpandedExpressionERNS_15AssertionResultE
FNDA:0,_ZN5Catch26IMutableEnumValuesRegistryD0Ev
FNDA:0,_ZN5Catch26IMutableEnumValuesRegistryD2Ev
FNDA:0,_ZN5Catch27ExceptionTranslatorRegistry18registerTranslatorEPKNS_20IExceptionTranslatorE
FNDA:0,_ZN5Catch27ExceptionTranslatorRegistryD0Ev
FNDA:0,_ZN5Catch27ExceptionTranslatorRegistryD2Ev
FNDA:0,_ZN5Catch27getEstimatedClockResolutionEv
FNDA:0,_ZN5Catch28IExceptionTranslatorRegistryD0Ev
FNDA:0,_ZN5Catch28IExceptionTranslatorRegistryD2Ev
FNDA:0,_ZN5Catch29formatReconstructedExpressionERSoRKNSt7__cxx1112basic_stringIcSt11char_traitsIcESaIcEEENS_9StringRefES8_
FNDA:0,_ZN5Catch31getCurrentNanosecondsSinceEpochEv
FNDA:0,_ZN5Catch3rngEv
FNDA:0,_ZN5Catch4cerrEv
FNDA:0,_ZN5Catch4clogEv
FNDA:0,_ZN5Catch4coutEv
FNDA:0,_ZN5Catch4isOkENS_9ResultWas6OfTypeE
FNDA:0,_ZN5Catch4trimENS_9StringRefE
FNDA:0,_ZN5Catch5Timer5startEv
FNDA:0,_ZN5Catch5clara6detail11BasicResultINS1_10ParseStateEEC2ENS1_10ResultBase4TypeERKNSt7__cxx1112basic_stringIcSt11char_traitsIcESaIcEEE
FNDA:0,_ZN5Catch5clara6detail11BasicResultINS1_10ParseStateEEC2INS1_15ParseResultTypeEEERKNS2_IT_EE
FNDA:0,_ZN5Catch5clara6detail11BasicResultINS1_10ParseStateEEC2IvEERKNS2_IT_EE
FNDA:0,_ZN5Catch5clara6detail11BasicResultINS1_15ParseResultTypeEEC2ENS1_10ResultBase4TypeERKNSt7__cxx1112basic_stringIcSt11char_traitsIcESaIcEEE
FNDA:0,_ZN5Catch5clara6detail11BasicResultIvEC2ENS1_10ResultBase4TypeERKNSt7__cxx1112basic_stringIcSt11char_traitsIcESaIcEEE
FNDA:0,_ZN5Catch5clara6detail11BoundLambdaIZNS_21makeCommandLineParserERNS_10ConfigDataEEUlRKNSt7__cxx1112basic_stringIcSt11char_traitsIcESaIcEEEE0_E8setValueESC_
FNDA:0,_ZN5Catch5clara6detail11BoundLambdaIZNS_21makeCommandLineParserERNS_10ConfigDataEEUlRKNSt7__cxx1112basic_stringIcSt11char_traitsIcESaIcEEEE1_E8setValueESC_
FNDA:0,_ZN5Catch5clara6detail11BoundLambdaIZNS_21makeCommandLineParserERNS_10ConfigDataEEUlRKNSt7__cxx1112basic_stringIcSt11char_traitsIcESaIcEEEE2_E8setValueESC_
FNDA:0,_ZN5Catch5clara6detail11BoundLambdaIZNS_21makeCommandLineParserERNS_10ConfigDataEEUlRKNSt7__cxx1112basic_stringIcSt11char_traitsIcESaIcEEEE3_E8setValueESC_
FNDA:0,_ZN5Catch5clara6detail11BoundLambdaIZNS_21makeCommandLineParserERNS_10ConfigDataEEUlRKNSt7__cxx1112basic_stringIcSt11char_traitsIcESaIcEEEE4_E8setValueESC_
FNDA:0,_ZN5Catch5clara6detail11BoundLambdaIZNS_21makeCommandLineParserERNS_10ConfigDataEEUlRKNSt7__cxx1112basic_stringIcSt11char_traitsIcESaIcEEEE5_E8setValueESC_
FNDA:0,_ZN5Catch5clara6detail11BoundLambdaIZNS_21makeCommandLineParserERNS_10ConfigDataEEUlRKNSt7__cxx1112basic_stringIcSt11char_traitsIcESaIcEEEE6_E8setValueESC_
FNDA:0,_ZN5Catch5clara6detail11BoundLambdaIZNS_21makeCommandLineParserERNS_10ConfigDataEEUlRKNSt7__cxx1112basic_stringIcSt11char_traitsIcESaIcEEEE_E8setValueESC_
FNDA:0,_ZN5Catch5clara6detail11BoundLambdaIZNS_21makeCommandLineParserERNS_10ConfigDataEEUlbE9_E8setValueERKNSt7__cxx1112basic_stringIcSt11char_traitsIcESaIcEEE
FNDA:0,_ZN5Catch5clara6detail11BoundLambdaIZNS_21makeCommandLineParserERNS_10ConfigDataEEUliE8_E8setValueERKNSt7__cxx1112basic_stringIcSt11char_traitsIcESaIcEEE
FNDA:0,_ZN5Catch5clara6detail11convertIntoERKNSt7__cxx1112basic_stringIcSt11char_traitsIcESaIcEEERb
FNDA:0,_ZN5Catch5clara6detail11convertIntoIdEENS1_11BasicResultINS1_15ParseResultTypeEEERKNSt7__cxx1112basic_stringIcSt11char_traitsIcESaIcEEERT_
FNDA:0,_ZN5Catch5clara6detail11convertIntoIiEENS1_11BasicResultINS1_15ParseResultTypeEEERKNSt7__cxx1112basic_stringIcSt11char_traitsIcESaIcEEERT_
FNDA:0,_ZN5Catch5clara6detail11convertIntoIjEENS1_11BasicResultINS1_15ParseResultTypeEEERKNSt7__cxx1112basic_stringIcSt11char_traitsIcESaIcEEERT_
FNDA:0,_ZN5Catch5clara6detail11convertIntoIlEENS1_11BasicResultINS1_15ParseResultTypeEEERKNSt7__cxx1112basic_stringIcSt11char_traitsIcESaIcEEERT_
FNDA:0,_ZN5Catch5clara6detail12BoundFlagRef7setFlagEb
FNDA:0,_ZN5Catch5clara6detail12invokeLambdaINSt7__cxx1112basic_stringIcSt11char_traitsIcESaIcEEEZNS_21makeCommandLineParserERNS_10ConfigDataEEUlRKS8_E0_EENS1_11BasicResultINS1_15ParseResultTypeEEERKT0_SC_
FNDA:0,_ZN5Catch5clara6detail12invokeLambdaINSt7__cxx1112basic_stringIcSt11char_traitsIcESaIcEEEZNS_21makeCommandLineParserERNS_10ConfigDataEEUlRKS8_E1_EENS1_11BasicResultINS1_15ParseResultTypeEEERKT0_SC_
FNDA:0,_ZN5Catch5clara6detail12invokeLambdaINSt7__cxx1112basic_stringIcSt11char_traitsIcESaIcEEEZNS_21makeCommandLineParserERNS_10ConfigDataEEUlRKS8_E2_EENS1_11BasicResultINS1_15ParseResultTypeEEERKT0_SC_
FNDA:0,_ZN5Catch5clara6detail12invokeLambdaINSt7__cxx1112basic_stringIcSt11char_traitsIcESaIcEEEZNS_21makeCommandLineParserERNS_10ConfigDataEEUlRKS8_E3_EENS1_11BasicResultINS1_15ParseResultTypeEEERKT0_SC_
FNDA:0,_ZN5Catch5clara6detail12invokeLambdaINSt7__cxx1112basic_stringIcSt11char_traitsIcESaIcEEEZNS_21makeCommandLineParserERNS_10ConfigDataEEUlRKS8_E4_EENS1_11BasicResultINS1_15ParseResultTypeEEERKT0_SC_
FNDA:0,_ZN5Catch5clara6detail12invokeLambdaINSt7__cxx1112basic_stringIcSt11char_traitsIcESaIcEEEZNS_21makeCommandLineParserERNS_10ConfigDataEEUlRKS8_E5_EENS1_11BasicResultINS1_15ParseResultTypeEEERKT0_SC_
FNDA:0,_ZN5Catch5clara6detail12invokeLambdaINSt7__cxx1112basic_stringIcSt11char_traitsIcESaIcEEEZNS_21makeCommandLineParserERNS_10ConfigDataEEUlRKS8_E6_EENS1_11BasicResultINS1_15ParseResultTypeEEERKT0_SC_
FNDA:0,_ZN5Catch5clara6detail12invokeLambdaINSt7__cxx1112basic_stringIcSt11char_traitsIcESaIcEEEZNS_21makeCommandLineParserERNS_10ConfigDataEEUlRKS8_E_EENS1_11BasicResultINS1_15ParseResultTypeEEERKT0_SC_
FNDA:0,_ZN5Catch5clara6detail12invokeLambdaIbZNS_21makeCommandLineParserERNS_10ConfigDataEEUlbE9_EENS1_11BasicResultINS1_15ParseResultTypeEEERKT0_RKNSt7__cxx1112basic_stringIcSt11char_traitsIcESaIcEEE
FNDA:0,_ZN5Catch5clara6detail12invokeLambdaIiZNS_21makeCommandLineParserERNS_10ConfigDataEEUliE8_EENS1_11BasicResultINS1_15ParseResultTypeEEERKT0_RKNSt7__cxx1112basic_stringIcSt11char_traitsIcESaIcEEE
FNDA:0,_ZN5Catch5clara6detail13BoundValueRefIdE8setValueERKNSt7__cxx1112basic_stringIcSt11char_traitsIcESaIcEEE
FNDA:0,_ZN5Catch5clara6detail13BoundValueRefIjE8setValueERKNSt7__cxx1112basic_stringIcSt11char_traitsIcESaIcEEE
FNDA:0,_ZN5Catch5clara6detail13BoundValueRefIlE8setValueERKNSt7__cxx1112basic_stringIcSt11char_traitsIcESaIcEEE
FNDA:0,_ZN5Catch5clara6detail15BoundFlagLambdaIZNS1_4HelpC4ERbEUlbE_E7setFlagEb
FNDA:0,_ZN5Catch5clara6detail15BoundFlagLambdaIZNS_21makeCommandLineParserERNS_10ConfigDataEEUlbE7_E7setFlagEb
FNDA:0,_ZN5Catch5clara8TextFlow12isWhitespaceEc
FNDA:0,_ZN5Catch5clara8TextFlow16isBreakableAfterEc
FNDA:0,_ZN5Catch5clara8TextFlow17isBreakableBeforeEc
FNDA:0,_ZN5Catch5clara8TextFlow6Column8iterator10calcLengthEv
FNDA:0,_ZN5Catch5clara8TextFlow6Column8iteratorC2ERKS2_
FNDA:0,_ZN5Catch5clara8TextFlow6Column8iteratorppEv
FNDA:0,_ZN5Catch5clara8TextFlow6ColumnC2ERKNSt7__cxx1112basic_stringIcSt11char_traitsIcESaIcEEE
FNDA:0,_ZN5Catch5clara8TextFlow6ColumnplERKS2_
FNDA:0,_ZN5Catch5clara8TextFlow6SpacerC2Em
FNDA:0,_ZN5Catch5clara8TextFlow7Columns8iteratorC2ERKS2_
FNDA:0,_ZN5Catch5clara8TextFlow7Columns8iteratorC2ERKS2_NS3_6EndTagE
FNDA:0,_ZN5Catch5clara8TextFlow7Columns8iteratorppEv
FNDA:0,_ZN5Catch5clara8TextFlow7ColumnsplERKNS1_6ColumnE
FNDA:0,_ZN5Catch5clara8TextFlowlsERSoRKNS1_6ColumnE
FNDA:0,_ZN5Catch5clara8TextFlowlsERSoRKNS1_7ColumnsE
FNDA:0,_ZN5Catch5isnanEd
FNDA:0,_ZN5Catch5isnanEf
FNDA:0,_ZN5Catch6ColourC2ENS0_4CodeE
FNDA:0,_ZN5Catch6ColourC2EOS0_
FNDA:0,_ZN5Catch6ColourD2Ev
FNDA:0,_ZN5Catch6ColouraSEOS0_
FNDA:0,_ZN5Catch6Config10openStreamEv
FNDA:0,_ZN5Catch6ConfigD0Ev
FNDA:0,_ZN5Catch6ConfigD2Ev
FNDA:0,_ZN5Catch6CountspLERKS0_
FNDA:0,_ZN5Catch6Detail10parseEnumsENS_9StringRefE
FNDA:0,_ZN5Catch6Detail12_GLOBAL__N_110CoutStreamD0Ev
FNDA:0,_ZN5Catch6Detail12_GLOBAL__N_110CoutStreamD2Ev
FNDA:0,_ZN5Catch6Detail12_GLOBAL__N_110FileStreamC2ENS_9StringRefE
FNDA:0,_ZN5Catch6Detail12_GLOBAL__N_110FileStreamD0Ev
FNDA:0,_ZN5Catch6Detail12_GLOBAL__N_110FileStreamD2Ev
FNDA:0,_ZN5Catch6Detail12_GLOBAL__N_113StreamBufImplINS1_17OutputDebugWriterELm256EE4syncEv
FNDA:0,_ZN5Catch6Detail12_GLOBAL__N_113StreamBufImplINS1_17OutputDebugWriterELm256EE8overflowEi
FNDA:0,_ZN5Catch6Detail12_GLOBAL__N_113StreamBufImplINS1_17OutputDebugWriterELm256EED0Ev
FNDA:0,_ZN5Catch6Detail12_GLOBAL__N_113StreamBufImplINS1_17OutputDebugWriterELm256EED2Ev
FNDA:0,_ZN5Catch6Detail12_GLOBAL__N_114DebugOutStreamC2Ev
FNDA:0,_ZN5Catch6Detail12_GLOBAL__N_114DebugOutStreamD0Ev
FNDA:0,_ZN5Catch6Detail12_GLOBAL__N_114DebugOutStreamD2Ev
FNDA:0,_ZN5Catch6Detail12_GLOBAL__N_119extractInstanceNameENS_9StringRefE
FNDA:0,_ZN5Catch6Detail12makeEnumInfoENS_9StringRefES1_RKSt6vectorIiSaIiEE
FNDA:0,_ZN5Catch6Detail17rawMemoryToStringB5cxx11EPKvm
FNDA:0,_ZN5Catch6Detail18EnumValuesRegistry12registerEnumENS_9StringRefES2_RKSt6vectorIiSaIiEE
FNDA:0,_ZN5Catch6Detail6Approx10setEpsilonEd
FNDA:0,_ZN5Catch6Detail6Approx6customEv
FNDA:0,_ZN5Catch6Detail6Approx9setMarginEd
FNDA:0,_ZN5Catch6Detail6ApproxC2Ed
FNDA:0,_ZN5Catch6Detail8EnumInfoD2Ev
FNDA:0,_ZN5Catch6OptionINS_15AssertionResultEEaSERKS1_
FNDA:0,_ZN5Catch6TotalspLERKS0_
FNDA:0,_ZN5Catch7AutoRegD0Ev
FNDA:0,_ZN5Catch7AutoRegD2Ev
FNDA:0,_ZN5Catch7Context9getRunnerEv
FNDA:0,_ZN5Catch7ContextD0Ev
FNDA:0,_ZN5Catch7ContextD2Ev
FNDA:0,_ZN5Catch7ExprLhsIRKNSt7__cxx1112basic_stringIcSt11char_traitsIcESaIcEEEEeqIS6_EEKNS_10BinaryExprIS8_RKT_EESE_
FNDA:0,_ZN5Catch7ExprLhsIRKdEeqINS_6Detail6ApproxEEEKNS_10BinaryExprIS2_RKT_EESA_
FNDA:0,_ZN5Catch7IConfigD0Ev
FNDA:0,_ZN5Catch7IConfigD2Ev
FNDA:0,_ZN5Catch7IRunnerD0Ev
FNDA:0,_ZN5Catch7IRunnerD2Ev
FNDA:0,_ZN5Catch7IStreamD0Ev
FNDA:0,_ZN5Catch7IStreamD2Ev
FNDA:0,_ZN5Catch7SectionD0Ev
FNDA:0,_ZN5Catch7Session10configDataEv
FNDA:0,_ZN5Catch7Session11libIdentifyEv
FNDA:0,_ZN5Catch7Session3cliERKNS_5clara6detail6ParserE
FNDA:0,_ZN5Catch7SessionD0Ev
FNDA:0,_ZN5Catch7SessionD2Ev
FNDA:0,_ZN5Catch7TagInfo3addERKNSt7__cxx1112basic_stringIcSt11char_traitsIcESaIcEEE
FNDA:0,_ZN5Catch7VersionC2EjjjPKcj
FNDA:0,_ZN5Catch7cleanUpEv
FNDA:0,_ZN5Catch7rngSeedEv
FNDA:0,_ZN5Catch8Capturer12captureValueEmRKNSt7__cxx1112basic_stringIcSt11char_traitsIcESaIcEEE
FNDA:0,_ZN5Catch8Capturer13captureValuesINSt7__cxx1112basic_stringIcSt11char_traitsIcESaIcEEEJibiiibEEEvmRKT_DpRKT0_
FNDA:0,_ZN5Catch8Capturer13captureValuesINSt7__cxx1112basic_stringIcSt11char_traitsIcESaIcEEEJiiEEEvmRKT_DpRKT0_
FNDA:0,_ZN5Catch8Capturer13captureValuesINSt7__cxx1112basic_stringIcSt11char_traitsIcESaIcEEEJiiiEEEvmRKT_DpRKT0_
FNDA:0,_ZN5Catch8Capturer13captureValuesIbEEvmRKT_
FNDA:0,_ZN5Catch8Capturer13captureValuesIbJiiibEEEvmRKT_DpRKT0_
FNDA:0,_ZN5Catch8Capturer13captureValuesIiEEvmRKT_
FNDA:0,_ZN5Catch8Capturer13captureValuesIiJbEEEvmRKT_DpRKT0_
FNDA:0,_ZN5Catch8Capturer13captureValuesIiJbiiibEEEvmRKT_DpRKT0_
FNDA:0,_ZN5Catch8Capturer13captureValuesIiJiEEEvmRKT_DpRKT0_
FNDA:0,_ZN5Catch8Capturer13captureValuesIiJibEEEvmRKT_DpRKT0_
FNDA:0,_ZN5Catch8Capturer13captureValuesIiJiiEEEvmRKT_DpRKT0_
FNDA:0,_ZN5Catch8Capturer13captureValuesIiJiibEEEvmRKT_DpRKT0_
FNDA:0,_ZN5Catch8CapturerC2ENS_9StringRefERKNS_14SourceLineInfoENS_9ResultWas6OfTypeES1_
FNDA:0,_ZN5Catch8CapturerD2Ev
FNDA:0,_ZN5Catch8IContextD0Ev
FNDA:0,_ZN5Catch8IContextD2Ev
FNDA:0,_ZN5Catch8Matchers10StartsWithERKNSt7__cxx1112basic_stringIcSt11char_traitsIcESaIcEEENS_13CaseSensitive6ChoiceE
FNDA:0,_ZN5Catch8Matchers4Impl18MatcherUntypedBaseD0Ev
FNDA:0,_ZN5Catch8Matchers4Impl18MatcherUntypedBaseD2Ev
FNDA:0,_ZN5Catch8Matchers6EqualsERKNSt7__cxx1112basic_stringIcSt11char_traitsIcESaIcEEENS_13CaseSensitive6ChoiceE
FNDA:0,_ZN5Catch8Matchers7Generic6Detail19finalizeDescriptionERKNSt7__cxx1112basic_stringIcSt11char_traitsIcESaIcEEE
FNDA:0,_ZN5Catch8Matchers7MatchesERKNSt7__cxx1112basic_stringIcSt11char_traitsIcESaIcEEENS_13CaseSensitive6ChoiceE
FNDA:0,_ZN5Catch8Matchers7MessageERKNSt7__cxx1112basic_stringIcSt11char_traitsIcESaIcEEE
FNDA:0,_ZN5Catch8Matchers8ContainsERKNSt7__cxx1112basic_stringIcSt11char_traitsIcESaIcEEENS_13CaseSensitive6ChoiceE
FNDA:0,_ZN5Catch8Matchers8EndsWithERKNSt7__cxx1112basic_stringIcSt11char_traitsIcESaIcEEENS_13CaseSensitive6ChoiceE
FNDA:0,_ZN5Catch8Matchers8Floating16WithinAbsMatcherC2Edd
FNDA:0,_ZN5Catch8Matchers8Floating16WithinRelMatcherC2Edd
FNDA:0,_ZN5Catch8Matchers8Floating17WithinUlpsMatcherC2EdmNS1_17FloatingPointKindE
FNDA:0,_ZN5Catch8Matchers9Exception23ExceptionMessageMatcherC2ERKNSt7__cxx1112basic_stringIcSt11char_traitsIcESaIcEEE
FNDA:0,_ZN5Catch8Matchers9StdString11CasedStringC2ERKNSt7__cxx1112basic_stringIcSt11char_traitsIcESaIcEEENS_13CaseSensitive6ChoiceE
FNDA:0,_ZN5Catch8Matchers9StdString12RegexMatcherC2ENSt7__cxx1112basic_stringIcSt11char_traitsIcESaIcEEENS_13CaseSensitive6ChoiceE
FNDA:0,_ZN5Catch8Matchers9StdString13EqualsMatcherC2ERKNS1_11CasedStringE
FNDA:0,_ZN5Catch8Matchers9StdString15ContainsMatcherC2ERKNS1_11CasedStringE
FNDA:0,_ZN5Catch8Matchers9StdString15EndsWithMatcherC2ERKNS1_11CasedStringE
FNDA:0,_ZN5Catch8Matchers9StdString17StartsWithMatcherC2ERKNS1_11CasedStringE
FNDA:0,_ZN5Catch8Matchers9StdString17StringMatcherBaseC2ERKNSt7__cxx1112basic_stringIcSt11char_traitsIcESaIcEEERKNS1_11CasedStringE
FNDA:0,_ZN5Catch8Matchers9WithinAbsEdd
FNDA:0,_ZN5Catch8Matchers9WithinRelEd
FNDA:0,_ZN5Catch8Matchers9WithinRelEdd
FNDA:0,_ZN5Catch8Matchers9WithinRelEf
FNDA:0,_ZN5Catch8Matchers9WithinRelEff
FNDA:0,_ZN5Catch8Matchers9WithinULPEdm
FNDA:0,_ZN5Catch8Matchers9WithinULPEfm
FNDA:0,_ZN5Catch8TagAliasC2ERKNSt7__cxx1112basic_stringIcSt11char_traitsIcESaIcEEENS_14SourceLineInfoE
FNDA:0,_ZN5Catch8TestSpec7PatternC2ERKNSt7__cxx1112basic_stringIcSt11char_traitsIcESaIcEEE
FNDA:0,_ZN5Catch8TestSpec7PatternD0Ev
FNDA:0,_ZN5Catch8TestSpec7PatternD2Ev
FNDA:0,_ZN5Catch8containsERKNSt7__cxx1112basic_stringIcSt11char_traitsIcESaIcEEES7_
FNDA:0,_ZN5Catch8endsWithERKNSt7__cxx1112basic_stringIcSt11char_traitsIcESaIcEEES7_
FNDA:0,_ZN5Catch8endsWithERKNSt7__cxx1112basic_stringIcSt11char_traitsIcESaIcEEEc
FNDA:0,_ZN5Catch8listTagsERKNS_6ConfigE
FNDA:0,_ZN5Catch8literalsli2_aEe
FNDA:0,_ZN5Catch8literalsli2_aEy
FNDA:0,_ZN5Catch9GroupInfoC2ERKNSt7__cxx1112basic_stringIcSt11char_traitsIcESaIcEEEmm
FNDA:0,_ZN5Catch9XmlEncodeC2ERKNSt7__cxx1112basic_stringIcSt11char_traitsIcESaIcEEENS0_7ForWhatE
FNDA:0,_ZN5Catch9XmlWriter10endElementENS_13XmlFormattingE
FNDA:0,_ZN5Catch9XmlWriter12startElementERKNSt7__cxx1112basic_stringIcSt11char_traitsIcESaIcEEENS_13XmlFormattingE
FNDA:0,_ZN5Catch9XmlWriter12writeCommentERKNSt7__cxx1112basic_stringIcSt11char_traitsIcESaIcEEENS_13XmlFormattingE
FNDA:0,_ZN5Catch9XmlWriter13ScopedElement9writeTextERKNSt7__cxx1112basic_stringIcSt11char_traitsIcESaIcEEENS_13XmlFormattingE
FNDA:0,_ZN5Catch9XmlWriter13ScopedElementC2EOS1_
FNDA:0,_ZN5Catch9XmlWriter13ScopedElementC2EPS0_NS_13XmlFormattingE
FNDA:0,_ZN5Catch9XmlWriter13ScopedElementD2Ev
FNDA:0,_ZN5Catch9XmlWriter13ScopedElementaSEOS1_
FNDA:0,_ZN5Catch9XmlWriter13scopedElementERKNSt7__cxx1112basic_stringIcSt11char_traitsIcESaIcEEENS_13XmlFormattingE
FNDA:0,_ZN5Catch9XmlWriter14writeAttributeERKNSt7__cxx1112basic_stringIcSt11char_traitsIcESaIcEEES8_
FNDA:0,_ZN5Catch9XmlWriter14writeAttributeERKNSt7__cxx1112basic_stringIcSt11char_traitsIcESaIcEEEb
FNDA:0,_ZN5Catch9XmlWriter14writeAttributeIA12_cEERS0_RKNSt7__cxx1112basic_stringIcSt11char_traitsIcESaIcEEERKT_
FNDA:0,_ZN5Catch9XmlWriter14writeAttributeIA1_cEERS0_RKNSt7__cxx1112basic_stringIcSt11char_traitsIcESaIcEEERKT_
FNDA:0,_ZN5Catch9XmlWriter14writeAttributeIA4_cEERS0_RKNSt7__cxx1112basic_stringIcSt11char_traitsIcESaIcEEERKT_
FNDA:0,_ZN5Catch9XmlWriter14writeAttributeIA5_cEERS0_RKNSt7__cxx1112basic_stringIcSt11char_traitsIcESaIcEEERKT_
FNDA:0,_ZN5Catch9XmlWriter14writeAttributeIA8_cEERS0_RKNSt7__cxx1112basic_stringIcSt11char_traitsIcESaIcEEERKT_
FNDA:0,_ZN5Catch9XmlWriter14writeAttributeINS_9StringRefEEERS0_RKNSt7__cxx1112basic_stringIcSt11char_traitsIcESaIcEEERKT_
FNDA:0,_ZN5Catch9XmlWriter14writeAttributeIPKcEERS0_RKNSt7__cxx1112basic_stringIcSt11char_traitsIcESaIcEEERKT_
FNDA:0,_ZN5Catch9XmlWriter14writeAttributeIdEERS0_RKNSt7__cxx1112basic_stringIcSt11char_traitsIcESaIcEEERKT_
FNDA:0,_ZN5Catch9XmlWriter14writeAttributeIjEERS0_RKNSt7__cxx1112basic_stringIcSt11char_traitsIcESaIcEEERKT_
FNDA:0,_ZN5Catch9XmlWriter14writeAttributeImEERS0_RKNSt7__cxx1112basic_stringIcSt11char_traitsIcESaIcEEERKT_
FNDA:0,_ZN5Catch9XmlWriter14writeBlankLineEv
FNDA:0,_ZN5Catch9XmlWriter15applyFormattingENS_13XmlFormattingE
FNDA:0,_ZN5Catch9XmlWriter15ensureTagClosedEv
FNDA:0,_ZN5Catch9XmlWriter16writeDeclarationEv
FNDA:0,_ZN5Catch9XmlWriter18newlineIfNecessaryEv
FNDA:0,_ZN5Catch9XmlWriter18writeStylesheetRefERKNSt7__cxx1112basic_stringIcSt11char_traitsIcESaIcEEE
FNDA:0,_ZN5Catch9XmlWriter9writeTextERKNSt7__cxx1112basic_stringIcSt11char_traitsIcESaIcEEENS_13XmlFormattingE
FNDA:0,_ZN5Catch9XmlWriterC2ERSo
FNDA:0,_ZN5Catch9XmlWriterD2Ev
FNDA:0,_ZN5Catch9listTestsERKNS_6ConfigE
FNDA:0,_ZN5Catch9matchTestERKNS_8TestCaseERKNS_8TestSpecERKNS_7IConfigE
FNDA:0,_ZN5Catch9pluraliseC2EmRKNSt7__cxx1112basic_stringIcSt11char_traitsIcESaIcEEE
FNDA:0,_ZN5CatchanENS_13XmlFormattingES0_
FNDA:0,_ZN5CatcheqERKNS_11SimplePcg32ES2_
FNDA:0,_ZN5CatchlsERSoRKNS_14LazyExpressionE
FNDA:0,_ZN5CatchlsERSoRKNS_14SourceLineInfoE
FNDA:0,_ZN5CatchlsERSoRKNS_6ColourE
FNDA:0,_ZN5CatchlsERSoRKNS_7VersionE
FNDA:0,_ZN5CatchlsERSoRKNS_9StringRefE
FNDA:0,_ZN5CatchlsERSoRKNS_9XmlEncodeE
FNDA:0,_ZN5CatchlsERSoRKNS_9pluraliseE
FNDA:0,_ZN5CatchneERKNS_11SimplePcg32ES2_
FNDA:0,_ZN5CatchorENS_13XmlFormattingES0_
FNDA:0,_ZN5CatchorENS_17ResultDisposition5FlagsES1_
FNDA:0,_ZN5CatchpLERNSt7__cxx1112basic_stringIcSt11char_traitsIcESaIcEEERKNS_9StringRefE
FNDA:0,_ZNK5Catch10BinaryExprIRKN4mfem10MemoryTypeES4_E29streamReconstructedExpressionERSo
FNDA:0,_ZNK5Catch10BinaryExprIRKN4mfem8Geometry4TypeES5_E29streamReconstructedExpressionERSo
FNDA:0,_ZNK5Catch10BinaryExprIRKN8tinyxml28XMLErrorES4_E29streamReconstructedExpressionERSo
FNDA:0,_ZNK5Catch10BinaryExprIRKNSt7__cxx1112basic_stringIcSt11char_traitsIcESaIcEEES8_E29streamReconstructedExpressionERSo
FNDA:0,_ZNK5Catch10BinaryExprIRKPKN8tinyxml210XMLElementERKDnE29streamReconstructedExpressionERSo
FNDA:0,_ZNK5Catch10BinaryExprIRKPKdRKPdE29streamReconstructedExpressionERSo
FNDA:0,_ZNK5Catch10BinaryExprIRKPN4mfem12GridFunctionERKDnE29streamReconstructedExpressionERSo
FNDA:0,_ZNK5Catch10BinaryExprIRKPN4mfem4MeshES5_E29streamReconstructedExpressionERSo
FNDA:0,_ZNK5Catch10BinaryExprIRKPdRKDnE29streamReconstructedExpressionERSo
FNDA:0,_ZNK5Catch10BinaryExprIRKPdS3_E29streamReconstructedExpressionERSo
FNDA:0,_ZNK5Catch10BinaryExprIRKdRKNS_6Detail6ApproxEE29streamReconstructedExpressionERSo
FNDA:0,_ZNK5Catch10BinaryExprIRKdRKiE29streamReconstructedExpressionERSo
FNDA:0,_ZNK5Catch10BinaryExprIRKdS2_E29streamReconstructedExpressionERSo
FNDA:0,_ZNK5Catch10BinaryExprIRKiRKdE29streamReconstructedExpressionERSo
FNDA:0,_ZNK5Catch10BinaryExprIRKiS2_E29streamReconstructedExpressionERSo
FNDA:0,_ZNK5Catch10BinaryExprIbbE29streamReconstructedExpressionERSo
FNDA:0,_ZNK5Catch10Generators10GeneratorsI8VecSpaceE3getEv
FNDA:0,_ZNK5Catch10Generators10GeneratorsIN4mfem13AssemblyLevelEE3getEv
FNDA:0,_ZNK5Catch10Generators10GeneratorsIN4mfem13FiniteElement7MapTypeEE3getEv
FNDA:0,_ZNK5Catch10Generators10GeneratorsIN4mfem13QVectorLayoutEE3getEv
FNDA:0,_ZNK5Catch10Generators10GeneratorsIN4mfem7Element4TypeEE3getEv
FNDA:0,_ZNK5Catch10Generators10GeneratorsIRA21_KcE3getEv
FNDA:0,_ZNK5Catch10Generators10GeneratorsIbE3getEv
FNDA:0,_ZNK5Catch10Generators14RangeGeneratorIiE3getEv
FNDA:0,_ZNK5Catch10Generators16GeneratorTracker18isGeneratorTrackerEv
FNDA:0,_ZNK5Catch10Generators20SingleValueGeneratorI8VecSpaceE3getEv
FNDA:0,_ZNK5Catch10Generators20SingleValueGeneratorIN4mfem13AssemblyLevelEE3getEv
FNDA:0,_ZNK5Catch10Generators20SingleValueGeneratorIN4mfem13FiniteElement7MapTypeEE3getEv
FNDA:0,_ZNK5Catch10Generators20SingleValueGeneratorIN4mfem13QVectorLayoutEE3getEv
FNDA:0,_ZNK5Catch10Generators20SingleValueGeneratorIN4mfem7Element4TypeEE3getEv
FNDA:0,_ZNK5Catch10Generators20SingleValueGeneratorIRA21_KcE3getEv
FNDA:0,_ZNK5Catch10Generators20SingleValueGeneratorIbE3getEv
FNDA:0,_ZNK5Catch10RunContext13getLastResultEv
FNDA:0,_ZNK5Catch10RunContext18getCurrentTestNameB5cxx11Ev
FNDA:0,_ZNK5Catch10RunContext6configEv
FNDA:0,_ZNK5Catch10RunContext8abortingEv
FNDA:0,_ZNK5Catch10RunContext8reporterEv
FNDA:0,_ZNK5Catch11MessageInfoeqERKS0_
FNDA:0,_ZNK5Catch11MessageInfoltERKS0_
FNDA:0,_ZNK5Catch11XmlReporter16getStylesheetRefB5cxx11Ev
FNDA:0,_ZNK5Catch12TestCaseInfo12tagsAsStringB5cxx11Ev
FNDA:0,_ZNK5Catch12TestCaseInfo14expectedToFailEv
FNDA:0,_ZNK5Catch12TestCaseInfo6throwsEv
FNDA:0,_ZNK5Catch12TestCaseInfo8isHiddenEv
FNDA:0,_ZNK5Catch12TestCaseInfo8okToFailEv
FNDA:0,_ZNK5Catch12TestRegistry11getAllTestsEv
FNDA:0,_ZNK5Catch12_GLOBAL__N_111RegistryHub30getExceptionTranslatorRegistryEv
FNDA:0,_ZNK5Catch12_GLOBAL__N_116AssertionPrinter10printIssueERKNSt7__cxx1112basic_stringIcSt11char_traitsIcESaIcEEE
FNDA:0,_ZNK5Catch12_GLOBAL__N_116AssertionPrinter15printResultTypeENS_6Colour4CodeERKNSt7__cxx1112basic_stringIcSt11char_traitsIcESaIcEEE
FNDA:0,_ZNK5Catch12_GLOBAL__N_116AssertionPrinter15printSourceInfoEv
FNDA:0,_ZNK5Catch12_GLOBAL__N_116AssertionPrinter23printOriginalExpressionEv
FNDA:0,_ZNK5Catch12_GLOBAL__N_116AssertionPrinter28printReconstructedExpressionEv
FNDA:0,_ZNK5Catch12_GLOBAL__N_123ConsoleAssertionPrinter12printMessageEv
FNDA:0,_ZNK5Catch12_GLOBAL__N_123ConsoleAssertionPrinter15printResultTypeEv
FNDA:0,_ZNK5Catch12_GLOBAL__N_123ConsoleAssertionPrinter15printSourceInfoEv
FNDA:0,_ZNK5Catch12_GLOBAL__N_123ConsoleAssertionPrinter23printOriginalExpressionEv
FNDA:0,_ZNK5Catch12_GLOBAL__N_123ConsoleAssertionPrinter28printReconstructedExpressionEv
FNDA:0,_ZNK5Catch12_GLOBAL__N_123ConsoleAssertionPrinter5printEv
FNDA:0,_ZNK5Catch13StreamEndStoppsB5cxx11Ev
FNDA:0,_ZNK5Catch14LazyExpressioncvbEv
FNDA:0,_ZNK5Catch14ReporterConfig10fullConfigEv
FNDA:0,_ZNK5Catch14ReporterConfig6streamEv
FNDA:0,_ZNK5Catch14SourceLineInfoeqERKS0_
FNDA:0,_ZNK5Catch14SourceLineInfoltERKS0_
FNDA:0,_ZNK5Catch15AssertionResult10getMessageB5cxx11Ev
FNDA:0,_ZNK5Catch15AssertionResult10hasMessageEv
FNDA:0,_ZNK5Catch15AssertionResult13getExpressionB5cxx11Ev
FNDA:0,_ZNK5Catch15AssertionResult13getResultTypeEv
FNDA:0,_ZNK5Catch15AssertionResult13getSourceInfoEv
FNDA:0,_ZNK5Catch15AssertionResult13hasExpressionEv
FNDA:0,_ZNK5Catch15AssertionResult16getTestMacroNameEv
FNDA:0,_ZNK5Catch15AssertionResult20getExpressionInMacroB5cxx11Ev
FNDA:0,_ZNK5Catch15AssertionResult21getExpandedExpressionB5cxx11Ev
FNDA:0,_ZNK5Catch15AssertionResult21hasExpandedExpressionEv
FNDA:0,_ZNK5Catch15AssertionResult4isOkEv
FNDA:0,_ZNK5Catch15AssertionResult9succeededEv
FNDA:0,_ZNK5Catch16AssertionHandler11allowThrowsEv
FNDA:0,_ZNK5Catch16RedirectedStdErr3strB5cxx11Ev
FNDA:0,_ZNK5Catch16RedirectedStdOut3strB5cxx11Ev
FNDA:0,_ZNK5Catch16ReporterRegistry12getFactoriesB5cxx11Ev
FNDA:0,_ZNK5Catch16TagAliasRegistry4findERKNSt7__cxx1112basic_stringIcSt11char_traitsIcESaIcEEE
FNDA:0,_ZNK5Catch16TestCaseTracking11TrackerBase10hasStartedEv
FNDA:0,_ZNK5Catch16TestCaseTracking11TrackerBase11hasChildrenEv
FNDA:0,_ZNK5Catch16TestCaseTracking11TrackerBase18isGeneratorTrackerEv
FNDA:0,_ZNK5Catch16TestCaseTracking11TrackerBase23isSuccessfullyCompletedEv
FNDA:0,_ZNK5Catch16TestCaseTracking14TrackerContext14completedCycleEv
FNDA:0,_ZNK5Catch17ListeningReporter14getPreferencesEv
FNDA:0,_ZNK5Catch17ListeningReporter7isMultiEv
FNDA:0,_ZNK5Catch17ReporterRegistrarINS_11XmlReporterEE15ReporterFactory14getDescriptionB5cxx11Ev
FNDA:0,_ZNK5Catch17ReporterRegistrarINS_11XmlReporterEE15ReporterFactory6createERKNS_14ReporterConfigE
FNDA:0,_ZNK5Catch17ReporterRegistrarINS_13JunitReporterEE15ReporterFactory14getDescriptionB5cxx11Ev
FNDA:0,_ZNK5Catch17ReporterRegistrarINS_13JunitReporterEE15ReporterFactory6createERKNS_14ReporterConfigE
FNDA:0,_ZNK5Catch17ReporterRegistrarINS_15CompactReporterEE15ReporterFactory14getDescriptionB5cxx11Ev
FNDA:0,_ZNK5Catch17ReporterRegistrarINS_15CompactReporterEE15ReporterFactory6createERKNS_14ReporterConfigE
FNDA:0,_ZNK5Catch17ReporterRegistrarINS_15ConsoleReporterEE15ReporterFactory14getDescriptionB5cxx11Ev
FNDA:0,_ZNK5Catch18GeneratorException4whatEv
FNDA:0,_ZNK5Catch18IStreamingReporter7isMultiEv
FNDA:0,_ZNK5Catch19AssertionResultData21reconstructExpressionB5cxx11Ev
FNDA:0,_ZNK5Catch20ReusableStringStream3strB5cxx11Ev
FNDA:0,_ZNK5Catch21StreamingReporterBaseINS_11XmlReporterEE14getPreferencesEv
FNDA:0,_ZNK5Catch21StreamingReporterBaseINS_15CompactReporterEE14getPreferencesEv
FNDA:0,_ZNK5Catch21StreamingReporterBaseINS_21TestEventListenerBaseEE14getPreferencesEv
FNDA:0,_ZNK5Catch22CumulativeReporterBaseINS_13JunitReporterEE13BySectionInfoclERKSt10shared_ptrINS2_11SectionNodeEE
FNDA:0,_ZNK5Catch22CumulativeReporterBaseINS_13JunitReporterEE14getPreferencesEv
FNDA:0,_ZNK5Catch24StartupExceptionRegistry13getExceptionsEv
FNDA:0,_ZNK5Catch27ExceptionTranslatorRegistry14tryTranslatorsB5cxx11Ev
FNDA:0,_ZNK5Catch27ExceptionTranslatorRegistry24translateActiveExceptionB5cxx11Ev
FNDA:0,_ZNK5Catch5Timer17getElapsedSecondsEv
FNDA:0,_ZNK5Catch5Timer21getElapsedNanosecondsEv
FNDA:0,_ZNK5Catch5Timer22getElapsedMicrosecondsEv
FNDA:0,_ZNK5Catch5Timer22getElapsedMillisecondsEv
FNDA:0,_ZNK5Catch5clara6detail10ParserBase11cardinalityEv
FNDA:0,_ZNK5Catch5clara6detail11BasicResultINS1_15ParseResultTypeEE9enforceOkEv
FNDA:0,_ZNK5Catch5clara6detail11BasicResultIvE9enforceOkEv
FNDA:0,_ZNK5Catch5clara6detail16BoundFlagRefBase6isFlagEv
FNDA:0,_ZNK5Catch5clara6detail3Opt14getHelpColumnsEv
FNDA:0,_ZNK5Catch5clara6detail3Opt7isMatchERKNSt7__cxx1112basic_stringIcSt11char_traitsIcESaIcEEE
FNDA:0,_ZNK5Catch5clara6detail6Parser13writeToStreamERSo
FNDA:0,_ZNK5Catch5clara6detail6Parser14getHelpColumnsEv
FNDA:0,_ZNK5Catch5clara6detail6Parser8validateEv
FNDA:0,_ZNK5Catch5clara6detail7ExeName5parseERKNSt7__cxx1112basic_stringIcSt11char_traitsIcESaIcEEERKNS1_11TokenStreamE
FNDA:0,_ZNK5Catch5clara8TextFlow6Column8iterator10isBoundaryEm
FNDA:0,_ZNK5Catch5clara8TextFlow6Column8iterator18addIndentAndSuffixERKNSt7__cxx1112basic_stringIcSt11char_traitsIcESaIcEEE
FNDA:0,_ZNK5Catch5clara8TextFlow6Column8iteratordeB5cxx11Ev
FNDA:0,_ZNK5Catch5clara8TextFlow7Columns8iteratordeB5cxx11Ev
FNDA:0,_ZNK5Catch6Config11allowThrowsEv
FNDA:0,_ZNK5Catch6Config11getFilenameB5cxx11Ev
FNDA:0,_ZNK5Catch6Config13listReportersEv
FNDA:0,_ZNK5Catch6Config14getProcessNameB5cxx11Ev
FNDA:0,_ZNK5Catch6Config14hasTestFiltersEv
FNDA:0,_ZNK5Catch6Config14showInvisiblesEv
FNDA:0,_ZNK5Catch6Config15getReporterNameB5cxx11Ev
FNDA:0,_ZNK5Catch6Config16benchmarkSamplesEv
FNDA:0,_ZNK5Catch6Config16shouldDebugBreakEv
FNDA:0,_ZNK5Catch6Config16warnAboutNoTestsEv
FNDA:0,_ZNK5Catch6Config17listTestNamesOnlyEv
FNDA:0,_ZNK5Catch6Config18benchmarkResamplesEv
FNDA:0,_ZNK5Catch6Config19benchmarkWarmupTimeEv
FNDA:0,_ZNK5Catch6Config27benchmarkConfidenceIntervalEv
FNDA:0,_ZNK5Catch6Config8listTagsEv
FNDA:0,_ZNK5Catch6Config8showHelpEv
FNDA:0,_ZNK5Catch6Config9listTestsEv
FNDA:0,_ZNK5Catch6Counts5allOkEv
FNDA:0,_ZNK5Catch6Counts5totalEv
FNDA:0,_ZNK5Catch6Counts9allPassedEv
FNDA:0,_ZNK5Catch6CountsmiERKS0_
FNDA:0,_ZNK5Catch6Detail12_GLOBAL__N_110FileStream6streamEv
FNDA:0,_ZNK5Catch6Detail12_GLOBAL__N_114DebugOutStream6streamEv
FNDA:0,_ZNK5Catch6Detail6Approx22equalityComparisonImplEd
FNDA:0,_ZNK5Catch6Detail6Approx8toStringB5cxx11Ev
FNDA:0,_ZNK5Catch6Detail6ApproxngEv
FNDA:0,_ZNK5Catch6Detail8EnumInfo6lookupEi
FNDA:0,_ZNK5Catch6Totals5deltaERKS0_
FNDA:0,_ZNK5Catch6TotalsmiERKS0_
FNDA:0,_ZNK5Catch7Session3cliEv
FNDA:0,_ZNK5Catch7Session8showHelpEv
FNDA:0,_ZNK5Catch7TagInfo3allB5cxx11Ev
FNDA:0,_ZNK5Catch8Matchers4Impl18MatcherUntypedBase8toStringB5cxx11Ev
FNDA:0,_ZNK5Catch8Matchers8Floating16WithinAbsMatcher5matchERKd
FNDA:0,_ZNK5Catch8Matchers8Floating16WithinAbsMatcher8describeB5cxx11Ev
FNDA:0,_ZNK5Catch8Matchers8Floating16WithinRelMatcher5matchERKd
FNDA:0,_ZNK5Catch8Matchers8Floating16WithinRelMatcher8describeB5cxx11Ev
FNDA:0,_ZNK5Catch8Matchers8Floating17WithinUlpsMatcher5matchERKd
FNDA:0,_ZNK5Catch8Matchers8Floating17WithinUlpsMatcher8describeB5cxx11Ev
FNDA:0,_ZNK5Catch8Matchers9Exception23ExceptionMessageMatcher5matchERKSt9exception
FNDA:0,_ZNK5Catch8Matchers9Exception23ExceptionMessageMatcher8describeB5cxx11Ev
FNDA:0,_ZNK5Catch8Matchers9StdString11CasedString12adjustStringERKNSt7__cxx1112basic_stringIcSt11char_traitsIcESaIcEEE
FNDA:0,_ZNK5Catch8Matchers9StdString11CasedString21caseSensitivitySuffixB5cxx11Ev
FNDA:0,_ZNK5Catch8Matchers9StdString12RegexMatcher5matchERKNSt7__cxx1112basic_stringIcSt11char_traitsIcESaIcEEE
FNDA:0,_ZNK5Catch8Matchers9StdString12RegexMatcher8describeB5cxx11Ev
FNDA:0,_ZNK5Catch8Matchers9StdString13EqualsMatcher5matchERKNSt7__cxx1112basic_stringIcSt11char_traitsIcESaIcEEE
FNDA:0,_ZNK5Catch8Matchers9StdString15ContainsMatcher5matchERKNSt7__cxx1112basic_stringIcSt11char_traitsIcESaIcEEE
FNDA:0,_ZNK5Catch8Matchers9StdString15EndsWithMatcher5matchERKNSt7__cxx1112basic_stringIcSt11char_traitsIcESaIcEEE
FNDA:0,_ZNK5Catch8Matchers9StdString17StartsWithMatcher5matchERKNSt7__cxx1112basic_stringIcSt11char_traitsIcESaIcEEE
FNDA:0,_ZNK5Catch8Matchers9StdString17StringMatcherBase8describeB5cxx11Ev
FNDA:0,_ZNK5Catch8TestCase15getTestCaseInfoEv
FNDA:0,_ZNK5Catch8TestCase6invokeEv
FNDA:0,_ZNK5Catch8TestCase8withNameERKNSt7__cxx1112basic_stringIcSt11char_traitsIcESaIcEEE
FNDA:0,_ZNK5Catch8TestCaseeqERKS0_
FNDA:0,_ZNK5Catch8TestCaseltERKS0_
FNDA:0,_ZNK5Catch8TestSpec10hasFiltersEv
FNDA:0,_ZNK5Catch8TestSpec14getInvalidArgsB5cxx11Ev
FNDA:0,_ZNK5Catch8TestSpec6Filter7matchesERKNS_12TestCaseInfoE
FNDA:0,_ZNK5Catch8TestSpec7Pattern4nameB5cxx11Ev
FNDA:0,_ZNK5Catch8TestSpec7matchesERKNS_12TestCaseInfoE
FNDA:0,_ZNK5Catch9MatchExprINSt7__cxx1112basic_stringIcSt11char_traitsIcESaIcEEERKNS_8Matchers4Impl11MatcherBaseIS6_EEE29streamReconstructedExpressionERSo
FNDA:0,_ZNK5Catch9StringRef4dataEv
FNDA:0,_ZNK5Catch9StringRef5c_strEv
FNDA:0,_ZNK5Catch9StringRef6substrEmm
FNDA:0,_ZNK5Catch9StringRefeqERKS0_
FNDA:0,_ZNK5Catch9UnaryExprIRKPKN8tinyxml210XMLElementEE29streamReconstructedExpressionERSo
FNDA:0,_ZNK5Catch9UnaryExprIRKPKcE29streamReconstructedExpressionERSo
FNDA:0,_ZNK5Catch9UnaryExprIRKPN4mfem12GridFunctionEE29streamReconstructedExpressionERSo
FNDA:0,_ZNK5Catch9UnaryExprIRKPN4mfem18QuadratureFunctionEE29streamReconstructedExpressionERSo
FNDA:0,_ZNK5Catch9UnaryExprIRKPN4mfem4MeshEE29streamReconstructedExpressionERSo
FNDA:0,_ZNK5Catch9UnaryExprIbE29streamReconstructedExpressionERSo
FNDA:0,_ZNK5Catch9XmlEncode8encodeToERSo
FNDA:0,_ZZN5Catch16TestCaseTracking11TrackerBase9findChildERKNS0_15NameAndLocationEENKUlRKSt10shared_ptrINS0_8ITrackerEEE_clES9_
FNDA:0,_ZZN5Catch21makeCommandLineParserERNS_10ConfigDataEENKUlRKNSt7__cxx1112basic_stringIcSt11char_traitsIcESaIcEEEE0_clES9_
FNDA:0,_ZZN5Catch21makeCommandLineParserERNS_10ConfigDataEENKUlRKNSt7__cxx1112basic_stringIcSt11char_traitsIcESaIcEEEE1_clES9_
FNDA:0,_ZZN5Catch21makeCommandLineParserERNS_10ConfigDataEENKUlRKNSt7__cxx1112basic_stringIcSt11char_traitsIcESaIcEEEE2_clES9_
FNDA:0,_ZZN5Catch21makeCommandLineParserERNS_10ConfigDataEENKUlRKNSt7__cxx1112basic_stringIcSt11char_traitsIcESaIcEEEE3_clES9_
FNDA:0,_ZZN5Catch21makeCommandLineParserERNS_10ConfigDataEENKUlRKNSt7__cxx1112basic_stringIcSt11char_traitsIcESaIcEEEE4_clES9_
FNDA:0,_ZZN5Catch21makeCommandLineParserERNS_10ConfigDataEENKUlRKNSt7__cxx1112basic_stringIcSt11char_traitsIcESaIcEEEE5_clES9_
FNDA:0,_ZZN5Catch21makeCommandLineParserERNS_10ConfigDataEENKUlRKNSt7__cxx1112basic_stringIcSt11char_traitsIcESaIcEEEE6_clES9_
FNDA:0,_ZZN5Catch21makeCommandLineParserERNS_10ConfigDataEENKUlRKNSt7__cxx1112basic_stringIcSt11char_traitsIcESaIcEEEE_clES9_
FNDA:0,_ZZN5Catch8CapturerC4ENS_9StringRefERKNS_14SourceLineInfoENS_9ResultWas6OfTypeES1_ENKUlmcE0_clEmc
FNDA:0,_ZZN5Catch8CapturerC4ENS_9StringRefERKNS_14SourceLineInfoENS_9ResultWas6OfTypeES1_ENKUlmmE_clEmm
FNDA:0,_ZZNK5Catch8TestSpec7matchesERKNS_12TestCaseInfoEENKUlRKNS0_6FilterEE_clES6_
FNDA:0,_ZZZN5Catch21makeCommandLineParserERNS_10ConfigDataEENKUlRKNSt7__cxx1112basic_stringIcSt11char_traitsIcESaIcEEEE_clES9_ENKUlvE_clEv
FNDA:1,_ZN5Catch10Generators10GeneratorsIiE8populateIiJiiEEEvOT_DpOT0_
FNDA:1,_ZN5Catch10Generators10GeneratorsIiEC2IJNS0_16GeneratorWrapperIiEEEEEDpOT_
FNDA:1,_ZN5Catch10Generators10GeneratorsIiEC2IJNS0_16GeneratorWrapperIiEEiEEEDpOT_
FNDA:1,_ZN5Catch10Generators10GeneratorsIiEC2IJNS0_16GeneratorWrapperIiEEiiiEEEDpOT_
FNDA:1,_ZN5Catch10Generators14makeGeneratorsIiJEEENS0_10GeneratorsIT_EEOS3_DpOT0_
FNDA:1,_ZN5Catch10Generators14makeGeneratorsIiJiEEENS0_10GeneratorsIT_EEOS3_DpOT0_
FNDA:1,_ZN5Catch10Generators14makeGeneratorsIiJiiiEEENS0_10GeneratorsIT_EEOS3_DpOT0_
FNDA:1,_ZN5Catch10Generators8generateIZN10pa_kernelsL30____C_A_T_C_H____T_E_S_T____21EvEUlvE0_EEDTcldtcl7declvalIDTclfp1_EEEE3getEENS_9StringRefERKNS_14SourceLineInfoERKT_
FNDA:1,_ZN5Catch10Generators8generateIZN10pa_kernelsL30____C_A_T_C_H____T_E_S_T____21EvEUlvE1_EEDTcldtcl7declvalIDTclfp1_EEEE3getEENS_9StringRefERKNS_14SourceLineInfoERKT_
FNDA:1,_ZN5Catch10Generators8generateIZN10pa_kernelsL30____C_A_T_C_H____T_E_S_T____21EvEUlvE_EEDTcldtcl7declvalIDTclfp1_EEEE3getEENS_9StringRefERKNS_14SourceLineInfoERKT_
FNDA:1,_ZN5Catch10RunContext12sectionEndedERKNS_14SectionEndInfoE
FNDA:1,_ZN5Catch10RunContext14runCurrentTestERNSt7__cxx1112basic_stringIcSt11char_traitsIcESaIcEEES7_
FNDA:1,_ZN5Catch10RunContext14sectionStartedERKNS_11SectionInfoERNS_6CountsE
FNDA:1,_ZN5Catch10RunContext17testGroupStartingERKNSt7__cxx1112basic_stringIcSt11char_traitsIcESaIcEEEmm
FNDA:1,_ZN5Catch10RunContext20invokeActiveTestCaseEv
FNDA:1,_ZN5Catch10RunContext24testForMissingAssertionsERNS_6CountsE
FNDA:1,_ZN5Catch10RunContext7runTestERKNS_8TestCaseE
FNDA:1,_ZN5Catch10RunContextC2ERKSt10shared_ptrIKNS_7IConfigEEOSt10unique_ptrINS_18IStreamingReporterESt14default_deleteIS8_EE
FNDA:1,_ZN5Catch10makeStreamERKNS_9StringRefE
FNDA:1,_ZN5Catch11SectionInfoC2ERKNS_14SourceLineInfoERKNSt7__cxx1112basic_stringIcSt11char_traitsIcESaIcEEE
FNDA:1,_ZN5Catch12TablePrinterC2ERSoSt6vectorINS_12_GLOBAL__N_110ColumnInfoESaIS4_EE
FNDA:1,_ZN5Catch12_GLOBAL__N_111RegistryHubC2Ev
FNDA:1,_ZN5Catch12_GLOBAL__N_112makeReporterERKSt10shared_ptrINS_6ConfigEE
FNDA:1,_ZN5Catch12_GLOBAL__N_114createReporterERKNSt7__cxx1112basic_stringIcSt11char_traitsIcESaIcEEERKSt10shared_ptrIKNS_7IConfigEE
FNDA:1,_ZN5Catch12_GLOBAL__N_115PosixColourImpl8instanceEv
FNDA:1,_ZN5Catch12_GLOBAL__N_122platformColourInstanceEv
FNDA:1,_ZN5Catch12_GLOBAL__N_19TestGroup7executeEv
FNDA:1,_ZN5Catch12_GLOBAL__N_19TestGroupC2ERKSt10shared_ptrINS_6ConfigEE
FNDA:1,_ZN5Catch13StringStreams3addEv
FNDA:1,_ZN5Catch13StringStreams7releaseEm
FNDA:1,_ZN5Catch14ReporterConfigC2ERKSt10shared_ptrIKNS_7IConfigEE
FNDA:1,_ZN5Catch14TestSpecParser14addNamePatternEv
FNDA:1,_ZN5Catch14TestSpecParser9addFilterEv
FNDA:1,_ZN5Catch15ConsoleReporter12sectionEndedERKNS_12SectionStatsE
FNDA:1,_ZN5Catch15ConsoleReporter15testRunStartingERKNS_11TestRunInfoE
FNDA:1,_ZN5Catch15ConsoleReporter16printTestFiltersEv
FNDA:1,_ZN5Catch15ConsoleReporterC2ERKNS_14ReporterConfigE
FNDA:1,_ZN5Catch15IMutableContext13createContextEv
FNDA:1,_ZN5Catch15WildcardPatternC2ERKNSt7__cxx1112basic_stringIcSt11char_traitsIcESaIcEEENS_13CaseSensitive6ChoiceE
FNDA:1,_ZN5Catch16TestCaseTracking11TrackerBase5closeEv
FNDA:1,_ZN5Catch16TestCaseTracking14SectionTracker17addInitialFiltersERKSt6vectorINSt7__cxx1112basic_stringIcSt11char_traitsIcESaIcEEESaIS8_EE
FNDA:1,_ZN5Catch16TestCaseTracking14TrackerContext8startRunEv
FNDA:1,_ZN5Catch16serializeFiltersERKSt6vectorINSt7__cxx1112basic_stringIcSt11char_traitsIcESaIcEEESaIS6_EE
FNDA:1,_ZN5Catch17ReporterRegistrarINS_11XmlReporterEEC2ERKNSt7__cxx1112basic_stringIcSt11char_traitsIcESaIcEEE
FNDA:1,_ZN5Catch17ReporterRegistrarINS_13JunitReporterEEC2ERKNSt7__cxx1112basic_stringIcSt11char_traitsIcESaIcEEE
FNDA:1,_ZN5Catch17ReporterRegistrarINS_15CompactReporterEEC2ERKNSt7__cxx1112basic_stringIcSt11char_traitsIcESaIcEEE
FNDA:1,_ZN5Catch17ReporterRegistrarINS_15ConsoleReporterEEC2ERKNSt7__cxx1112basic_stringIcSt11char_traitsIcESaIcEEE
FNDA:1,_ZN5Catch18shouldShowDurationERKNS_7IConfigEd
FNDA:1,_ZN5Catch20ReusableStringStreamC2Ev
FNDA:1,_ZN5Catch20ReusableStringStreamD2Ev
FNDA:1,_ZN5Catch21FatalConditionHandlerC2Ev
FNDA:1,_ZN5Catch21StreamingReporterBaseINS_15ConsoleReporterEE16testCaseStartingERKNS_12TestCaseInfoE
FNDA:1,_ZN5Catch21StreamingReporterBaseINS_15ConsoleReporterEE17testGroupStartingERKNS_9GroupInfoE
FNDA:1,_ZN5Catch21StreamingReporterBaseINS_15ConsoleReporterEEC2ERKNS_14ReporterConfigE
FNDA:1,_ZN5Catch21getAllTestCasesSortedERKNS_7IConfigE
FNDA:1,_ZN5Catch21makeCommandLineParserERNS_10ConfigDataE
FNDA:1,_ZN5Catch27enforceNoDuplicateTestCasesERKSt6vectorINS_8TestCaseESaIS1_EE
FNDA:1,_ZN5Catch4listERKSt10shared_ptrINS_6ConfigEE
FNDA:1,_ZN5Catch5clara6detail11TokenStreamC2EN9__gnu_cxx17__normal_iteratorIPKNSt7__cxx1112basic_stringIcSt11char_traitsIcESaIcEEESt6vectorISA_SaISA_EEEESG_
FNDA:1,_ZN5Catch5clara6detail11TokenStreamppEv
FNDA:1,_ZN5Catch5clara6detail13BoundValueRefINSt7__cxx1112basic_stringIcSt11char_traitsIcESaIcEEEE8setValueERKS8_
FNDA:1,_ZN5Catch5clara6detail13BoundValueRefISt6vectorINSt7__cxx1112basic_stringIcSt11char_traitsIcESaIcEEESaIS9_EEE8setValueERKS9_
FNDA:1,_ZN5Catch5clara6detail13ParserRefImplINS1_3ArgEEC2ISt6vectorINSt7__cxx1112basic_stringIcSt11char_traitsIcESaIcEEESaISC_EEEERT_RKSC_
FNDA:1,_ZN5Catch5clara6detail13ParserRefImplINS1_3OptEEC2ISt6vectorINSt7__cxx1112basic_stringIcSt11char_traitsIcESaIcEEESaISC_EEEERT_RKSC_
FNDA:1,_ZN5Catch5clara6detail13ParserRefImplINS1_3OptEEC2IZNS_21makeCommandLineParserERNS_10ConfigDataEEUlRKNSt7__cxx1112basic_stringIcSt11char_traitsIcESaIcEEEE0_EERKT_SF_
FNDA:1,_ZN5Catch5clara6detail13ParserRefImplINS1_3OptEEC2IZNS_21makeCommandLineParserERNS_10ConfigDataEEUlRKNSt7__cxx1112basic_stringIcSt11char_traitsIcESaIcEEEE1_EERKT_SF_
FNDA:1,_ZN5Catch5clara6detail13ParserRefImplINS1_3OptEEC2IZNS_21makeCommandLineParserERNS_10ConfigDataEEUlRKNSt7__cxx1112basic_stringIcSt11char_traitsIcESaIcEEEE2_EERKT_SF_
FNDA:1,_ZN5Catch5clara6detail13ParserRefImplINS1_3OptEEC2IZNS_21makeCommandLineParserERNS_10ConfigDataEEUlRKNSt7__cxx1112basic_stringIcSt11char_traitsIcESaIcEEEE3_EERKT_SF_
FNDA:1,_ZN5Catch5clara6detail13ParserRefImplINS1_3OptEEC2IZNS_21makeCommandLineParserERNS_10ConfigDataEEUlRKNSt7__cxx1112basic_stringIcSt11char_traitsIcESaIcEEEE4_EERKT_SF_
FNDA:1,_ZN5Catch5clara6detail13ParserRefImplINS1_3OptEEC2IZNS_21makeCommandLineParserERNS_10ConfigDataEEUlRKNSt7__cxx1112basic_stringIcSt11char_traitsIcESaIcEEEE5_EERKT_SF_
FNDA:1,_ZN5Catch5clara6detail13ParserRefImplINS1_3OptEEC2IZNS_21makeCommandLineParserERNS_10ConfigDataEEUlRKNSt7__cxx1112basic_stringIcSt11char_traitsIcESaIcEEEE6_EERKT_SF_
FNDA:1,_ZN5Catch5clara6detail13ParserRefImplINS1_3OptEEC2IZNS_21makeCommandLineParserERNS_10ConfigDataEEUlRKNSt7__cxx1112basic_stringIcSt11char_traitsIcESaIcEEEE_EERKT_SF_
FNDA:1,_ZN5Catch5clara6detail13ParserRefImplINS1_3OptEEC2IZNS_21makeCommandLineParserERNS_10ConfigDataEEUlbE9_EERKT_RKNSt7__cxx1112basic_stringIcSt11char_traitsIcESaIcEEE
FNDA:1,_ZN5Catch5clara6detail13ParserRefImplINS1_3OptEEC2IZNS_21makeCommandLineParserERNS_10ConfigDataEEUliE8_EERKT_RKNSt7__cxx1112basic_stringIcSt11char_traitsIcESaIcEEE
FNDA:1,_ZN5Catch5clara6detail13ParserRefImplINS1_3OptEEC2IlEERT_RKNSt7__cxx1112basic_stringIcSt11char_traitsIcESaIcEEE
FNDA:1,_ZN5Catch5clara6detail3OptC2IZNS1_4HelpC4ERbEUlbE_EERKT_
FNDA:1,_ZN5Catch5clara6detail3OptC2IZNS_21makeCommandLineParserERNS_10ConfigDataEEUlbE7_EERKT_
FNDA:1,_ZN5Catch5clara6detail4ArgsC2EiPKPKc
FNDA:1,_ZN5Catch5clara6detail4HelpC2ERb
FNDA:1,_ZN5Catch5clara6detail7ExeName3setERKNSt7__cxx1112basic_stringIcSt11char_traitsIcESaIcEEE
FNDA:1,_ZN5Catch5clara6detail7ExeNameC2ERNSt7__cxx1112basic_stringIcSt11char_traitsIcESaIcEEE
FNDA:1,_ZN5Catch6ConfigC2ERKNS_10ConfigDataE
FNDA:1,_ZN5Catch6OptionINS_11TestRunInfoEEaSERKS1_
FNDA:1,_ZN5Catch6OptionINS_12TestCaseInfoEEaSERKS1_
FNDA:1,_ZN5Catch6OptionINS_9GroupInfoEEaSERKS1_
FNDA:1,_ZN5Catch7Context16setResultCaptureEPNS_14IResultCaptureE
FNDA:1,_ZN5Catch7Context9setRunnerEPNS_7IRunnerE
FNDA:1,_ZN5Catch7SectionC2ERKNS_11SectionInfoE
FNDA:1,_ZN5Catch7SectionD2Ev
FNDA:1,_ZN5Catch7Session11runInternalEv
FNDA:1,_ZN5Catch7Session13useConfigDataERKNS_10ConfigDataE
FNDA:1,_ZN5Catch7Session16applyCommandLineEiPKPKc
FNDA:1,_ZN5Catch7Session3runEv
FNDA:1,_ZN5Catch7Session6configEv
FNDA:1,_ZN5Catch7SessionC2Ev
FNDA:1,_ZN5Catch8TestSpec11NamePatternC2ERKNSt7__cxx1112basic_stringIcSt11char_traitsIcESaIcEEES9_
FNDA:1,_ZN5Catch9sortTestsERKNS_7IConfigERKSt6vectorINS_8TestCaseESaIS4_EE
FNDA:1,_ZNK5Catch12TestRegistry17getAllTestsSortedERKNS_7IConfigE
FNDA:1,_ZNK5Catch12_GLOBAL__N_111RegistryHub19getTagAliasRegistryEv
FNDA:1,_ZNK5Catch12_GLOBAL__N_111RegistryHub19getTestCaseRegistryEv
FNDA:1,_ZNK5Catch12_GLOBAL__N_111RegistryHub27getStartupExceptionRegistryEv
FNDA:1,_ZNK5Catch16ReporterRegistry12getListenersEv
FNDA:1,_ZNK5Catch16ReporterRegistry6createERKNSt7__cxx1112basic_stringIcSt11char_traitsIcESaIcEEERKSt10shared_ptrIKNS_7IConfigEE
FNDA:1,_ZNK5Catch16TestCaseTracking11TrackerBase6isOpenEv
FNDA:1,_ZNK5Catch17ReporterRegistrarINS_15ConsoleReporterEE15ReporterFactory6createERKNS_14ReporterConfigE
FNDA:1,_ZNK5Catch21TestInvokerAsFunction6invokeEv
FNDA:1,_ZNK5Catch5clara6detail10ParserBase5parseERKNS1_4ArgsE
FNDA:1,_ZNK5Catch5clara6detail10ParserBase8validateEv
FNDA:1,_ZNK5Catch5clara6detail11TokenStreamdeEv
FNDA:1,_ZNK5Catch5clara6detail13ParserRefImplINS1_3ArgEE11cardinalityEv
FNDA:1,_ZNK5Catch5clara6detail20ComposableParserImplINS1_7ExeNameEEorINS1_4HelpEEENS1_6ParserERKT_
FNDA:1,_ZNK5Catch5clara6detail3Arg5parseERKNSt7__cxx1112basic_stringIcSt11char_traitsIcESaIcEEERKNS1_11TokenStreamE
FNDA:1,_ZNK5Catch5clara6detail6Parser5parseERKNSt7__cxx1112basic_stringIcSt11char_traitsIcESaIcEEERKNS1_11TokenStreamE
FNDA:1,_ZNK5Catch5clara6detail6ParserorINS1_3ArgEEES2_RKT_
FNDA:1,_ZNK5Catch5clara6detail6ParserorINS1_4HelpEEES2_RKT_
FNDA:1,_ZNK5Catch5clara6detail6ParserorINS1_7ExeNameEEES2_RKT_
FNDA:1,_ZNK5Catch5clara6detail8BoundRef6isFlagEv
FNDA:1,_ZNK5Catch6Config10abortAfterEv
FNDA:1,_ZNK5Catch6Config11minDurationEv
FNDA:1,_ZNK5Catch6Config14getTestsOrTagsB5cxx11Ev
FNDA:1,_ZNK5Catch6Config16getSectionsToRunB5cxx11Ev
FNDA:1,_ZNK5Catch6Config19benchmarkNoAnalysisEv
FNDA:1,_ZNK5Catch6Config24includeSuccessfulResultsEv
FNDA:1,_ZNK5Catch6Config26warnAboutMissingAssertionsEv
FNDA:1,_ZNK5Catch6Config9useColourEv
FNDA:1,_ZNK5Catch6Config9verbosityEv
FNDA:1,_ZNK5Catch7SectioncvbEv
FNDA:1,_ZNK5Catch8TestSpec15matchesByFilterERKSt6vectorINS_8TestCaseESaIS2_EERKNS_7IConfigE
FNDA:1,_ZNK5Catch8TestSpec6Filter4nameB5cxx11Ev
FNDA:1,_ZZN5Catch15ConsoleReporterC4ERKNS_14ReporterConfigEENKUlvE_clEv
FNDA:1,_ZZNK5Catch8TestSpec15matchesByFilterERKSt6vectorINS_8TestCaseESaIS2_EERKNS_7IConfigEENKUlRKNS0_6FilterEE_clESC_
FNDA:2,_ZN5Catch12_GLOBAL__N_115PosixColourImpl3useENS_6Colour4CodeE
FNDA:2,_ZN5Catch12_GLOBAL__N_115PosixColourImpl9setColourEPKc
FNDA:2,_ZN5Catch12_GLOBAL__N_1L13getSingletonsEv
FNDA:2,_ZN5Catch14TestSpecParser13addTagPatternEv
FNDA:2,_ZN5Catch15ConsoleReporter15sectionStartingERKNS_11SectionInfoE
FNDA:2,_ZN5Catch16TestCaseTracking14SectionTracker14addNextFiltersERKSt6vectorINSt7__cxx1112basic_stringIcSt11char_traitsIcESaIcEEESaIS8_EE
FNDA:2,_ZN5Catch16TestCaseTracking14SectionTracker7acquireERNS0_14TrackerContextERKNS0_15NameAndLocationE
FNDA:2,_ZN5Catch16TestCaseTracking14SectionTracker7tryOpenEv
FNDA:2,_ZN5Catch5clara6detail11TokenStream10loadBufferEv
FNDA:2,_ZN5Catch5clara6detail13ParserRefImplINS1_3OptEEC2IdEERT_RKNSt7__cxx1112basic_stringIcSt11char_traitsIcESaIcEEE
FNDA:2,_ZN5Catch5clara6detail13ParserRefImplINS1_3OptEEC2IjEERT_RKNSt7__cxx1112basic_stringIcSt11char_traitsIcESaIcEEE
FNDA:2,_ZN5Catch6Colour3useENS0_4CodeE
FNDA:2,_ZN5Catch7Context9setConfigERKSt10shared_ptrIKNS_7IConfigEE
FNDA:2,_ZN5Catch7seedRngERKNS_7IConfigE
FNDA:2,_ZN5Catch8TestSpec10TagPatternC2ERKNSt7__cxx1112basic_stringIcSt11char_traitsIcESaIcEEES9_
FNDA:2,_ZN5Catch8TestSpec15ExcludedPatternC2ERKSt10shared_ptrINS0_7PatternEE
FNDA:2,_ZNK5Catch12_GLOBAL__N_111RegistryHub19getReporterRegistryEv
FNDA:2,_ZNK5Catch21StreamingReporterBaseINS_15ConsoleReporterEE14getPreferencesEv
FNDA:2,_ZNK5Catch5clara6detail13BoundValueRefISt6vectorINSt7__cxx1112basic_stringIcSt11char_traitsIcESaIcEEESaIS9_EEE11isContainerEv
FNDA:2,_ZNK5Catch6Config13showDurationsEv
FNDA:2,_ZNK5Catch6Config4nameB5cxx11Ev
FNDA:2,_ZNK5Catch6Config7rngSeedEv
FNDA:2,_ZNK5Catch8TestSpec10TagPattern7matchesERKNS_12TestCaseInfoE
FNDA:2,_ZNK5Catch8TestSpec15ExcludedPattern7matchesERKNS_12TestCaseInfoE
FNDA:3,_ZN5Catch10Generators16GeneratorTracker12setGeneratorEOSt10unique_ptrINS0_20GeneratorUntypedBaseESt14default_deleteIS3_EE
FNDA:3,_ZN5Catch10Generators16GeneratorTracker7acquireERNS_16TestCaseTracking14TrackerContextERKNS2_15NameAndLocationE
FNDA:3,_ZN5Catch10Generators20GeneratorUntypedBaseD2Ev
FNDA:3,_ZN5Catch10Generators23acquireGeneratorTrackerENS_9StringRefERKNS_14SourceLineInfoE
FNDA:3,_ZN5Catch10Generators2pf11make_uniqueINS0_10GeneratorsIiEEJS4_EEESt10unique_ptrIT_St14default_deleteIS6_EEDpOT0_
FNDA:3,_ZN5Catch10RunContext23acquireGeneratorTrackerENS_9StringRefERKNS_14SourceLineInfoE
FNDA:3,_ZN5Catch10startsWithERKNSt7__cxx1112basic_stringIcSt11char_traitsIcESaIcEEES7_
FNDA:3,_ZN5Catch12TablePrinter5closeEv
FNDA:3,_ZN5Catch14TestSpecParser17preprocessPatternB5cxx11Ev
FNDA:3,_ZN5Catch14TestSpecParser5parseERKNSt7__cxx1112basic_stringIcSt11char_traitsIcESaIcEEE
FNDA:3,_ZN5Catch16TestCaseTracking11TrackerBase6parentEv
FNDA:3,_ZN5Catch16TestCaseTracking14SectionTrackerC2ERKNS0_15NameAndLocationERNS0_14TrackerContextEPNS0_8ITrackerE
FNDA:3,_ZN5Catch16TestCaseTrackingeqERKNS0_15NameAndLocationES3_
FNDA:3,_ZN5Catch5clara6detail13ParserRefImplINS1_3OptEEC2INSt7__cxx1112basic_stringIcSt11char_traitsIcESaIcEEEEERT_RKSB_
FNDA:3,_ZN5Catch9SingletonINS_13StringStreamsES1_S1_E11getInternalEv
FNDA:3,_ZNK5Catch10Generators10GeneratorsIiE3getEv
FNDA:3,_ZNK5Catch10Generators16GeneratorTracker12getGeneratorEv
FNDA:3,_ZNK5Catch10Generators16GeneratorTracker12hasGeneratorEv
FNDA:3,_ZNK5Catch10Generators20SingleValueGeneratorIiE3getEv
FNDA:3,_ZNK5Catch16TagAliasRegistry13expandAliasesERKNSt7__cxx1112basic_stringIcSt11char_traitsIcESaIcEEE
FNDA:3,_ZNK5Catch16TestCaseTracking11TrackerBase10isCompleteEv
FNDA:3,_ZNK5Catch16TestCaseTracking11TrackerBase16isSectionTrackerEv
FNDA:3,_ZNK5Catch16TestCaseTracking14SectionTracker10isCompleteEv
FNDA:3,_ZNK5Catch16TestCaseTracking14SectionTracker16isSectionTrackerEv
FNDA:3,_ZNK5Catch6Config6streamEv
FNDA:3,_ZNK5Catch6Config8runOrderEv
FNDA:3,_ZNK5Catch6Detail12_GLOBAL__N_110CoutStream6streamEv
FNDA:3,_ZNK5Catch7Context9getConfigEv
FNDA:4,_ZN5Catch10Generators10GeneratorsIiE8populateEOi
FNDA:4,_ZN5Catch12_GLOBAL__N_111RegistryHub16registerReporterERKNSt7__cxx1112basic_stringIcSt11char_traitsIcESaIcEEERKSt10shared_ptrINS_16IReporterFactoryEE
FNDA:4,_ZNK5Catch6Config8testSpecEv
FNDA:5,_ZN5Catch14TestSpecParser7endModeEv
FNDA:5,_ZN5Catch16TestCaseTracking11TrackerBase8addChildERKSt10shared_ptrINS0_8ITrackerEE
FNDA:5,_ZN5Catch16TestCaseTracking11TrackerBase9findChildERKNS0_15NameAndLocationE
FNDA:5,_ZN5Catch16getResultCaptureEv
FNDA:5,_ZN5Catch7Context16getResultCaptureEv
FNDA:6,_ZN5Catch16TestCaseTracking11TrackerBaseC2ERKNS0_15NameAndLocationERNS0_14TrackerContextEPNS0_8ITrackerE
FNDA:7,_ZN5Catch10Generators5valueIiEENS0_16GeneratorWrapperIT_EEOS3_
FNDA:9,_ZN5Catch16TestCaseTracking11TrackerBase9openChildEv
FNDA:12,_ZN5Catch14TestSpecParser15processNameCharEc
FNDA:12,_ZN5Catch5clara6detail3OptC2ERb
FNDA:14,_ZN5Catch5clara6detail13ParserRefImplINS1_3OptEEC2ERKSt10shared_ptrINS1_8BoundRefEE
FNDA:18,_ZN5Catch14TestSpecParser16processOtherCharEc
FNDA:32,_ZNK5Catch5clara6detail6ParserorINS1_3OptEEES2_RKT_
FNDA:33,_ZNK5Catch5clara6detail3Opt5parseERKNSt7__cxx1112basic_stringIcSt11char_traitsIcESaIcEEERKNS1_11TokenStreamE
FNDA:33,_ZNK5Catch5clara6detail3Opt8validateEv
FNDA:34,_ZN5Catch5clara6detail15ResultValueBaseINS1_10ParseStateEEaSERKS4_
FNDA:35,_ZN5Catch14TestSpecParser9visitCharEc
FNDA:51,_ZNK5Catch14TestSpecParser13isControlCharEc
FNDA:64,_ZNK5Catch5clara6detail8BoundRef11isContainerEv
FNDA:65,_ZNK5Catch5clara6detail13ParserRefImplINS1_3OptEE11cardinalityEv
FNDA:71,_ZNK5Catch5clara6detail11BasicResultINS1_10ParseStateEE9enforceOkEv
FNDA:192,_ZN5Catch11NameAndTagsC2ERKNS_9StringRefES3_
FNDA:192,_ZN5Catch12TestCaseInfoC2ERKNSt7__cxx1112basic_stringIcSt11char_traitsIcESaIcEEES8_S8_RKSt6vectorIS6_SaIS6_EERKNS_14SourceLineInfoE
FNDA:192,_ZN5Catch12TestRegistry12registerTestERKNS_8TestCaseE
FNDA:192,_ZN5Catch12_GLOBAL__N_111RegistryHub12registerTestERKNS_8TestCaseE
FNDA:192,_ZN5Catch12makeTestCaseEPNS_12ITestInvokerERKNSt7__cxx1112basic_stringIcSt11char_traitsIcESaIcEEERKNS_11NameAndTagsERKNS_14SourceLineInfoE
FNDA:192,_ZN5Catch15makeTestInvokerEPFvvE
FNDA:192,_ZN5Catch16extractClassNameB5cxx11ERKNS_9StringRefE
FNDA:192,_ZN5Catch7AutoRegC2EPNS_12ITestInvokerERKNS_14SourceLineInfoERKNS_9StringRefERKNS_11NameAndTagsE
FNDA:192,_ZN5Catch7setTagsERNS_12TestCaseInfoESt6vectorINSt7__cxx1112basic_stringIcSt11char_traitsIcESaIcEEESaIS8_EE
FNDA:192,_ZN5Catch8TestCaseC2EPNS_12ITestInvokerEONS_12TestCaseInfoE
FNDA:192,_ZNK5Catch15WildcardPattern7matchesERKNSt7__cxx1112basic_stringIcSt11char_traitsIcESaIcEEE
FNDA:192,_ZNK5Catch8TestSpec11NamePattern7matchesERKNS_12TestCaseInfoE
FNDA:193,_ZNK5Catch15WildcardPattern15normaliseStringERKNSt7__cxx1112basic_stringIcSt11char_traitsIcESaIcEEE
FNDA:199,_ZN5Catch4trimERKNSt7__cxx1112basic_stringIcSt11char_traitsIcESaIcEEE
FNDA:201,_ZN5Catch9SingletonINS_12_GLOBAL__N_111RegistryHubENS_12IRegistryHubENS_19IMutableRegistryHubEE11getInternalEv
FNDA:379,_ZN5Catch9StringRefC2EPKc
FNDA:539,_ZN5Catch12_GLOBAL__N_113isReservedTagERKNSt7__cxx1112basic_stringIcSt11char_traitsIcESaIcEEE
FNDA:539,_ZN5Catch12_GLOBAL__N_121enforceNotReservedTagERKNSt7__cxx1112basic_stringIcSt11char_traitsIcESaIcEEERKNS_14SourceLineInfoE
FNDA:735,_ZN5Catch14toLowerInPlaceERNSt7__cxx1112basic_stringIcSt11char_traitsIcESaIcEEE
FNDA:735,_ZN5Catch7toLowerERKNSt7__cxx1112basic_stringIcSt11char_traitsIcESaIcEEE
FNDA:1617,_ZN5Catch12_GLOBAL__N_115parseSpecialTagERKNSt7__cxx1112basic_stringIcSt11char_traitsIcESaIcEEE
FNDA:16108,_ZN5Catch12_GLOBAL__N_19toLowerChEc
FNF:1180
FNH:229
DA:500,6
DA:501,5
DA:502,5
DA:567,192
DA:613,0
DA:617,0
DA:618,379
DA:619,379
DA:622,1
DA:623,1
DA:624,1
DA:627,387
DA:628,387
DA:637,0
DA:638,0
DA:639,0
DA:643,1
DA:644,1
DA:646,0
DA:647,0
DA:663,0
DA:664,0
DA:668,192
DA:669,192
DA:1383,0
DA:1428,1
DA:1445,5
DA:1446,0
DA:1447,3
DA:1449,0
DA:1461,0
DA:1471,1
DA:1554,0
DA:1555,0
DA:1590,0
DA:1591,0
DA:1614,0
DA:1615,0
DA:1618,0
DA:1619,0
DA:1625,0
DA:1627,0
DA:1639,0
DA:1640,0
DA:1644,0
DA:1645,0
DA:1793,0
DA:1794,0
DA:1795,0
DA:1797,0
DA:2198,0
DA:2199,0
DA:2202,0
DA:2203,0
DA:2204,0
DA:2219,0
DA:2224,0
DA:2226,0
DA:2227,0
DA:2230,0
DA:2234,0
DA:2295,0
DA:2298,0
DA:2299,0
DA:2300,0
DA:2303,0
DA:2305,0
DA:2311,0
DA:2322,0
DA:2336,0
DA:2339,0
DA:2340,0
DA:2342,0
DA:2343,0
DA:2347,0
DA:2348,0
DA:2355,0
DA:2356,0
DA:2359,0
DA:2360,0
DA:2363,0
DA:2364,0
DA:2367,0
DA:2368,0
DA:2397,0
DA:2398,0
DA:2411,0
DA:2412,0
DA:2415,0
DA:2416,0
DA:2453,1
DA:2538,0
DA:2555,0
DA:2556,0
DA:2557,0
DA:2562,0
DA:2563,0
DA:2564,0
DA:2594,0
DA:2611,0
DA:2628,0
DA:2629,0
DA:2630,0
DA:2658,0
DA:2659,0
DA:2660,0
DA:2663,0
DA:2664,0
DA:2665,0
DA:2666,0
DA:2824,1
DA:2837,1
DA:2855,3
DA:2871,1
DA:2889,1
DA:2960,1
DA:2971,1
DA:3010,1
DA:3100,0
DA:3104,0
DA:3105,0
DA:3106,0
DA:3145,0
DA:3146,0
DA:3147,0
DA:3152,0
DA:3153,0
DA:3154,0
DA:3211,0
DA:3240,0
DA:3257,0
DA:3275,0
DA:3398,0
DA:3399,0
DA:3400,0
DA:3533,0
DA:3551,0
DA:3765,0
DA:3770,0
DA:3771,0
DA:3774,0
DA:3777,0
DA:3778,0
DA:3779,0
DA:3780,0
DA:3781,0
DA:3783,0
DA:3784,0
DA:3840,3
DA:3842,10
DA:3854,3
DA:3872,0
DA:3873,0
DA:3930,10
DA:3931,17
DA:3936,13
DA:3937,3
DA:3948,0
DA:3951,7
DA:3953,3
DA:3954,3
DA:3956,0
DA:3957,0
DA:3981,11
DA:3984,7
DA:3985,7
DA:3987,3
DA:3988,3
DA:3990,0
DA:3991,0
DA:3996,7
DA:3997,7
DA:4005,3
DA:4009,3
DA:4010,3
DA:4011,1
DA:4012,4
DA:4013,4
DA:4014,4
DA:4016,0
DA:4017,0
DA:4020,3
DA:4021,3
DA:4022,3
DA:4023,3
DA:4027,3
DA:4028,3
DA:4029,3
DA:4030,3
DA:4032,3
DA:4033,3
DA:4036,0
DA:4037,0
DA:4040,0
DA:4041,0
DA:4042,0
DA:4044,0
DA:4058,2
DA:4059,2
DA:4062,1
DA:4063,1
DA:4066,3
DA:4067,3
DA:4080,3
DA:4083,3
DA:4084,3
DA:4085,9
DA:4088,3
DA:4089,3
DA:4348,1
DA:4357,1
DA:4371,10
DA:4373,10
DA:4374,1
DA:4376,10
DA:4379,8
DA:4381,16
DA:4401,3
DA:4409,1
DA:4410,1
DA:4411,1
DA:4421,3
DA:4422,3
DA:4423,6
DA:4424,3
DA:4427,4
DA:4428,3
DA:4429,0
DA:4430,3
DA:4433,0
DA:4434,0
DA:4435,0
DA:4438,0
DA:4439,0
DA:4442,1
DA:4446,1
DA:4447,1
DA:4502,1
DA:4560,0
DA:4657,0
DA:4664,0
DA:4668,0
DA:4670,0
DA:4671,0
DA:4672,0
DA:4673,0
DA:4675,0
DA:4676,0
DA:4679,0
DA:4680,0
DA:4683,0
DA:4684,0
DA:4685,0
DA:4696,0
DA:4698,0
DA:4797,255
DA:4830,1
DA:5081,0
DA:5101,3
DA:5137,3
DA:5145,1
DA:5177,1
DA:5233,0
DA:5234,0
DA:5235,0
DA:5236,0
DA:5237,0
DA:5312,0
DA:5387,0
DA:5469,1
DA:5482,1
DA:5488,1
DA:5489,3
DA:5490,3
DA:5491,3
DA:5494,0
DA:5495,0
DA:5496,0
DA:5501,1
DA:5505,2
DA:5520,0
DA:5536,0
DA:5538,0
DA:5555,0
DA:5574,0
DA:5590,0
DA:5639,1
DA:5640,0
DA:5650,0
DA:5684,4
DA:5691,1
DA:5726,1
DA:5728,0
DA:5730,1
DA:5731,2
DA:5732,0
DA:5733,1
DA:5735,2
DA:5736,2
DA:5739,1
DA:5740,1
DA:5743,0
DA:5745,0
DA:5747,0
DA:5749,1
DA:5750,2
DA:5751,0
DA:5753,1
DA:5754,1
DA:5755,1
DA:5757,1
DA:5758,1
DA:5759,1
DA:5760,2
DA:5761,2
DA:5762,0
DA:5764,1
DA:5765,2
DA:5766,0
DA:5767,0
DA:5768,0
DA:5769,0
DA:5770,0
DA:5771,0
DA:5772,0
DA:5773,0
DA:5774,0
DA:5775,0
DA:5776,0
DA:5777,0
DA:5779,0
DA:5782,0
DA:5799,0
DA:5800,0
DA:5807,0
DA:5808,0
DA:5827,0
DA:5828,0
DA:5829,0
DA:5830,0
DA:5831,0
DA:5843,0
DA:5845,0
DA:5847,0
DA:5848,0
DA:5849,0
DA:5850,0
DA:5851,0
DA:5853,0
DA:5854,0
DA:5857,0
DA:5858,0
DA:5861,0
DA:5862,0
DA:5864,0
DA:5866,0
DA:5867,0
DA:5868,0
DA:5869,0
DA:5870,0
DA:5871,0
DA:5872,0
DA:5875,0
DA:5877,0
DA:5879,0
DA:5880,0
DA:5881,0
DA:5882,0
DA:5885,0
DA:5887,0
DA:5888,0
DA:5889,0
DA:5891,0
DA:5893,0
DA:5894,0
DA:5900,0
DA:5901,0
DA:5902,0
DA:5903,0
DA:5905,0
DA:5906,0
DA:5907,0
DA:5908,0
DA:5909,0
DA:5910,0
DA:5911,0
DA:5912,0
DA:5913,0
DA:5914,0
DA:5915,0
DA:5916,0
DA:5918,0
DA:5919,0
DA:5920,0
DA:5921,0
DA:5922,0
DA:5923,0
DA:5924,0
DA:5925,0
DA:5926,0
DA:5927,0
DA:5928,0
DA:5929,0
DA:5930,0
DA:5931,0
DA:5932,0
DA:5935,0
DA:5953,0
DA:5955,0
DA:5956,0
DA:5957,0
DA:6041,4
DA:6043,1
DA:6044,1
DA:6047,0
DA:6048,0
DA:6054,4
DA:6055,8
DA:6056,4
DA:6108,0
DA:6222,0
DA:6252,0
DA:6253,0
DA:6254,0
DA:6279,0
DA:6280,0
DA:6281,0
DA:6282,0
DA:7462,0
DA:7467,3
DA:7468,3
DA:7469,3
DA:7481,6
DA:7482,12
DA:7486,3
DA:7487,0
DA:7515,1
DA:7564,0
DA:7565,0
DA:7849,0
DA:7850,0
DA:7858,0
DA:7862,0
DA:7863,0
DA:7865,0
DA:7866,0
DA:7869,0
DA:7870,0
DA:7871,0
DA:7872,0
DA:7875,0
DA:7876,0
DA:7877,0
DA:7878,0
DA:7881,0
DA:7884,0
DA:7885,0
DA:7888,0
DA:7889,0
DA:7892,0
DA:7893,0
DA:7895,0
DA:7896,0
DA:7899,0
DA:7900,0
DA:7905,0
DA:7906,0
DA:7908,0
DA:7909,0
DA:7913,0
DA:7914,0
DA:8197,0
DA:8198,0
DA:8199,0
DA:8203,0
DA:8204,0
DA:8205,0
DA:8207,0
DA:8209,0
DA:8210,0
DA:8213,0
DA:8214,0
DA:8215,0
DA:8217,0
DA:8218,0
DA:8219,0
DA:8221,0
DA:8224,0
DA:8226,0
DA:8229,0
DA:8233,0
DA:8235,0
DA:8236,0
DA:8238,0
DA:8239,0
DA:8240,0
DA:8241,0
DA:8242,0
DA:8243,0
DA:8245,0
DA:8246,0
DA:8249,0
DA:8250,0
DA:8251,0
DA:8257,0
DA:8259,0
DA:8261,0
DA:8266,0
DA:8267,0
DA:8268,0
DA:8269,0
DA:8271,0
DA:8272,0
DA:8273,0
DA:8275,0
DA:8276,0
DA:8277,0
DA:8278,0
DA:8279,0
DA:8280,0
DA:8282,0
DA:8283,0
DA:8284,0
DA:8286,0
DA:8287,0
DA:8288,0
DA:8292,0
DA:8293,0
DA:8294,0
DA:8301,0
DA:8303,0
DA:8305,0
DA:8307,0
DA:8308,0
DA:8309,0
DA:8310,0
DA:8311,0
DA:8314,0
DA:8317,0
DA:8319,0
DA:8320,0
DA:8323,0
DA:8324,0
DA:8328,0
DA:8329,0
DA:8332,0
DA:8333,0
DA:8336,0
DA:8337,0
DA:8340,0
DA:8341,0
DA:8344,0
DA:8346,0
DA:8347,0
DA:8348,0
DA:8350,0
DA:8351,0
DA:8352,0
DA:8354,0
DA:8357,0
DA:8358,0
DA:8359,0
DA:8360,0
DA:8362,0
DA:8363,0
DA:8364,0
DA:8365,0
DA:8366,0
DA:8368,0
DA:8371,0
DA:8372,0
DA:8375,0
DA:8376,0
DA:8377,0
DA:8379,0
DA:8382,0
DA:8383,0
DA:8385,0
DA:8386,0
DA:8389,0
DA:8390,0
DA:8404,0
DA:8405,0
DA:8406,0
DA:8407,0
DA:8408,0
DA:8485,0
DA:8486,0
DA:8487,0
DA:8489,0
DA:8490,0
DA:8491,0
DA:8493,0
DA:8494,0
DA:8495,0
DA:8500,0
DA:8518,0
DA:8519,0
DA:8520,0
DA:8522,0
DA:8524,0
DA:8525,0
DA:8526,0
DA:8528,0
DA:8529,0
DA:8530,0
DA:8531,0
DA:8534,0
DA:8535,0
DA:8537,0
DA:8538,0
DA:8539,0
DA:8540,0
DA:8541,0
DA:8543,0
DA:8544,0
DA:8546,0
DA:8547,0
DA:8550,0
DA:8551,0
DA:8552,0
DA:8553,0
DA:8555,0
DA:8556,0
DA:8558,0
DA:8559,0
DA:8562,0
DA:8564,0
DA:8565,0
DA:8566,0
DA:8569,0
DA:8570,0
DA:8580,0
DA:8581,0
DA:8582,0
DA:8583,0
DA:8584,0
DA:8585,0
DA:8586,0
DA:8588,0
DA:8589,0
DA:8590,0
DA:8591,0
DA:8594,0
DA:8595,0
DA:8596,0
DA:8597,0
DA:8599,0
DA:8600,0
DA:8602,0
DA:8603,0
DA:8604,0
DA:8606,0
DA:8607,0
DA:8608,0
DA:8616,0
DA:8617,0
DA:8618,0
DA:8619,0
DA:8620,0
DA:8622,0
DA:8623,0
DA:8628,0
DA:8630,0
DA:8631,0
DA:8632,0
DA:8633,0
DA:8635,0
DA:8636,0
DA:8637,0
DA:8639,0
DA:8640,0
DA:8641,0
DA:8644,0
DA:8645,0
DA:8646,0
DA:8648,0
DA:8649,0
DA:8650,0
DA:8651,0
DA:8654,0
DA:8655,0
DA:8657,0
DA:8669,0
DA:8672,0
DA:8673,0
DA:8674,0
DA:8677,0
DA:8682,0
DA:8690,0
DA:8691,0
DA:8692,0
DA:8693,0
DA:8695,0
DA:8696,0
DA:8697,0
DA:8706,0
DA:8707,0
DA:8708,0
DA:8709,0
DA:8711,0
DA:8712,0
DA:8713,0
DA:8718,0
DA:8719,0
DA:8721,0
DA:8722,0
DA:8724,0
DA:8725,0
DA:8726,0
DA:8727,0
DA:8728,0
DA:8729,0
DA:8730,0
DA:8732,0
DA:8734,0
DA:8737,0
DA:8739,0
DA:8740,0
DA:8741,0
DA:8742,0
DA:8744,0
DA:8754,0
DA:8755,0
DA:8757,0
DA:8758,0
DA:8759,0
DA:8761,0
DA:8762,0
DA:8763,0
DA:8764,0
DA:8767,0
DA:8769,0
DA:8770,0
DA:8771,0
DA:8774,0
DA:8775,0
DA:8777,0
DA:8787,0
DA:8788,0
DA:8789,0
DA:8790,0
DA:8791,0
DA:8839,1
DA:8840,1
DA:8841,1
DA:8848,1
DA:8849,1
DA:8858,514
DA:8863,1
DA:8864,1
DA:8872,34
DA:8878,2
DA:8879,2
DA:8882,1
DA:8883,2
DA:8885,2
DA:8886,1
DA:8887,1
DA:8888,0
DA:8889,0
DA:8890,0
DA:8891,0
DA:8893,0
DA:8894,0
DA:8895,0
DA:8896,0
DA:8897,0
DA:8900,0
DA:8904,1
DA:8907,2
DA:8910,1
DA:8912,1
DA:8913,1
DA:8914,1
DA:8916,35
DA:8917,1
DA:8922,1
DA:8923,1
DA:8924,1
DA:8927,34
DA:8928,0
DA:8929,34
DA:8932,1
DA:8933,1
DA:8934,0
DA:8936,1
DA:8937,1
DA:8938,1
DA:8940,1
DA:8944,34
DA:8951,71
DA:8952,36
DA:8962,71
DA:8963,71
DA:8968,0
DA:8975,37
DA:8976,72
DA:8979,34
DA:8980,34
DA:8981,68
DA:8982,34
DA:8983,34
DA:8984,34
DA:8985,34
DA:8988,2
DA:8989,0
DA:8990,0
DA:8991,2
DA:8999,0
DA:9001,34
DA:9005,36
DA:9008,0
DA:9010,0
DA:9012,0
DA:9013,0
DA:9016,72
DA:9017,34
DA:9018,0
DA:9019,0
DA:9021,71
DA:9022,0
DA:9023,0
DA:9026,71
DA:9030,71
DA:9031,71
DA:9032,71
DA:9033,0
DA:9034,71
DA:9038,0
DA:9040,0
DA:9042,0
DA:9043,0
DA:9045,106
DA:9053,103
DA:9056,35
DA:9057,35
DA:9058,70
DA:9059,34
DA:9061,35
DA:9062,72
DA:9073,0
DA:9079,0
DA:9080,0
DA:9081,0
DA:9082,0
DA:9083,0
DA:9084,0
DA:9086,0
DA:9088,2
DA:9089,4
DA:9090,1
DA:9092,0
DA:9093,0
DA:9094,0
DA:9095,0
DA:9096,0
DA:9097,0
DA:9098,0
DA:9100,0
DA:9101,0
DA:9122,35
DA:9123,0
DA:9124,64
DA:9125,1
DA:9127,21
DA:9130,14
DA:9132,0
DA:9139,9
DA:9141,1
DA:9142,1
DA:9150,2
DA:9152,2
DA:9154,1
DA:9155,1
DA:9156,1
DA:9157,1
DA:9158,1
DA:9159,1
DA:9166,12
DA:9168,0
DA:9169,0
DA:9170,0
DA:9179,0
DA:9180,0
DA:9187,0
DA:9188,0
DA:9189,0
DA:9194,0
DA:9195,0
DA:9196,0
DA:9197,0
DA:9199,0
DA:9203,0
DA:9207,10
DA:9209,0
DA:9210,0
DA:9215,0
DA:9221,2
DA:9223,0
DA:9224,0
DA:9232,35
DA:9235,34
DA:9237,0
DA:9239,1
DA:9240,3
DA:9245,35
DA:9263,14
DA:9267,10
DA:9269,20
DA:9270,10
DA:9273,10
DA:9275,20
DA:9276,10
DA:9278,34
DA:9279,34
DA:9283,1
DA:9284,1
DA:9293,0
DA:9294,0
DA:9297,66
DA:9298,66
DA:9301,64
DA:9304,0
DA:9317,1
DA:9319,1
DA:9320,1
DA:9321,1
DA:9329,0
DA:9330,0
DA:9333,0
DA:9334,1
DA:9336,1
DA:9337,1
DA:9339,2
DA:9341,1
DA:9342,1
DA:9343,1
DA:9345,0
DA:9349,7
DA:9351,2
DA:9353,1
DA:9354,2
DA:9355,1
DA:9356,0
DA:9358,2
DA:9359,2
DA:9360,1
DA:9361,0
DA:9363,1
DA:9364,1
DA:9366,2
DA:9367,1
DA:9368,0
DA:9370,2
DA:9374,0
DA:9380,0
DA:9383,561
DA:9389,4
DA:9391,12
DA:9394,10
DA:9397,9
DA:9399,53
DA:9400,14
DA:9401,2
DA:9404,0
DA:9405,0
DA:9406,0
DA:9407,0
DA:9408,0
DA:9411,0
DA:9412,0
DA:9414,0
DA:9415,0
DA:9416,0
DA:9419,0
DA:9420,0
DA:9421,0
DA:9422,0
DA:9423,0
DA:9430,33
DA:9431,66
DA:9432,33
DA:9433,0
DA:9435,66
DA:9436,33
DA:9437,0
DA:9438,0
DA:9439,0
DA:9440,0
DA:9441,0
DA:9442,0
DA:9443,0
DA:9444,0
DA:9445,0
DA:9447,0
DA:9448,0
DA:9449,0
DA:9450,0
DA:9451,0
DA:9452,0
DA:9453,0
DA:9454,0
DA:9455,0
DA:9456,0
DA:9457,0
DA:9458,0
DA:9460,0
DA:9463,66
DA:9466,33
DA:9467,33
DA:9468,0
DA:9469,86
DA:9470,53
DA:9471,0
DA:9476,53
DA:9477,0
DA:9480,33
DA:9484,0
DA:9485,1
DA:9486,1
DA:9487,0
DA:9488,0
DA:9489,1
DA:9491,1
DA:9492,3
DA:9493,3
DA:9494,1
DA:9495,1
DA:9504,1
DA:9505,1
DA:9506,1
DA:9509,1
DA:9510,1
DA:9511,1
DA:9514,33
DA:9515,33
DA:9516,33
DA:9526,35
DA:9527,35
DA:9536,0
DA:9537,0
DA:9538,0
DA:9539,0
DA:9540,0
DA:9542,0
DA:9545,0
DA:9546,0
DA:9547,0
DA:9548,0
DA:9549,0
DA:9550,0
DA:9553,0
DA:9554,0
DA:9555,0
DA:9558,0
DA:9559,0
DA:9560,0
DA:9562,0
DA:9563,0
DA:9564,0
DA:9565,0
DA:9566,0
DA:9569,0
DA:9570,0
DA:9571,0
DA:9572,0
DA:9573,0
DA:9575,0
DA:9577,0
DA:9578,0
DA:9579,0
DA:9580,0
DA:9581,0
DA:9582,0
DA:9584,0
DA:9586,0
DA:9587,0
DA:9588,0
DA:9591,0
DA:9592,0
DA:9593,0
DA:9594,0
DA:9595,0
DA:9597,0
DA:9598,0
DA:9599,0
DA:9600,0
DA:9602,0
DA:9607,1
DA:9609,1
DA:9613,1
DA:9614,1
DA:9616,1
DA:9618,1
DA:9619,1
DA:9620,34
DA:9621,2
DA:9624,1
DA:9626,2
DA:9627,5
DA:9628,34
DA:9630,34
DA:9631,34
DA:9632,34
DA:9633,102
DA:9634,34
DA:9635,0
DA:9636,34
DA:9637,1
DA:9638,1
DA:9639,1
DA:9644,1
DA:9645,0
DA:9646,1
DA:9647,0
DA:9650,1
DA:9656,1
DA:9657,1
DA:9711,1
DA:9713,1
DA:9715,1
DA:9716,0
DA:9717,0
DA:9720,0
DA:9721,0
DA:9724,0
DA:9726,0
DA:9727,0
DA:9728,0
DA:9729,0
DA:9730,1
DA:9731,1
DA:9732,0
DA:9733,0
DA:9734,0
DA:9736,0
DA:9737,0
DA:9738,0
DA:9739,0
DA:9740,0
DA:9741,0
DA:9742,0
DA:9743,0
DA:9747,0
DA:9748,0
DA:9750,0
DA:9751,1
DA:9752,1
DA:9753,0
DA:9754,0
DA:9755,0
DA:9756,0
DA:9757,0
DA:9758,0
DA:9760,0
DA:9761,0
DA:9762,1
DA:9763,1
DA:9764,0
DA:9765,0
DA:9766,0
DA:9767,0
DA:9768,1
DA:9769,1
DA:9770,0
DA:9772,0
DA:9773,0
DA:9774,0
DA:9775,0
DA:9776,0
DA:9777,0
DA:9779,0
DA:9780,0
DA:9781,1
DA:9782,1
DA:9783,0
DA:9784,0
DA:9785,0
DA:9786,0
DA:9787,0
DA:9788,0
DA:9789,0
DA:9790,0
DA:9791,0
DA:9793,0
DA:9794,0
DA:9795,1
DA:9796,1
DA:9797,0
DA:9798,0
DA:9799,0
DA:9800,0
DA:9801,0
DA:9802,0
DA:9803,0
DA:9805,0
DA:9806,0
DA:9807,1
DA:9808,1
DA:9809,0
DA:9811,0
DA:9812,0
DA:9814,0
DA:9815,0
DA:9817,0
DA:9818,0
DA:9819,1
DA:9821,1
DA:9822,2
DA:9823,3
DA:9824,4
DA:9825,3
DA:9826,3
DA:9827,4
DA:9828,3
DA:9829,3
DA:9830,4
DA:9831,3
DA:9832,3
DA:9833,4
DA:9834,3
DA:9835,3
DA:9836,4
DA:9837,3
DA:9838,3
DA:9839,4
DA:9840,3
DA:9841,3
DA:9842,4
DA:9843,3
DA:9844,3
DA:9845,5
DA:9846,3
DA:9847,3
DA:9848,4
DA:9849,3
DA:9850,3
DA:9851,4
DA:9852,3
DA:9853,3
DA:9854,4
DA:9855,3
DA:9856,3
DA:9857,5
DA:9858,3
DA:9859,3
DA:9860,4
DA:9861,3
DA:9862,3
DA:9863,4
DA:9864,3
DA:9865,3
DA:9866,5
DA:9867,3
DA:9868,3
DA:9869,4
DA:9870,4
DA:9871,3
DA:9872,4
DA:9873,3
DA:9874,3
DA:9875,6
DA:9876,3
DA:9877,3
DA:9878,4
DA:9879,2
DA:9880,3
DA:9881,4
DA:9882,2
DA:9883,3
DA:9884,5
DA:9885,2
DA:9886,3
DA:9887,5
DA:9888,2
DA:9889,3
DA:9890,5
DA:9891,2
DA:9892,3
DA:9893,4
DA:9894,2
DA:9895,3
DA:9896,6
DA:9897,2
DA:9898,3
DA:9899,4
DA:9900,2
DA:9901,3
DA:9902,4
DA:9903,2
DA:9904,3
DA:9905,5
DA:9906,2
DA:9907,3
DA:9908,4
DA:9909,2
DA:9910,3
DA:9911,5
DA:9912,2
DA:9913,3
DA:9914,2
DA:9915,4
DA:9917,1
DA:9929,0
DA:9930,0
DA:9932,0
DA:9935,0
DA:9938,0
DA:9942,0
DA:9944,0
DA:9947,0
DA:9948,0
DA:9951,198
DA:9952,2
DA:9960,1
DA:9962,1
DA:9968,4
DA:9969,3
DA:9971,1
DA:9972,0
DA:9975,0
DA:9976,1
DA:9977,1
DA:9978,4
DA:9979,3
DA:9982,3
DA:9983,1
DA:9985,0
DA:9986,0
DA:9989,1
DA:9990,1
DA:9991,1
DA:9992,1
DA:9994,0
DA:9995,1
DA:9997,1
DA:9998,1
DA:10000,4
DA:10001,0
DA:10003,0
DA:10006,0
DA:10007,3
DA:10008,2
DA:10009,1
DA:10010,1
DA:10011,0
DA:10012,2
DA:10013,1
DA:10014,3
DA:10015,2
DA:10016,1
DA:10017,0
DA:10018,1
DA:10019,0
DA:10020,1
DA:10022,1
DA:10023,0
DA:10024,0
DA:10025,0
DA:10026,0
DA:10028,1
DA:10029,1
DA:10067,0
DA:10069,0
DA:10070,0
DA:10071,0
DA:10164,2
DA:10165,2
DA:10166,1
DA:10167,1
DA:10168,0
DA:10169,0
DA:10170,0
DA:10171,0
DA:10172,0
DA:10173,0
DA:10175,0
DA:10176,0
DA:10177,0
DA:10178,0
DA:10179,1
DA:10181,0
DA:10182,0
DA:10185,1
DA:10186,1
DA:10187,1
DA:10191,2
DA:10192,2
DA:10193,2
DA:10194,2
DA:10197,1
DA:10198,1
DA:10203,1
DA:10209,1
DA:10210,2
DA:10211,1
DA:10212,1
DA:10213,1
DA:10214,1
DA:10215,1
DA:10216,1
DA:10217,1
DA:10219,0
DA:10220,1
DA:10221,1
DA:10239,0
DA:10240,0
DA:10241,0
DA:10242,0
DA:10243,0
DA:10244,0
DA:10245,0
DA:10246,0
DA:10247,0
DA:10250,0
DA:10252,2
DA:10253,2
DA:10258,2
DA:10259,2
DA:10261,2
DA:10263,0
DA:10264,0
DA:10278,1
DA:10281,5
DA:10282,5
DA:10284,0
DA:10285,0
DA:10288,3
DA:10289,3
DA:10295,1
DA:10296,1
DA:10297,1
DA:10298,1
DA:10299,1
DA:10300,1
DA:10301,2
DA:10302,2
DA:10303,2
DA:10315,1
DA:10317,1
DA:10318,1
DA:10320,0
DA:10321,0
DA:10322,0
DA:10323,0
DA:10324,0
DA:10325,0
DA:10326,0
DA:10328,0
DA:10329,0
DA:10330,0
DA:10366,0
DA:10368,0
DA:10369,0
DA:10447,0
DA:10450,0
DA:10451,0
DA:10452,0
DA:10453,0
DA:10454,0
DA:10458,0
DA:10462,0
DA:10489,0
DA:10491,0
DA:10492,0
DA:10493,0
DA:10494,0
DA:10495,0
DA:10497,0
DA:10498,0
DA:10516,0
DA:10517,0
DA:10521,0
DA:10522,0
DA:10526,0
DA:10527,0
DA:10544,1
DA:10564,0
DA:10571,0
DA:10573,0
DA:10574,0
DA:10577,0
DA:10581,0
DA:10582,0
DA:10583,0
DA:10584,0
DA:10585,0
DA:10586,0
DA:10588,0
DA:10591,0
DA:10593,0
DA:10594,0
DA:10595,0
DA:10596,0
DA:10598,0
DA:10601,0
DA:10602,0
DA:10603,0
DA:10604,0
DA:10606,0
DA:10607,0
DA:10609,0
DA:10610,0
DA:10612,0
DA:10615,0
DA:10616,0
DA:10617,0
DA:10629,1
DA:10630,1
DA:10643,1
DA:10662,0
DA:10663,0
DA:10665,0
DA:10666,0
DA:10667,0
DA:10670,0
DA:10671,0
DA:10689,0
DA:10690,0
DA:10692,0
DA:10695,0
DA:10696,0
DA:10698,0
DA:10699,0
DA:10701,0
DA:10702,0
DA:10704,0
DA:10705,0
DA:10707,0
DA:10708,0
DA:10712,0
DA:10713,0
DA:10714,0
DA:10716,0
DA:10743,0
DA:10744,0
DA:10745,0
DA:10829,0
DA:10830,0
DA:10831,0
DA:10832,0
DA:10833,0
DA:10834,0
DA:10837,0
DA:10838,0
DA:10839,0
DA:10840,0
DA:10842,1
DA:10843,1
DA:10844,1
DA:10845,1
DA:10846,1
DA:10847,1
DA:10848,1
DA:10849,1
DA:10851,1
DA:10852,1
DA:10853,7
DA:10854,6
DA:10856,1
DA:10858,0
DA:10859,0
DA:10860,0
DA:10862,0
DA:10863,0
DA:10865,0
DA:10866,0
DA:10869,0
DA:10870,0
DA:10872,0
DA:10900,0
DA:10902,0
DA:10903,0
DA:10908,3
DA:10910,3
DA:10911,3
DA:10920,0
DA:10926,0
DA:10932,0
DA:10933,0
DA:10939,0
DA:10940,0
DA:11001,1
DA:11002,1
DA:11004,0
DA:11005,0
DA:11007,2
DA:11008,2
DA:11010,1
DA:11012,1
DA:11014,1
DA:11017,1
DA:11018,0
DA:11020,0
DA:11022,0
DA:11025,0
DA:11027,0
DA:11029,0
DA:11032,0
DA:11033,0
DA:11034,0
DA:11036,0
DA:11038,0
DA:11040,0
DA:11042,1
DA:11045,1
DA:11049,1
DA:11050,0
DA:11052,1
DA:11054,0
DA:11058,0
DA:11063,0
DA:11064,0
DA:11066,0
DA:11068,0
DA:11070,0
DA:11073,0
DA:11074,0
DA:11076,0
DA:11078,0
DA:11079,0
DA:11081,0
DA:11083,0
DA:11085,0
DA:11088,0
DA:11089,0
DA:11091,0
DA:11093,0
DA:11094,0
DA:11096,0
DA:11097,0
DA:11104,0
DA:11110,0
DA:11111,0
DA:11135,0
DA:11139,0
DA:11140,0
DA:11141,0
DA:11155,0
DA:11185,0
DA:11186,0
DA:11187,0
DA:11188,0
DA:11190,0
DA:11193,0
DA:11194,0
DA:11195,0
DA:11196,0
DA:11197,0
DA:11198,0
DA:11200,0
DA:11201,0
DA:11202,0
DA:11203,0
DA:11204,0
DA:11205,0
DA:11206,0
DA:11208,0
DA:11209,0
DA:11212,0
DA:11213,0
DA:11215,0
DA:11216,0
DA:11219,0
DA:11220,0
DA:11221,0
DA:11222,0
DA:11223,0
DA:11224,0
DA:11225,0
DA:11226,0
DA:11228,0
DA:11229,0
DA:11230,0
DA:11231,0
DA:11233,0
DA:11236,0
DA:11237,0
DA:11238,0
DA:11239,0
DA:11241,0
DA:11242,0
DA:11243,0
DA:11245,0
DA:11248,0
DA:11249,0
DA:11250,0
DA:11251,0
DA:11252,0
DA:11254,0
DA:11257,0
DA:11258,0
DA:11259,0
DA:11260,0
DA:11262,0
DA:11265,0
DA:11267,0
DA:11268,0
DA:11269,0
DA:11270,0
DA:11271,0
DA:11272,0
DA:11273,0
DA:11274,0
DA:11278,0
DA:11279,0
DA:11280,0
DA:11281,0
DA:11282,0
DA:11283,0
DA:11284,0
DA:11285,0
DA:11286,0
DA:11288,0
DA:11289,0
DA:11292,0
DA:11293,0
DA:11294,0
DA:11295,0
DA:11296,0
DA:11297,0
DA:11299,0
DA:11300,0
DA:11301,0
DA:11302,0
DA:11303,0
DA:11304,0
DA:11305,0
DA:11306,0
DA:11307,0
DA:11308,0
DA:11310,0
DA:11311,0
DA:11314,1
DA:11315,1
DA:11316,3
DA:11317,1
DA:11318,0
DA:11319,1
DA:11320,0
DA:11321,1
DA:11322,0
DA:11323,1
DA:11324,0
DA:11325,1
DA:11336,0
DA:11337,0
DA:11338,0
DA:11339,0
DA:11342,0
DA:11358,0
DA:11359,0
DA:11362,0
DA:11363,0
DA:11367,0
DA:11368,0
DA:11416,0
DA:11417,0
DA:11418,0
DA:11419,0
DA:11420,0
DA:11423,0
DA:11424,0
DA:11425,0
DA:11426,0
DA:11427,0
DA:11431,0
DA:11434,0
DA:11438,0
DA:11439,0
DA:11441,0
DA:11443,0
DA:11446,0
DA:11447,0
DA:11463,0
DA:11464,0
DA:11468,0
DA:11476,0
DA:11477,0
DA:11481,0
DA:11482,0
DA:11483,0
DA:11484,0
DA:11485,0
DA:11497,0
DA:11498,0
DA:11499,0
DA:11501,0
DA:11505,0
DA:11506,0
DA:11509,0
DA:11510,0
DA:11513,0
DA:11514,0
DA:11515,0
DA:11518,0
DA:11526,0
DA:11527,0
DA:11528,0
DA:11529,0
DA:11530,0
DA:11531,0
DA:11532,0
DA:11533,0
DA:11541,0
DA:11542,0
DA:11544,0
DA:11546,0
DA:11547,0
DA:11548,0
DA:11550,0
DA:11553,0
DA:11554,0
DA:11555,0
DA:11556,0
DA:11557,0
DA:11560,0
DA:11561,0
DA:11562,0
DA:11564,0
DA:11566,0
DA:11569,0
DA:11571,0
DA:11572,0
DA:11573,0
DA:11574,0
DA:11576,0
DA:11577,0
DA:11578,0
DA:11579,0
DA:11582,0
DA:11583,0
DA:11584,0
DA:11585,0
DA:11590,0
DA:11591,0
DA:11594,0
DA:11595,0
DA:11598,0
DA:11599,0
DA:11602,0
DA:11603,0
DA:11606,0
DA:11607,0
DA:11610,0
DA:11611,0
DA:11614,0
DA:11615,0
DA:11624,0
DA:11625,0
DA:11626,0
DA:11628,0
DA:11641,0
DA:11643,0
DA:11644,0
DA:11645,0
DA:11646,0
DA:11648,0
DA:11650,0
DA:11651,0
DA:11653,0
DA:11656,0
DA:11658,0
DA:11659,0
DA:11661,0
DA:11662,0
DA:11663,0
DA:11664,0
DA:11665,0
DA:11666,0
DA:11667,0
DA:11668,0
DA:11669,0
DA:11670,0
DA:11673,0
DA:11675,0
DA:11676,0
DA:11679,0
DA:11681,0
DA:11682,0
DA:11685,0
DA:11687,0
DA:11688,0
DA:11691,0
DA:11693,0
DA:11694,0
DA:11697,0
DA:11699,0
DA:11700,0
DA:11701,0
DA:11702,0
DA:11704,0
DA:11705,0
DA:11708,0
DA:11709,0
DA:11714,0
DA:11715,0
DA:11717,0
DA:11718,0
DA:11720,0
DA:11721,0
DA:11723,0
DA:11724,0
DA:11727,0
DA:11728,0
DA:11748,0
DA:11750,0
DA:11754,0
DA:11755,0
DA:11757,0
DA:11758,0
DA:11761,0
DA:11762,0
DA:11770,0
DA:11772,0
DA:11773,0
DA:11777,0
DA:11778,0
DA:11780,0
DA:11781,0
DA:11782,0
DA:11784,0
DA:11785,0
DA:11787,0
DA:11788,0
DA:11790,0
DA:11791,0
DA:11792,0
DA:11794,0
DA:11796,0
DA:11797,0
DA:11798,0
DA:11799,0
DA:11801,0
DA:11802,0
DA:11804,0
DA:11805,0
DA:11806,0
DA:11807,0
DA:11808,0
DA:11809,0
DA:11810,0
DA:11811,0
DA:11813,0
DA:11814,0
DA:11816,0
DA:11817,0
DA:11818,0
DA:11819,0
DA:11820,0
DA:11821,0
DA:11822,0
DA:11823,0
DA:11827,0
DA:11829,0
DA:11830,0
DA:11831,0
DA:11833,0
DA:11835,0
DA:11836,0
DA:11837,0
DA:11839,0
DA:11840,0
DA:11841,0
DA:11842,0
DA:11843,0
DA:11848,0
DA:11849,0
DA:11850,0
DA:11851,0
DA:11852,0
DA:11853,0
DA:11854,0
DA:11855,0
DA:11856,0
DA:11857,0
DA:11859,0
DA:11861,0
DA:11862,0
DA:11863,0
DA:11864,0
DA:11865,0
DA:11866,0
DA:11998,0
DA:12001,0
DA:12003,0
DA:12004,0
DA:12006,0
DA:12007,0
DA:12008,0
DA:12010,0
DA:12011,0
DA:12013,0
DA:12015,0
DA:12016,0
DA:12017,0
DA:12019,0
DA:12021,0
DA:12022,0
DA:12024,0
DA:12025,0
DA:12026,0
DA:12027,0
DA:12122,0
DA:12123,0
DA:12125,0
DA:12126,0
DA:12151,0
DA:12152,0
DA:12153,0
DA:12154,0
DA:12163,0
DA:12164,0
DA:12165,0
DA:12167,0
DA:12168,0
DA:12169,0
DA:12170,0
DA:12171,0
DA:12172,0
DA:12174,0
DA:12177,0
DA:12178,0
DA:12180,0
DA:12182,0
DA:12184,0
DA:12185,0
DA:12188,0
DA:12190,0
DA:12193,0
DA:12194,0
DA:12197,0
DA:12198,0
DA:12228,0
DA:12266,1
DA:12295,0
DA:12309,1
DA:12330,1
DA:12347,2
DA:12355,4
DA:12357,204
DA:12359,204
DA:12360,2
DA:12361,2
DA:12363,204
DA:12367,5
DA:12368,0
DA:12370,199
DA:12371,4
DA:12386,1
DA:12387,2
DA:12388,2
DA:12390,1
DA:12391,1
DA:12393,0
DA:12394,0
DA:12396,1
DA:12397,1
DA:12399,1
DA:12400,1
DA:12404,4
DA:12405,8
DA:12406,4
DA:12407,0
DA:12408,0
DA:12409,0
DA:12410,192
DA:12411,192
DA:12412,192
DA:12413,0
DA:12414,0
DA:12415,0
DA:12416,0
DA:12417,0
DA:12418,0
DA:12419,0
DA:12421,0
DA:12425,0
DA:12426,0
DA:12427,0
DA:12442,5
DA:12443,0
DA:12445,196
DA:12446,4
DA:12448,0
DA:12449,0
DA:12450,0
DA:12451,0
DA:12452,0
DA:12453,0
DA:12462,0
DA:12464,1
DA:12465,1
DA:12466,1
DA:12467,1
DA:12468,2
DA:12471,4
DA:12472,4
DA:12473,0
DA:12474,0
DA:12475,0
DA:12476,0
DA:12478,0
DA:12479,0
DA:12481,1
DA:12482,1
DA:12491,0
DA:12492,0
DA:12494,0
DA:12495,0
DA:12498,0
DA:12499,0
DA:12502,0
DA:12503,0
DA:12519,3
DA:12520,3
DA:12524,3
DA:12525,6
DA:12527,3
DA:12539,3
DA:12540,0
DA:12541,0
DA:12542,0
DA:12543,0
DA:12544,6
DA:12545,0
DA:12546,0
DA:12547,0
DA:12549,3
DA:12550,9
DA:12553,3
DA:12554,3
DA:12557,6
DA:12561,0
DA:12562,3
DA:12563,3
DA:12565,0
DA:12566,0
DA:12574,0
DA:12575,0
DA:12576,0
DA:12578,0
DA:12579,0
DA:12580,0
DA:12586,0
DA:12587,0
DA:12588,0
DA:12589,0
DA:12590,0
DA:12592,0
DA:12595,3
DA:12596,3
DA:12598,3
DA:12599,3
DA:12600,3
DA:12602,0
DA:12605,1
DA:12606,2
DA:12609,1
DA:12611,4
DA:12613,1
DA:12614,1
DA:12615,1
DA:12616,1
DA:12617,1
DA:12619,0
DA:12620,0
DA:12621,0
DA:12623,1
DA:12624,1
DA:12625,1
DA:12627,0
DA:12628,0
DA:12629,0
DA:12631,1
DA:12632,1
DA:12634,1
DA:12635,0
DA:12637,1
DA:12639,1
DA:12641,1
DA:12643,1
DA:12644,1
DA:12645,1
DA:12646,1
DA:12647,1
DA:12648,1
DA:12649,1
DA:12650,0
DA:12652,0
DA:12653,0
DA:12654,0
DA:12655,0
DA:12656,0
DA:12658,0
DA:12659,0
DA:12663,0
DA:12665,0
DA:12666,0
DA:12668,0
DA:12671,0
DA:12672,0
DA:12675,0
DA:12676,0
DA:12679,0
DA:12680,0
DA:12681,0
DA:12682,0
DA:12683,0
DA:12684,0
DA:12685,0
DA:12686,0
DA:12688,0
DA:12691,0
DA:12696,0
DA:12698,0
DA:12699,0
DA:12702,0
DA:12703,0
DA:12704,0
DA:12705,0
DA:12706,0
DA:12707,0
DA:12708,0
DA:12710,1
DA:12711,1
DA:12712,1
DA:12714,1
DA:12716,1
DA:12718,1
DA:12720,1
DA:12722,1
DA:12724,3
DA:12725,3
DA:12726,3
DA:12727,3
DA:12728,3
DA:12729,3
DA:12732,1
DA:12733,1
DA:12735,1
DA:12737,0
DA:12739,0
DA:12740,0
DA:12741,0
DA:12744,1
DA:12745,1
DA:12746,2
DA:12748,1
DA:12749,1
DA:12750,1
DA:12753,1
DA:12754,1
DA:12755,1
DA:12756,1
DA:12758,0
DA:12759,0
DA:12760,0
DA:12762,0
DA:12763,0
DA:12765,0
DA:12766,0
DA:12783,0
DA:12784,0
DA:12785,0
DA:12787,0
DA:12788,0
DA:12789,0
DA:12791,0
DA:12792,0
DA:12793,0
DA:12795,0
DA:12796,0
DA:12797,0
DA:12798,0
DA:12801,0
DA:12802,0
DA:12805,0
DA:12806,0
DA:12807,0
DA:12809,0
DA:12811,0
DA:12815,0
DA:12816,0
DA:12817,0
DA:12819,0
DA:12821,0
DA:12824,0
DA:12825,0
DA:12827,0
DA:12828,0
DA:12829,0
DA:12830,0
DA:12832,0
DA:12834,0
DA:12835,0
DA:12836,0
DA:12837,0
DA:12839,0
DA:12840,0
DA:12841,0
DA:12842,0
DA:12843,0
DA:12844,0
DA:12845,0
DA:12847,0
DA:12848,0
DA:12851,0
DA:12852,0
DA:12853,0
DA:12854,0
DA:12855,0
DA:12856,0
DA:12858,1
DA:12859,0
DA:12862,1
DA:12863,1
DA:12864,0
DA:12865,1
DA:12866,1
DA:12867,1
DA:12868,1
DA:12869,1
DA:12871,1
DA:12873,1
DA:12874,1
DA:12875,1
DA:12877,0
DA:12879,0
DA:12880,0
DA:12887,2
DA:12888,1
DA:12890,0
DA:12891,0
DA:12893,0
DA:12896,0
DA:12897,0
DA:12898,0
DA:12901,0
DA:12902,0
DA:12904,0
DA:12905,0
DA:12906,0
DA:12907,0
DA:12909,0
DA:12910,0
DA:12911,0
DA:12913,1
DA:12914,1
DA:12915,1
DA:12916,0
DA:12917,0
DA:12919,0
DA:12922,0
DA:12923,0
DA:12924,0
DA:12925,0
DA:12926,0
DA:12927,0
DA:12928,0
DA:12930,0
DA:12935,0
DA:12937,0
DA:12938,0
DA:12940,0
DA:12941,0
DA:12942,0
DA:12945,0
DA:12949,0
DA:12950,0
DA:12952,0
DA:12953,0
DA:12959,0
DA:12960,0
DA:12962,0
DA:12963,0
DA:12965,0
DA:12966,0
DA:12968,0
DA:12974,0
DA:12976,0
DA:12978,0
DA:12979,0
DA:12980,0
DA:12981,0
DA:12982,0
DA:12983,0
DA:12984,0
DA:12985,0
DA:12989,0
DA:12990,0
DA:12992,0
DA:12997,0
DA:12999,0
DA:13000,0
DA:13001,0
DA:13002,0
DA:13003,0
DA:13004,0
DA:13006,0
DA:13007,0
DA:13008,0
DA:13009,0
DA:13011,0
DA:13014,0
DA:13016,0
DA:13017,0
DA:13018,0
DA:13019,0
DA:13020,0
DA:13021,0
DA:13026,0
DA:13028,0
DA:13029,0
DA:13030,0
DA:13032,0
DA:13033,0
DA:13034,0
DA:13036,5
DA:13037,5
DA:13038,5
DA:13040,0
DA:13043,2
DA:13044,2
DA:13045,0
DA:13046,0
DA:13048,2
DA:13050,0
DA:13051,0
DA:13060,1
DA:13062,1
DA:13064,2
DA:13065,1
DA:13067,1
DA:13068,1
DA:13069,2
DA:13070,1
DA:13071,0
DA:13073,1
DA:13075,1
DA:13078,1
DA:13079,1
DA:13088,2
DA:13090,2
DA:13092,2
DA:13093,1
DA:13190,1
DA:13191,1
DA:13192,1
DA:13194,1
DA:13197,1
DA:13198,1
DA:13199,3
DA:13207,1
DA:13208,0
DA:13209,0
DA:13210,0
DA:13211,0
DA:13213,0
DA:13214,0
DA:13219,1
DA:13220,1
DA:13221,5
DA:13223,1
DA:13224,1
DA:13225,1
DA:13227,0
DA:13228,0
DA:13229,0
DA:13230,0
DA:13232,2
DA:13233,2
DA:13235,1
DA:13237,1
DA:13238,1
DA:13239,1
DA:13240,1
DA:13241,1
DA:13242,1
DA:13243,1
DA:13245,0
DA:13248,0
DA:13249,0
DA:13250,0
DA:13251,0
DA:13255,0
DA:13256,0
DA:13257,0
DA:13260,0
DA:13261,0
DA:13273,0
DA:13274,0
DA:13275,0
DA:13276,0
DA:13278,0
DA:13279,0
DA:13280,0
DA:13281,0
DA:13282,0
DA:13285,0
DA:13286,0
DA:13287,0
DA:13290,0
DA:13291,0
DA:13293,0
DA:13297,1
DA:13298,1
DA:13299,1
DA:13300,0
DA:13301,0
DA:13306,1
DA:13307,1
DA:13308,0
DA:13309,0
DA:13311,0
DA:13312,0
DA:13313,0
DA:13315,0
DA:13316,0
DA:13317,0
DA:13318,0
DA:13319,0
DA:13325,1
DA:13326,1
DA:13327,1
DA:13328,0
DA:13329,0
DA:13330,0
DA:13332,0
DA:13333,0
DA:13334,0
DA:13335,0
DA:13336,0
DA:13337,0
DA:13338,0
DA:13339,0
DA:13340,0
DA:13341,0
DA:13342,0
DA:13343,0
DA:13344,0
DA:13346,1
DA:13347,1
DA:13350,1
DA:13351,1
DA:13352,0
DA:13353,0
DA:13354,0
DA:13355,0
DA:13356,0
DA:13357,0
DA:13358,0
DA:13359,1
DA:13363,1
DA:13364,0
DA:13365,1
DA:13366,0
DA:13367,1
DA:13395,1
DA:13396,1
DA:13397,1
DA:13398,1
DA:13400,1
DA:13401,1
DA:13402,0
DA:13403,0
DA:13405,1
DA:13406,0
DA:13407,0
DA:13408,0
DA:13410,0
DA:13413,1
DA:13414,1
DA:13416,1
DA:13417,1
DA:13418,1
DA:13419,1
DA:13420,1
DA:13422,1
DA:13423,1
DA:13424,1
DA:13425,1
DA:13428,1
DA:13429,1
DA:13432,1
DA:13436,1
DA:13437,1
DA:13439,1
DA:13441,1
DA:13442,0
DA:13445,1
DA:13446,0
DA:13448,1
DA:13449,1
DA:13451,0
DA:13457,0
DA:13460,0
DA:13461,0
DA:13462,0
DA:13476,2
DA:13477,2
DA:13478,2
DA:13479,1
DA:13480,2
DA:13484,0
DA:13486,2
DA:13487,2
DA:13488,0
DA:13489,0
DA:13490,0
DA:13491,0
DA:13492,0
DA:13493,0
DA:13494,0
DA:13495,0
DA:13503,0
DA:13504,0
DA:13505,0
DA:13506,0
DA:13508,0
DA:13510,0
DA:13512,1
DA:13513,1
DA:13530,0
DA:13539,0
DA:13540,0
DA:13543,0
DA:13544,0
DA:13545,0
DA:13548,0
DA:13549,0
DA:13551,0
DA:13552,0
DA:13553,0
DA:13555,0
DA:13557,0
DA:13560,0
DA:13561,0
DA:13562,0
DA:13563,0
DA:13565,0
DA:13573,0
DA:13574,0
DA:13575,0
DA:13583,0
DA:13584,0
DA:13585,0
DA:13586,0
DA:13587,0
DA:13589,0
DA:13590,0
DA:13601,1
DA:13602,0
DA:13605,3
DA:13614,0
DA:13615,0
DA:13616,0
DA:13617,0
DA:13619,0
DA:13622,0
DA:13629,1
DA:13630,1
DA:13631,1
DA:13632,0
DA:13633,0
DA:13634,0
DA:13636,0
DA:13639,0
DA:13648,1
DA:13649,1
DA:13650,1
DA:13651,1
DA:13654,0
DA:13655,0
DA:13656,0
DA:13660,1
DA:13661,1
DA:13662,1
DA:13663,1
DA:13666,1
DA:13667,1
DA:13668,2
DA:13669,1
DA:13671,2
DA:13672,1
DA:13673,1
DA:13674,1
DA:13675,1
DA:13677,1
DA:13678,1
DA:13684,1
DA:13685,0
DA:13686,0
DA:13701,16108
DA:13702,16108
DA:13706,3
DA:13707,3
DA:13709,2349
DA:13710,2157
DA:13712,0
DA:13713,0
DA:13715,1
DA:13716,1
DA:13718,0
DA:13719,0
DA:13721,735
DA:13722,735
DA:13723,735
DA:13724,735
DA:13725,735
DA:13726,735
DA:13727,735
DA:13729,199
DA:13730,199
DA:13731,199
DA:13732,199
DA:13734,199
DA:13737,0
DA:13738,0
DA:13739,0
DA:13741,0
DA:13742,0
DA:13743,0
DA:13744,0
DA:13746,0
DA:13749,0
DA:13750,0
DA:13751,0
DA:13752,0
DA:13753,0
DA:13754,0
DA:13755,0
DA:13756,0
DA:13760,0
DA:13763,0
DA:13764,0
DA:13765,0
DA:13766,0
DA:13767,0
DA:13768,0
DA:13769,0
DA:13770,0
DA:13773,0
DA:13774,0
DA:13775,0
DA:13778,0
DA:13780,0
DA:13781,0
DA:13783,0
DA:13784,0
DA:13785,0
DA:13786,0
DA:13787,0
DA:13800,379
DA:13801,0
DA:13802,379
DA:13804,0
DA:13805,0
DA:13806,0
DA:13808,0
DA:13809,0
DA:13812,0
DA:13813,0
DA:13814,0
DA:13816,0
DA:13819,0
DA:13820,0
DA:13821,0
DA:13824,0
DA:13825,0
DA:13828,0
DA:13829,0
DA:13830,0
DA:13838,0
DA:13845,0
DA:13846,0
DA:13847,0
DA:13848,0
DA:13850,0
DA:13852,0
DA:13862,0
DA:13864,0
DA:13865,0
DA:13866,0
DA:13867,0
DA:13872,3
DA:13873,3
DA:13874,3
DA:13875,0
DA:13876,0
DA:13877,0
DA:13878,0
DA:13879,0
DA:13882,3
DA:13885,0
DA:13886,0
DA:13889,0
DA:13893,0
DA:13895,0
DA:13897,1
DA:13898,1
DA:13913,1617
DA:13914,3234
DA:13915,1617
DA:13916,0
DA:13917,1617
DA:13919,1617
DA:13921,1617
DA:13923,1617
DA:13925,1617
DA:13928,1617
DA:13930,539
DA:13931,539
DA:13933,539
DA:13934,539
DA:13938,539
DA:13941,192
DA:13946,192
DA:13949,192
DA:13950,384
DA:13951,192
DA:13952,11828
DA:13953,11636
DA:13954,551
DA:13957,12
DA:13960,11085
DA:13961,539
DA:13962,539
DA:13964,539
DA:13965,539
DA:13970,539
DA:13971,0
DA:13973,539
DA:13974,539
DA:13975,539
DA:13978,22182
DA:13981,192
DA:13983,0
DA:13986,576
DA:13987,384
DA:13990,192
DA:13991,192
DA:13992,192
DA:13993,192
DA:13995,731
DA:13996,1078
DA:13997,539
DA:13998,539
DA:14000,192
DA:14001,192
DA:14003,192
DA:14007,192
DA:14012,576
DA:14014,192
DA:14015,192
DA:14017,0
DA:14018,0
DA:14020,192
DA:14021,192
DA:14023,0
DA:14024,0
DA:14026,0
DA:14027,0
DA:14030,0
DA:14031,0
DA:14033,0
DA:14034,0
DA:14035,0
DA:14037,0
DA:14038,0
DA:14039,0
DA:14040,0
DA:14041,0
DA:14044,0
DA:14047,384
DA:14049,0
DA:14050,0
DA:14051,0
DA:14052,0
DA:14055,1
DA:14056,1
DA:14057,0
DA:14059,0
DA:14060,0
DA:14061,0
DA:14062,0
DA:14065,1767
DA:14066,1767
DA:14069,194
DA:14071,2
DA:14085,0
DA:14086,0
DA:14087,0
DA:14088,0
DA:14089,0
DA:14093,0
DA:14095,0
DA:14096,0
DA:14097,0
DA:14098,0
DA:14099,0
DA:14101,0
DA:14106,1
DA:14107,1
DA:14112,0
DA:14113,0
DA:14114,0
DA:14115,0
DA:14118,0
DA:14119,0
DA:14120,0
DA:14122,0
DA:14123,0
DA:14124,0
DA:14126,0
DA:14127,0
DA:14130,0
DA:14131,0
DA:14132,0
DA:14133,0
DA:14135,0
DA:14138,0
DA:14139,0
DA:14141,0
DA:14142,0
DA:14145,0
DA:14148,1
DA:14151,192
DA:14152,0
DA:14155,0
DA:14156,0
DA:14159,1
DA:14160,1
DA:14161,193
DA:14162,192
DA:14163,192
DA:14168,1
DA:14170,0
DA:14171,0
DA:14172,0
DA:14173,0
DA:14174,0
DA:14175,0
DA:14176,0
DA:14179,0
DA:14181,1
DA:14182,1
DA:14185,192
DA:14186,384
DA:14187,192
DA:14188,0
DA:14189,0
DA:14190,0
DA:14192,192
DA:14195,0
DA:14196,0
DA:14198,1
DA:14199,1
DA:14200,1
DA:14202,1
DA:14203,1
DA:14204,1
DA:14206,1
DA:14210,192
DA:14212,1
DA:14213,1
DA:14214,0
DA:14216,192
DA:14217,192
DA:14218,192
DA:14220,0
DA:14221,0
DA:14222,0
DA:14223,0
DA:14224,0
DA:14226,192
DA:14247,6
DA:14249,6
DA:14250,0
DA:14252,0
DA:14254,1
DA:14255,2
DA:14256,1
DA:14257,1
DA:14258,1
DA:14261,0
DA:14262,0
DA:14263,0
DA:14264,0
DA:14265,0
DA:14267,1
DA:14268,1
DA:14269,1
DA:14270,0
DA:14271,1
DA:14272,1
DA:14273,0
DA:14275,2
DA:14276,2
DA:14278,6
DA:14279,3
DA:14281,6
DA:14282,6
DA:14283,0
DA:14285,6
DA:14288,6
DA:14289,6
DA:14291,6
DA:14292,6
DA:14294,0
DA:14295,0
DA:14297,1
DA:14298,1
DA:14300,0
DA:14301,0
DA:14304,5
DA:14305,5
DA:14306,5
DA:14308,5
DA:14309,5
DA:14310,0
DA:14311,0
DA:14312,0
DA:14313,0
DA:14314,5
DA:14315,5
DA:14316,0
DA:14317,5
DA:14319,3
DA:14320,3
DA:14321,3
DA:14324,9
DA:14325,9
DA:14326,5
DA:14327,5
DA:14328,4
DA:14330,9
DA:14332,3
DA:14333,0
DA:14335,5
DA:14336,5
DA:14337,5
DA:14338,5
DA:14339,5
DA:14340,0
DA:14342,1
DA:14345,1
DA:14346,0
DA:14348,1
DA:14352,1
DA:14353,1
DA:14354,1
DA:14355,0
DA:14356,0
DA:14357,0
DA:14360,0
DA:14361,0
DA:14362,0
DA:14363,0
DA:14365,0
DA:14366,0
DA:14368,2
DA:14369,1
DA:14370,1
DA:14371,0
DA:14372,0
DA:14373,0
DA:14374,0
DA:14375,0
DA:14376,0
DA:14377,0
DA:14378,0
DA:14379,0
DA:14380,0
DA:14382,1
DA:14383,1
DA:14384,1
DA:14385,0
DA:14386,5
DA:14387,3
DA:14388,0
DA:14390,3
DA:14392,3
DA:14394,3
DA:14395,5
DA:14396,3
DA:14398,2
DA:14399,2
DA:14401,3
DA:14403,3
DA:14404,3
DA:14406,3
DA:14407,0
DA:14408,3
DA:14409,3
DA:14411,3
DA:14414,3
DA:14416,2
DA:14417,4
DA:14419,2
DA:14420,2
DA:14421,0
DA:14422,0
DA:14423,0
DA:14426,2
DA:14427,6
DA:14429,2
DA:14430,2
DA:14431,4
DA:14434,2
DA:14435,2
DA:14436,2
DA:14437,2
DA:14439,1
DA:14440,1
DA:14441,0
DA:14442,0
DA:14443,0
DA:14444,0
DA:14446,1
DA:14447,2
DA:14448,2
DA:14449,0
DA:14450,2
DA:14468,192
DA:14469,192
DA:14472,192
DA:14474,192
DA:14475,192
DA:14476,192
DA:14477,192
DA:14478,384
DA:14480,192
DA:14482,192
DA:14483,0
DA:14485,0
DA:14487,192
DA:14489,0
DA:14501,5
DA:14502,0
DA:14503,0
DA:14505,0
DA:14507,5
DA:14508,5
DA:14511,1
DA:14513,1
DA:14514,1
DA:14516,192
DA:14517,192
DA:14520,2
DA:14522,2
DA:14523,2
DA:14525,2
DA:14526,4
DA:14527,2
DA:14528,2
DA:14531,2
DA:14533,2
DA:14534,2
DA:14536,2
DA:14537,2
DA:14540,192
DA:14541,194
DA:14544,1
DA:14545,1
DA:14546,4
DA:14547,6
DA:14548,1
DA:14551,1
DA:14552,0
DA:14555,0
DA:14556,0
DA:14559,1
DA:14561,1
DA:14562,2
DA:14563,1
DA:14564,193
DA:14565,193
DA:14566,1
DA:14567,2
DA:14568,1
DA:14569,1
DA:14572,2
DA:14573,2
DA:14582,1
DA:14584,3
DA:14585,3
DA:14586,3
DA:14587,3
DA:14588,3
DA:14589,3
DA:14590,3
DA:14591,3
DA:14593,38
DA:14595,35
DA:14596,0
DA:14597,0
DA:14599,3
DA:14600,3
DA:14602,1
DA:14603,1
DA:14604,1
DA:14606,35
DA:14607,35
DA:14608,0
DA:14609,0
DA:14610,0
DA:14611,35
DA:14612,0
DA:14615,35
DA:14616,5
DA:14617,45
DA:14620,12
DA:14621,12
DA:14622,12
DA:14623,0
DA:14624,0
DA:14625,0
DA:14626,0
DA:14627,18
DA:14628,18
DA:14629,18
DA:14630,18
DA:14635,33
DA:14636,33
DA:14637,29
DA:14638,29
DA:14644,5
DA:14645,5
DA:14648,2
DA:14649,2
DA:14650,2
DA:14651,2
DA:14652,2
DA:14653,2
DA:14654,0
DA:14655,0
DA:14656,0
DA:14657,1
DA:14658,1
DA:14659,1
DA:14662,12
DA:14663,12
DA:14664,0
DA:14665,0
DA:14667,0
DA:14668,12
DA:14670,12
DA:14671,18
DA:14672,18
DA:14674,2
DA:14675,2
DA:14676,2
DA:14678,5
DA:14679,3
DA:14680,0
DA:14681,5
DA:14682,5
DA:14683,1
DA:14684,1
DA:14685,1
DA:14686,2
DA:14687,2
DA:14688,0
DA:14689,5
DA:14691,2
DA:14692,2
DA:14693,2
DA:14696,0
DA:14697,0
DA:14698,0
DA:14699,0
DA:14700,0
DA:14701,51
DA:14702,51
DA:14705,2
DA:14706,2
DA:14707,13
DA:14708,13
DA:14709,0
DA:14710,0
DA:14711,0
DA:14712,0
DA:14713,36
DA:14714,36
DA:14718,1
DA:14719,1
DA:14720,1
DA:14721,1
DA:14723,1
DA:14725,0
DA:14726,0
DA:14727,0
DA:14729,0
DA:14730,0
DA:14731,0
DA:14733,0
DA:14734,0
DA:14736,0
DA:14737,0
DA:14738,0
DA:14739,0
DA:14740,0
DA:14741,0
DA:14743,0
DA:14744,0
DA:14745,0
DA:14748,3
DA:14749,3
DA:14750,3
DA:14751,0
DA:14752,3
DA:14753,3
DA:14754,0
DA:14755,0
DA:14758,3
DA:14759,3
DA:14761,3
DA:14764,1
DA:14765,1
DA:14767,1
DA:14768,2
DA:14769,1
DA:14770,0
DA:14771,1
DA:14773,1
DA:14774,1
DA:14775,1
DA:14776,1
DA:14778,2
DA:14779,2
DA:14781,2
DA:14784,2
DA:14785,0
DA:14786,0
DA:14787,0
DA:14788,0
DA:14790,0
DA:14793,4
DA:14795,2
DA:14796,4
DA:14798,2
DA:14800,2
DA:14801,2
DA:14802,2
DA:14803,2
DA:14805,0
DA:14806,0
DA:14819,3
DA:14820,3
DA:14824,0
DA:14825,0
DA:14826,0
DA:14828,0
DA:14830,0
DA:14832,0
DA:14833,0
DA:14834,0
DA:14835,0
DA:14836,0
DA:14838,0
DA:14839,0
DA:14844,0
DA:14845,0
DA:14851,0
DA:14854,0
DA:14855,0
DA:14856,0
DA:14859,2
DA:14860,2
DA:14861,0
DA:14862,1
DA:14863,0
DA:14865,1
DA:14866,0
DA:14868,0
DA:14869,0
DA:14871,1
DA:14872,1
DA:14905,0
DA:14906,0
DA:14909,0
DA:14910,0
DA:14915,0
DA:14917,0
DA:14918,0
DA:14919,0
DA:14920,0
DA:14923,0
DA:14924,0
DA:14925,0
DA:14926,0
DA:14927,0
DA:14928,0
DA:14933,0
DA:14934,0
DA:14935,0
DA:14938,0
DA:14939,0
DA:14941,0
DA:14942,0
DA:14951,0
DA:14960,0
DA:14961,0
DA:14962,0
DA:14965,0
DA:14966,0
DA:14967,0
DA:14968,0
DA:14969,0
DA:14971,0
DA:14972,0
DA:14974,0
DA:14975,0
DA:14979,0
DA:14980,0
DA:14989,0
DA:14990,0
DA:14991,0
DA:14993,0
DA:14996,0
DA:14997,0
DA:14998,0
DA:15000,0
DA:15005,0
DA:15006,0
DA:15007,0
DA:15008,0
DA:15009,0
DA:15011,0
DA:15020,0
DA:15021,0
DA:15022,0
DA:15024,0
DA:15027,0
DA:15028,0
DA:15029,0
DA:15031,0
DA:15043,0
DA:15044,0
DA:15046,0
DA:15047,0
DA:15049,0
DA:15050,0
DA:15051,0
DA:15052,0
DA:15053,0
DA:15055,0
DA:15058,0
DA:15059,0
DA:15061,0
DA:15062,0
DA:15064,0
DA:15065,0
DA:15066,0
DA:15067,0
DA:15068,0
DA:15070,0
DA:15073,0
DA:15074,0
DA:15077,0
DA:15078,0
DA:15079,0
DA:15080,0
DA:15081,0
DA:15082,0
DA:15083,0
DA:15084,0
DA:15085,0
DA:15086,0
DA:15087,0
DA:15089,0
DA:15090,0
DA:15091,0
DA:15094,0
DA:15095,0
DA:15097,0
DA:15098,0
DA:15101,0
DA:15102,0
DA:15107,0
DA:15108,0
DA:15113,0
DA:15114,0
DA:15117,0
DA:15118,0
DA:15119,0
DA:15120,0
DA:15121,0
DA:15122,0
DA:15135,1
DA:15136,1
DA:15137,1
DA:15138,1
DA:15139,1
DA:15140,1
DA:15143,0
DA:15144,0
DA:15145,0
DA:15146,0
DA:15147,0
DA:15150,1
DA:15151,1
DA:15153,0
DA:15154,0
DA:15156,0
DA:15157,0
DA:15160,0
DA:15161,0
DA:15162,0
DA:15163,0
DA:15164,0
DA:15167,0
DA:15168,0
DA:15169,0
DA:15170,0
DA:15173,0
DA:15174,0
DA:15175,0
DA:15176,0
DA:15177,0
DA:15178,0
DA:15180,0
DA:15181,0
DA:15226,1
DA:15232,1
DA:15243,0
DA:15248,0
DA:15253,0
DA:15254,0
DA:15256,0
DA:15257,0
DA:15258,0
DA:15259,0
DA:15261,0
DA:15262,0
DA:15263,0
DA:15265,0
DA:15268,0
DA:15269,0
DA:15270,0
DA:15279,1
DA:15280,1
DA:15282,1
DA:15284,1
DA:15285,0
DA:15286,0
DA:15288,1
DA:15289,0
DA:15290,0
DA:15292,1
DA:15294,192
DA:15295,192
DA:15296,192
DA:15297,357
DA:15298,0
DA:15299,0
DA:15300,0
DA:15301,0
DA:15302,0
DA:15303,0
DA:15304,0
DA:15305,0
DA:15309,193
DA:15310,386
DA:15323,0
DA:15324,0
DA:15327,0
DA:15330,0
DA:15333,0
DA:15336,0
DA:15337,0
DA:15338,0
DA:15340,0
DA:15341,0
DA:15343,0
DA:15344,0
DA:15346,0
DA:15349,0
DA:15350,0
DA:15351,0
DA:15352,0
DA:15353,0
DA:15354,0
DA:15355,0
DA:15357,0
DA:15358,0
DA:15361,0
DA:15362,0
DA:15367,0
DA:15368,0
DA:15371,0
DA:15374,0
DA:15375,0
DA:15378,0
DA:15381,0
DA:15383,0
DA:15384,0
DA:15386,0
DA:15390,0
DA:15391,0
DA:15392,0
DA:15393,0
DA:15394,0
DA:15396,0
DA:15398,0
DA:15399,0
DA:15401,0
DA:15404,0
DA:15405,0
DA:15406,0
DA:15408,0
DA:15411,0
DA:15416,0
DA:15417,0
DA:15418,0
DA:15422,0
DA:15423,0
DA:15433,0
DA:15435,0
DA:15436,0
DA:15439,0
DA:15441,0
DA:15442,0
DA:15443,0
DA:15448,0
DA:15449,0
DA:15450,0
DA:15451,0
DA:15452,0
DA:15453,0
DA:15456,0
DA:15458,0
DA:15460,0
DA:15461,0
DA:15462,0
DA:15466,0
DA:15467,0
DA:15471,0
DA:15472,0
DA:15478,0
DA:15480,0
DA:15481,0
DA:15482,0
DA:15485,0
DA:15487,0
DA:15488,0
DA:15490,0
DA:15491,0
DA:15492,0
DA:15494,0
DA:15495,0
DA:15496,0
DA:15497,0
DA:15498,0
DA:15499,0
DA:15501,0
DA:15502,0
DA:15503,0
DA:15504,0
DA:15505,0
DA:15508,0
DA:15509,0
DA:15510,0
DA:15512,0
DA:15514,0
DA:15515,0
DA:15516,0
DA:15519,0
DA:15521,0
DA:15522,0
DA:15524,0
DA:15525,0
DA:15526,0
DA:15528,0
DA:15529,0
DA:15531,0
DA:15532,0
DA:15533,0
DA:15534,0
DA:15535,0
DA:15536,0
DA:15538,0
DA:15539,0
DA:15540,0
DA:15541,0
DA:15542,0
DA:15545,0
DA:15546,0
DA:15547,0
DA:15548,0
DA:15551,0
DA:15552,0
DA:15554,0
DA:15555,0
DA:15556,0
DA:15558,0
DA:15559,0
DA:15560,0
DA:15562,0
DA:15564,0
DA:15565,0
DA:15566,0
DA:15567,0
DA:15570,0
DA:15571,0
DA:15572,0
DA:15573,0
DA:15576,0
DA:15577,0
DA:15578,0
DA:15581,0
DA:15582,0
DA:15583,0
DA:15584,0
DA:15585,0
DA:15586,0
DA:15588,0
DA:15589,0
DA:15591,0
DA:15594,0
DA:15595,0
DA:15596,0
DA:15597,0
DA:15599,0
DA:15600,0
DA:15601,0
DA:15604,0
DA:15605,0
DA:15606,0
DA:15608,0
DA:15609,0
DA:15610,0
DA:15611,0
DA:15614,0
DA:15615,0
DA:15616,0
DA:15617,0
DA:15618,0
DA:15620,0
DA:15622,0
DA:15623,0
DA:15624,0
DA:15626,0
DA:15627,0
DA:15628,0
DA:15630,0
DA:15631,0
DA:15632,0
DA:15633,0
DA:15635,0
DA:15647,0
DA:15648,0
DA:15649,0
DA:15653,0
DA:15658,0
DA:15659,0
DA:15662,0
DA:15666,0
DA:15668,0
DA:15671,1
DA:15672,1
DA:15675,1
DA:15678,1
DA:15679,1
DA:15682,1
DA:15683,1
DA:15684,1
DA:15685,4
DA:15687,3
DA:15688,2
DA:15692,6
DA:15694,2
DA:15697,0
DA:15698,0
DA:15700,0
DA:15701,0
DA:15704,0
DA:15706,0
DA:15707,0
DA:15720,0
DA:15721,0
DA:15725,0
DA:15727,0
DA:15728,0
DA:15729,0
DA:15742,0
DA:15743,0
DA:15744,0
DA:15745,0
DA:15746,0
DA:15747,0
DA:15748,0
DA:15749,0
DA:15750,0
DA:15751,0
DA:15752,0
DA:15753,0
DA:15754,0
DA:15755,0
DA:15756,0
DA:15757,0
DA:15758,0
DA:15759,0
DA:15760,0
DA:15761,0
DA:15762,0
DA:15763,0
DA:15764,0
DA:15766,0
DA:15767,0
DA:15768,0
DA:15769,0
DA:15770,0
DA:15772,0
DA:15775,0
DA:15779,0
DA:15780,0
DA:15781,0
DA:15782,0
DA:15783,0
DA:15784,0
DA:15786,0
DA:15787,0
DA:15789,0
DA:15791,0
DA:15792,0
DA:15793,0
DA:15794,0
DA:15795,0
DA:15796,0
DA:15797,0
DA:15799,0
DA:15801,0
DA:15802,0
DA:15803,0
DA:15805,0
DA:15806,0
DA:15807,0
DA:15808,0
DA:15809,0
DA:15810,0
DA:15811,0
DA:15812,0
DA:15813,0
DA:15814,0
DA:15815,0
DA:15816,0
DA:15817,0
DA:15818,0
DA:15819,0
DA:15820,0
DA:15821,0
DA:15822,0
DA:15823,0
DA:15824,0
DA:15825,0
DA:15826,0
DA:15827,0
DA:15828,0
DA:15829,0
DA:15830,0
DA:15831,0
DA:15832,0
DA:15833,0
DA:15834,0
DA:15835,0
DA:15836,0
DA:15837,0
DA:15838,0
DA:15839,0
DA:15840,0
DA:15841,0
DA:15842,0
DA:15843,0
DA:15844,0
DA:15846,0
DA:15847,0
DA:15848,0
DA:15849,0
DA:15850,0
DA:15852,0
DA:15855,0
DA:15856,0
DA:15857,0
DA:15858,0
DA:15860,0
DA:15861,0
DA:15862,0
DA:15863,0
DA:15864,0
DA:15866,0
DA:15868,0
DA:15870,0
DA:15871,0
DA:15872,0
DA:15874,0
DA:15875,0
DA:15876,0
DA:15877,0
DA:15878,0
DA:15879,0
DA:15881,0
DA:15883,0
DA:15885,0
DA:15886,0
DA:15887,0
DA:15889,0
DA:15891,0
DA:15892,0
DA:15893,0
DA:15894,0
DA:15895,0
DA:15897,0
DA:15899,0
DA:15901,0
DA:15902,0
DA:15903,0
DA:15904,0
DA:15906,0
DA:15908,0
DA:15909,0
DA:15910,0
DA:15912,0
DA:15913,0
DA:15915,0
DA:15916,0
DA:15917,0
DA:15920,0
DA:15922,0
DA:15923,0
DA:15924,0
DA:15925,0
DA:15926,0
DA:15928,0
DA:15930,0
DA:15944,0
DA:15945,0
DA:15948,0
DA:15949,0
DA:15950,0
DA:15952,0
DA:15954,0
DA:15955,0
DA:15957,0
DA:15960,0
DA:15961,0
DA:15966,0
DA:15967,0
DA:15969,0
DA:15970,0
DA:15973,0
DA:15974,0
DA:15975,0
DA:15976,0
DA:15978,0
DA:15980,0
DA:15981,0
DA:15982,0
DA:15983,0
DA:15984,0
DA:15986,0
DA:16018,0
DA:16019,0
DA:16021,0
DA:16023,0
DA:16024,0
DA:16025,0
DA:16026,0
DA:16027,0
DA:16028,0
DA:16029,0
DA:16031,0
DA:16032,0
DA:16033,0
DA:16034,0
DA:16036,0
DA:16037,0
DA:16038,0
DA:16039,0
DA:16041,0
DA:16042,0
DA:16044,0
DA:16045,0
DA:16046,0
DA:16047,0
DA:16049,0
DA:16050,0
DA:16051,0
DA:16052,0
DA:16053,0
DA:16054,0
DA:16055,0
DA:16056,0
DA:16058,0
DA:16059,0
DA:16060,0
DA:16061,0
DA:16063,0
DA:16064,0
DA:16065,0
DA:16066,0
DA:16068,0
DA:16069,0
DA:16071,0
DA:16072,0
DA:16074,0
DA:16075,0
DA:16076,0
DA:16077,0
DA:16078,0
DA:16079,0
DA:16080,0
DA:16083,0
DA:16084,0
DA:16085,0
DA:16086,0
DA:16087,0
DA:16088,0
DA:16090,0
DA:16092,0
DA:16093,0
DA:16094,0
DA:16095,0
DA:16096,0
DA:16097,0
DA:16099,0
DA:16101,0
DA:16102,0
DA:16105,0
DA:16106,0
DA:16107,0
DA:16108,0
DA:16110,0
DA:16111,0
DA:16112,0
DA:16113,0
DA:16114,0
DA:16115,0
DA:16116,0
DA:16118,0
DA:16119,0
DA:16120,0
DA:16121,0
DA:16122,0
DA:16123,0
DA:16125,0
DA:16126,0
DA:16127,0
DA:16128,0
DA:16129,0
DA:16131,0
DA:16132,0
DA:16134,0
DA:16135,0
DA:16136,0
DA:16137,0
DA:16138,0
DA:16151,0
DA:16152,0
DA:16153,0
DA:16156,0
DA:16157,0
DA:16159,0
DA:16162,0
DA:16165,8
DA:16247,0
DA:16255,1
DA:16256,1
DA:16257,1
DA:16279,3
DA:16280,3
DA:16281,0
DA:16282,0
DA:16283,0
DA:16285,3
DA:16315,0
DA:16316,0
DA:16317,0
DA:16318,0
DA:16320,0
DA:16324,1
DA:16326,1
DA:16327,1
DA:16328,3
DA:16330,0
DA:16335,0
DA:16339,1
DA:16344,5
DA:16346,1
DA:16347,0
DA:16349,0
DA:16350,0
DA:16353,0
DA:16354,0
DA:16355,0
DA:16357,0
DA:16358,0
DA:16359,0
DA:16361,0
DA:16363,0
DA:16364,0
DA:16366,0
DA:16369,0
DA:16372,0
DA:16374,0
DA:16375,0
DA:16376,0
DA:16377,0
DA:16380,2
DA:16381,2
DA:16382,2
DA:16383,2
DA:16384,2
DA:16385,1
DA:16386,1
DA:16387,1
DA:16388,0
DA:16389,0
DA:16390,0
DA:16391,0
DA:16393,0
DA:16394,0
DA:16396,1
DA:16397,1
DA:16398,0
DA:16400,1
DA:16401,0
DA:16403,1
DA:16404,1
DA:16454,0
DA:16455,0
DA:16456,0
DA:16457,0
DA:16458,0
DA:16459,0
DA:16460,0
DA:16461,0
DA:16462,0
DA:16463,0
DA:16464,0
DA:16466,0
DA:16467,0
DA:16468,0
DA:16469,0
DA:16470,0
DA:16471,0
DA:16472,0
DA:16473,0
DA:16474,1
DA:16475,1
DA:16476,1
DA:16477,1
DA:16479,0
DA:16481,0
DA:16482,0
DA:16483,0
DA:16485,0
DA:16487,0
DA:16488,0
DA:16489,0
DA:16490,0
DA:16492,0
DA:16493,0
DA:16494,0
DA:16496,0
DA:16497,0
DA:16498,0
DA:16499,0
DA:16500,0
DA:16501,0
DA:16502,0
DA:16504,0
DA:16505,0
DA:16507,0
DA:16508,0
DA:16509,0
DA:16510,0
DA:16511,0
DA:16512,0
DA:16514,0
DA:16515,0
DA:16516,0
DA:16517,0
DA:16519,0
DA:16520,0
DA:16522,0
DA:16523,0
DA:16524,0
DA:16525,0
DA:16526,0
DA:16529,0
DA:16531,0
DA:16532,0
DA:16533,0
DA:16534,0
DA:16535,0
DA:16537,0
DA:16538,0
DA:16539,0
DA:16540,0
DA:16541,0
DA:16542,0
DA:16543,0
DA:16544,0
DA:16545,0
DA:16547,0
DA:16551,0
DA:16552,0
DA:16553,0
DA:16554,0
DA:16557,0
DA:16558,0
DA:16560,0
DA:16562,0
DA:16563,0
DA:16564,0
DA:16565,0
DA:16566,0
DA:16567,0
DA:16568,0
DA:16569,0
DA:16570,0
DA:16571,0
DA:16572,0
DA:16573,0
DA:16575,0
DA:16576,0
DA:16585,0
DA:16586,0
DA:16587,0
DA:16588,0
DA:16589,0
DA:16590,0
DA:16591,0
DA:16592,0
DA:16593,0
DA:16596,0
DA:16597,0
DA:16598,0
DA:16599,0
DA:16600,0
DA:16601,0
DA:16602,0
DA:16603,0
DA:16604,0
DA:16605,0
DA:16606,0
DA:16607,0
DA:16608,0
DA:16610,0
DA:16611,0
DA:16613,0
DA:16614,0
DA:16615,0
DA:16616,0
DA:16617,0
DA:16618,0
DA:16619,0
DA:16620,0
DA:16622,0
DA:16623,0
DA:16624,0
DA:16625,0
DA:16626,0
DA:16629,0
DA:16630,0
DA:16632,0
DA:16633,0
DA:16634,0
DA:16635,0
DA:16636,0
DA:16637,0
DA:16638,0
DA:16639,0
DA:16640,0
DA:16642,0
DA:16643,0
DA:16644,0
DA:16645,0
DA:16647,0
DA:16649,0
DA:16651,0
DA:16652,0
DA:16653,0
DA:16654,0
DA:16655,0
DA:16657,1
DA:16658,1
DA:16659,1
DA:16660,3
DA:16662,1
DA:16686,0
DA:16689,0
DA:16690,0
DA:16691,0
DA:16697,0
DA:16698,0
DA:16701,0
DA:16702,0
DA:16707,0
DA:16709,0
DA:16712,0
DA:16713,0
DA:16715,0
DA:16716,0
DA:16717,0
DA:16718,0
DA:16722,0
DA:16724,0
DA:16726,0
DA:16727,0
DA:16728,0
DA:16730,0
DA:16732,0
DA:16733,0
DA:16736,0
DA:16738,0
DA:16739,0
DA:16740,0
DA:16741,0
DA:16743,0
DA:16744,0
DA:16745,0
DA:16746,0
DA:16747,0
DA:16748,0
DA:16749,0
DA:16751,0
DA:16752,0
DA:16753,0
DA:16755,0
DA:16756,0
DA:16757,0
DA:16758,0
DA:16761,0
DA:16762,0
DA:16763,0
DA:16764,0
DA:16765,0
DA:16767,0
DA:16768,0
DA:16769,0
DA:16770,0
DA:16771,0
DA:16773,0
DA:16774,0
DA:16775,0
DA:16777,0
DA:16778,0
DA:16780,0
DA:16781,0
DA:16782,0
DA:16783,0
DA:16784,0
DA:16785,0
DA:16786,0
DA:16787,0
DA:16789,0
DA:16790,0
DA:16793,0
DA:16794,0
DA:16795,0
DA:16796,0
DA:16797,0
DA:16798,0
DA:16800,0
DA:16801,0
DA:16802,0
DA:16803,0
DA:16808,0
DA:16809,0
DA:16811,0
DA:16812,0
DA:16813,0
DA:16815,0
DA:16816,0
DA:16820,0
DA:16821,0
DA:16823,0
DA:16825,0
DA:16826,0
DA:16827,0
DA:16828,0
DA:16831,0
DA:16832,0
DA:16834,0
DA:16835,0
DA:16837,0
DA:16840,0
DA:16841,0
DA:16842,0
DA:16844,0
DA:16845,0
DA:16846,0
DA:16847,0
DA:16848,0
DA:16849,0
DA:16850,0
DA:16853,0
DA:16854,0
DA:16856,0
DA:16861,0
DA:16863,0
DA:16865,0
DA:16866,0
DA:16867,0
DA:16868,0
DA:16870,0
DA:16871,0
DA:16872,0
DA:16874,0
DA:16875,0
DA:16877,0
DA:16878,0
DA:16879,0
DA:16880,0
DA:16882,0
DA:16883,0
DA:16884,0
DA:16885,0
DA:16886,0
DA:16887,0
DA:16888,0
DA:16889,0
DA:16891,0
DA:16892,0
DA:16893,0
DA:16894,0
DA:16898,0
DA:16899,0
DA:16900,0
DA:16901,0
DA:16902,0
DA:16903,0
DA:16904,0
DA:16908,0
DA:16910,0
DA:16911,0
DA:16913,0
DA:16914,0
DA:16915,0
DA:16916,0
DA:16917,0
DA:16918,0
DA:16919,0
DA:16921,0
DA:16922,0
DA:16923,0
DA:16926,0
DA:16929,0
DA:16930,0
DA:16931,0
DA:16932,0
DA:16933,0
DA:16935,0
DA:16936,0
DA:16938,0
DA:16950,0
DA:16952,0
DA:16953,0
DA:16955,0
DA:16956,0
DA:16957,0
DA:16959,0
DA:16960,0
DA:16961,0
DA:16962,0
DA:16963,0
DA:16965,0
DA:16966,0
DA:16969,0
DA:16970,0
DA:16973,0
DA:16974,0
DA:16975,0
DA:16977,0
DA:16978,0
DA:16980,0
DA:16981,0
DA:16982,0
DA:16984,0
DA:16985,0
DA:17015,0
DA:17016,0
DA:17017,0
DA:17019,0
DA:17020,0
DA:17022,0
DA:17023,0
DA:17024,0
DA:17026,0
DA:17027,0
DA:17029,0
DA:17030,0
DA:17031,0
DA:17033,0
DA:17034,0
DA:17036,0
DA:17037,0
DA:17038,0
DA:17040,0
DA:17041,0
DA:17043,0
DA:17044,0
DA:17045,0
DA:17047,0
DA:17048,0
DA:17051,0
DA:17052,0
DA:17053,0
DA:17055,0
DA:17058,0
DA:17059,0
DA:17060,0
DA:17062,0
DA:17063,0
DA:17065,0
DA:17066,0
DA:17067,0
DA:17069,0
DA:17070,0
DA:17072,0
DA:17073,0
DA:17074,0
DA:17076,0
DA:17077,0
DA:17079,0
DA:17080,0
DA:17081,0
DA:17083,0
DA:17084,0
DA:17086,0
DA:17087,0
DA:17088,0
DA:17090,0
DA:17091,0
DA:17093,0
DA:17094,0
DA:17109,0
DA:17111,0
DA:17113,0
DA:17114,0
DA:17115,0
DA:17117,0
DA:17119,0
DA:17120,0
DA:17123,0
DA:17124,0
DA:17127,0
DA:17128,0
DA:17129,0
DA:17130,0
DA:17131,0
DA:17133,0
DA:17134,0
DA:17135,0
DA:17137,0
DA:17138,0
DA:17139,0
DA:17140,0
DA:17141,0
DA:17142,0
DA:17143,0
DA:17144,0
DA:17145,0
DA:17146,0
DA:17147,0
DA:17148,0
DA:17149,0
DA:17150,0
DA:17152,0
DA:17153,0
DA:17154,0
DA:17155,0
DA:17156,0
DA:17158,0
DA:17159,0
DA:17160,0
DA:17161,0
DA:17162,0
DA:17163,0
DA:17165,0
DA:17167,0
DA:17168,0
DA:17169,0
DA:17170,0
DA:17172,0
DA:17173,0
DA:17174,0
DA:17175,0
DA:17176,0
DA:17177,0
DA:17178,0
DA:17180,0
DA:17182,0
DA:17184,0
DA:17186,0
DA:17188,0
DA:17190,0
DA:17192,0
DA:17193,0
DA:17194,0
DA:17195,0
DA:17196,0
DA:17197,0
DA:17198,0
DA:17204,0
DA:17208,0
DA:17209,0
DA:17210,0
DA:17211,0
DA:17213,0
DA:17215,0
DA:17216,0
DA:17217,0
DA:17218,0
DA:17222,0
DA:17223,0
DA:17224,0
DA:17225,0
DA:17226,0
DA:17227,0
DA:17228,0
DA:17229,0
DA:17230,0
DA:17231,0
DA:17232,0
DA:17233,0
DA:17234,0
DA:17235,0
DA:17236,0
DA:17237,0
DA:17238,0
DA:17242,0
DA:17243,0
DA:17244,0
DA:17245,0
DA:17246,0
DA:17247,0
DA:17252,0
DA:17253,0
DA:17258,0
DA:17259,0
DA:17260,0
DA:17261,0
DA:17262,0
DA:17263,0
DA:17264,0
DA:17266,0
DA:17267,0
DA:17269,0
DA:17271,0
DA:17273,0
DA:17274,0
DA:17275,0
DA:17276,0
DA:17278,0
DA:17279,0
DA:17281,0
DA:17282,0
DA:17283,0
DA:17284,0
DA:17286,0
DA:17287,0
DA:17289,0
DA:17290,0
DA:17292,0
DA:17293,0
DA:17294,0
DA:17295,0
DA:17296,0
DA:17297,0
DA:17298,0
DA:17299,0
DA:17300,0
DA:17301,0
DA:17303,0
DA:17304,0
DA:17305,0
DA:17306,0
DA:17307,0
DA:17308,0
DA:17309,0
DA:17310,0
DA:17311,0
DA:17312,0
DA:17313,0
DA:17314,0
LF:4690
LH:1289
end_of_record
TN:
SF:/root/mfem/tests/unit/fem/test_1d_bilininteg.cpp
FN:20,_ZN13bilininteg_1d2f1ERKN4mfem6VectorE
FN:21,_ZN13bilininteg_1d3df1ERKN4mfem6VectorE
FN:23,_ZN13bilininteg_1d2v1ERKN4mfem6VectorE
FN:24,_ZN13bilininteg_1d3dv1ERKN4mfem6VectorE
FN:26,_ZN13bilininteg_1d3vf1ERKN4mfem6VectorE
FN:27,_ZN13bilininteg_1d4vdf1ERKN4mfem6VectorE
FN:28,_ZN13bilininteg_1d4dvf1ERKN4mfem6VectorE
FN:30,_ZN13bilininteg_1d4ddf1ERKN4mfem6VectorE
FN:31,_ZN13bilininteg_1d5dvdf1ERKN4mfem6VectorE
FN:33,_ZN13bilininteg_1d11MapTypeNameB5cxx11EN4mfem13FiniteElement7MapTypeE
FN:50,_ZN13bilininteg_1dL29____C_A_T_C_H____T_E_S_T____0Ev
FN:298,_ZN13bilininteg_1dL30____C_A_T_C_H____T_E_S_T____16Ev
FN:409,_ZN13bilininteg_1dL30____C_A_T_C_H____T_E_S_T____25Ev
FN:584,_ZN13bilininteg_1dL30____C_A_T_C_H____T_E_S_T____35Ev
FNDA:0,_ZN13bilininteg_1d11MapTypeNameB5cxx11EN4mfem13FiniteElement7MapTypeE
FNDA:0,_ZN13bilininteg_1d2f1ERKN4mfem6VectorE
FNDA:0,_ZN13bilininteg_1d2v1ERKN4mfem6VectorE
FNDA:0,_ZN13bilininteg_1d3df1ERKN4mfem6VectorE
FNDA:0,_ZN13bilininteg_1d3dv1ERKN4mfem6VectorE
FNDA:0,_ZN13bilininteg_1d3vf1ERKN4mfem6VectorE
FNDA:0,_ZN13bilininteg_1d4ddf1ERKN4mfem6VectorE
FNDA:0,_ZN13bilininteg_1d4dvf1ERKN4mfem6VectorE
FNDA:0,_ZN13bilininteg_1d4vdf1ERKN4mfem6VectorE
FNDA:0,_ZN13bilininteg_1d5dvdf1ERKN4mfem6VectorE
FNDA:0,_ZN13bilininteg_1dL29____C_A_T_C_H____T_E_S_T____0Ev
FNDA:0,_ZN13bilininteg_1dL30____C_A_T_C_H____T_E_S_T____16Ev
FNDA:0,_ZN13bilininteg_1dL30____C_A_T_C_H____T_E_S_T____25Ev
FNDA:0,_ZN13bilininteg_1dL30____C_A_T_C_H____T_E_S_T____35Ev
FNF:14
FNH:0
DA:20,0
DA:21,0
DA:23,0
DA:24,0
DA:26,0
DA:27,0
DA:28,0
DA:30,0
DA:31,0
DA:33,0
DA:35,0
DA:37,0
DA:38,0
DA:39,0
DA:40,0
DA:41,0
DA:42,0
DA:43,0
DA:44,0
DA:45,0
DA:46,0
DA:50,0
DA:56,0
DA:57,0
DA:58,0
DA:60,0
DA:62,0
DA:63,0
DA:64,0
DA:66,0
DA:67,0
DA:68,0
DA:69,0
DA:71,0
DA:73,0
DA:74,0
DA:76,0
DA:78,0
DA:79,0
DA:81,0
DA:82,0
DA:84,0
DA:85,0
DA:86,0
DA:87,0
DA:89,0
DA:91,0
DA:93,0
DA:94,0
DA:95,0
DA:96,0
DA:97,0
DA:98,0
DA:100,0
DA:101,0
DA:103,0
DA:105,0
DA:106,0
DA:107,0
DA:108,0
DA:110,0
DA:111,0
DA:112,0
DA:114,0
DA:115,0
DA:116,0
DA:117,0
DA:118,0
DA:119,0
DA:121,0
DA:122,0
DA:124,0
DA:126,0
DA:127,0
DA:128,0
DA:129,0
DA:131,0
DA:132,0
DA:133,0
DA:137,0
DA:138,0
DA:139,0
DA:140,0
DA:141,0
DA:142,0
DA:144,0
DA:146,0
DA:148,0
DA:149,0
DA:150,0
DA:151,0
DA:152,0
DA:153,0
DA:155,0
DA:156,0
DA:158,0
DA:160,0
DA:161,0
DA:162,0
DA:163,0
DA:164,0
DA:165,0
DA:167,0
DA:168,0
DA:170,0
DA:174,0
DA:175,0
DA:177,0
DA:179,0
DA:180,0
DA:182,0
DA:183,0
DA:185,0
DA:187,0
DA:188,0
DA:190,0
DA:194,0
DA:195,0
DA:197,0
DA:198,0
DA:200,0
DA:201,0
DA:202,0
DA:203,0
DA:205,0
DA:207,0
DA:209,0
DA:210,0
DA:211,0
DA:212,0
DA:213,0
DA:214,0
DA:216,0
DA:217,0
DA:219,0
DA:221,0
DA:222,0
DA:223,0
DA:224,0
DA:225,0
DA:226,0
DA:228,0
DA:229,0
DA:231,0
DA:235,0
DA:238,0
DA:239,0
DA:240,0
DA:242,0
DA:243,0
DA:244,0
DA:245,0
DA:247,0
DA:249,0
DA:251,0
DA:252,0
DA:253,0
DA:254,0
DA:255,0
DA:256,0
DA:258,0
DA:259,0
DA:261,0
DA:263,0
DA:264,0
DA:265,0
DA:266,0
DA:268,0
DA:269,0
DA:270,0
DA:272,0
DA:273,0
DA:274,0
DA:275,0
DA:276,0
DA:277,0
DA:279,0
DA:280,0
DA:282,0
DA:284,0
DA:285,0
DA:286,0
DA:287,0
DA:289,0
DA:290,0
DA:291,0
DA:296,0
DA:298,0
DA:304,0
DA:305,0
DA:306,0
DA:308,0
DA:310,0
DA:311,0
DA:312,0
DA:313,0
DA:315,0
DA:316,0
DA:317,0
DA:318,0
DA:320,0
DA:322,0
DA:323,0
DA:325,0
DA:327,0
DA:328,0
DA:330,0
DA:331,0
DA:333,0
DA:334,0
DA:335,0
DA:336,0
DA:338,0
DA:340,0
DA:342,0
DA:343,0
DA:344,0
DA:345,0
DA:346,0
DA:347,0
DA:349,0
DA:350,0
DA:352,0
DA:354,0
DA:355,0
DA:356,0
DA:357,0
DA:358,0
DA:359,0
DA:360,0
DA:362,0
DA:363,0
DA:365,0
DA:369,0
DA:370,0
DA:371,0
DA:372,0
DA:373,0
DA:374,0
DA:376,0
DA:378,0
DA:380,0
DA:381,0
DA:382,0
DA:383,0
DA:384,0
DA:385,0
DA:387,0
DA:388,0
DA:390,0
DA:392,0
DA:393,0
DA:394,0
DA:395,0
DA:396,0
DA:397,0
DA:398,0
DA:400,0
DA:401,0
DA:403,0
DA:407,0
DA:409,0
DA:415,0
DA:416,0
DA:417,0
DA:419,0
DA:421,0
DA:422,0
DA:423,0
DA:424,0
DA:425,0
DA:427,0
DA:428,0
DA:429,0
DA:430,0
DA:432,0
DA:434,0
DA:435,0
DA:436,0
DA:437,0
DA:438,0
DA:439,0
DA:441,0
DA:443,0
DA:445,0
DA:446,0
DA:447,0
DA:448,0
DA:449,0
DA:450,0
DA:452,0
DA:453,0
DA:454,0
DA:456,0
DA:457,0
DA:459,0
DA:461,0
DA:462,0
DA:463,0
DA:464,0
DA:466,0
DA:467,0
DA:468,0
DA:470,0
DA:471,0
DA:472,0
DA:473,0
DA:474,0
DA:475,0
DA:476,0
DA:478,0
DA:479,0
DA:480,0
DA:482,0
DA:483,0
DA:485,0
DA:487,0
DA:488,0
DA:489,0
DA:490,0
DA:491,0
DA:493,0
DA:494,0
DA:495,0
DA:499,0
DA:500,0
DA:502,0
DA:504,0
DA:505,0
DA:507,0
DA:508,0
DA:510,0
DA:512,0
DA:514,0
DA:515,0
DA:516,0
DA:518,0
DA:519,0
DA:520,0
DA:521,0
DA:523,0
DA:525,0
DA:527,0
DA:528,0
DA:529,0
DA:530,0
DA:531,0
DA:532,0
DA:534,0
DA:535,0
DA:536,0
DA:538,0
DA:539,0
DA:541,0
DA:543,0
DA:544,0
DA:545,0
DA:546,0
DA:548,0
DA:549,0
DA:550,0
DA:552,0
DA:553,0
DA:554,0
DA:555,0
DA:556,0
DA:557,0
DA:558,0
DA:560,0
DA:561,0
DA:562,0
DA:564,0
DA:565,0
DA:567,0
DA:569,0
DA:570,0
DA:571,0
DA:572,0
DA:573,0
DA:575,0
DA:576,0
DA:577,0
DA:582,0
DA:584,0
DA:589,0
DA:590,0
DA:591,0
DA:593,0
DA:595,0
DA:596,0
DA:598,0
DA:599,0
DA:600,0
DA:601,0
DA:603,0
DA:604,0
DA:605,0
DA:606,0
DA:607,0
DA:608,0
DA:610,0
DA:611,0
DA:613,0
DA:615,0
DA:616,0
DA:617,0
DA:618,0
DA:619,0
DA:620,0
DA:622,0
DA:623,0
DA:624,0
DA:625,0
DA:627,0
DA:628,0
DA:630,0
DA:632,0
DA:633,0
DA:634,0
DA:635,0
DA:636,0
DA:637,0
DA:639,0
DA:640,0
DA:641,0
DA:642,0
DA:644,0
DA:645,0
DA:647,0
DA:649,0
LF:430
LH:0
end_of_record
TN:
SF:/root/mfem/tests/unit/fem/test_2d_bilininteg.cpp
FN:20,_ZN13bilininteg_2d2f2ERKN4mfem6VectorE
FN:21,_ZN13bilininteg_2d2F2ERKN4mfem6VectorERS1_
FN:28,_ZN13bilininteg_2d2q2ERKN4mfem6VectorE
FN:29,_ZN13bilininteg_2d2V2ERKN4mfem6VectorERS1_
FN:35,_ZN13bilininteg_2d2M2ERKN4mfem6VectorERNS0_11DenseMatrixE
FN:45,_ZN13bilininteg_2d3MT2ERKN4mfem6VectorERNS0_11DenseMatrixE
FN:50,_ZN13bilininteg_2d3qf2ERKN4mfem6VectorE
FN:51,_ZN13bilininteg_2d3qF2ERKN4mfem6VectorERS1_
FN:52,_ZN13bilininteg_2d3MF2ERKN4mfem6VectorERS1_
FN:58,_ZN13bilininteg_2d3DF2ERKN4mfem6VectorERS1_
FN:65,_ZN13bilininteg_2d7Grad_f2ERKN4mfem6VectorERS1_
FN:72,_ZN13bilininteg_2d8Curl_zf2ERKN4mfem6VectorERS1_
FN:80,_ZN13bilininteg_2d6CurlF2ERKN4mfem6VectorE
FN:81,_ZN13bilininteg_2d5DivF2ERKN4mfem6VectorE
FN:83,_ZN13bilininteg_2d8qGrad_f2ERKN4mfem6VectorERS1_
FN:88,_ZN13bilininteg_2d8DGrad_f2ERKN4mfem6VectorERS1_
FN:93,_ZN13bilininteg_2d8MGrad_f2ERKN4mfem6VectorERS1_
FN:100,_ZN13bilininteg_2d7qCurlF2ERKN4mfem6VectorE
FN:105,_ZN13bilininteg_2d6qDivF2ERKN4mfem6VectorE
FN:110,_ZN13bilininteg_2d3Vf2ERKN4mfem6VectorERS1_
FN:112,_ZN13bilininteg_2d6VdotF2ERKN4mfem6VectorE
FN:121,_ZN13bilininteg_2d11VdotGrad_f2ERKN4mfem6VectorE
FN:128,_ZN13bilininteg_2d9Vcross_f2ERKN4mfem6VectorERS1_
FN:135,_ZN13bilininteg_2d8VcrossF2ERKN4mfem6VectorE
FN:142,_ZN13bilininteg_2d13VcrossGrad_f2ERKN4mfem6VectorE
FN:149,_ZN13bilininteg_2d12VcrossCurlF2ERKN4mfem6VectorERS1_
FN:156,_ZN13bilininteg_2d6VDivF2ERKN4mfem6VectorERS1_
FN:161,_ZN13bilininteg_2d11MapTypeNameB5cxx11EN4mfem13FiniteElement7MapTypeE
FN:178,_ZN13bilininteg_2dL29____C_A_T_C_H____T_E_S_T____0Ev
FN:426,_ZN13bilininteg_2dL30____C_A_T_C_H____T_E_S_T____16Ev
FN:1047,_ZN13bilininteg_2dL30____C_A_T_C_H____T_E_S_T____40Ev
FN:1211,_ZN13bilininteg_2dL30____C_A_T_C_H____T_E_S_T____53Ev
FN:1325,_ZN13bilininteg_2dL30____C_A_T_C_H____T_E_S_T____62Ev
FN:1411,_ZN13bilininteg_2dL30____C_A_T_C_H____T_E_S_T____69Ev
FN:1525,_ZN13bilininteg_2dL30____C_A_T_C_H____T_E_S_T____78Ev
FN:1604,_ZN13bilininteg_2dL30____C_A_T_C_H____T_E_S_T____85Ev
FN:1811,_ZN13bilininteg_2dL30____C_A_T_C_H____T_E_S_T____97Ev
FN:1971,_ZN13bilininteg_2dL31____C_A_T_C_H____T_E_S_T____109Ev
FN:2182,_ZN13bilininteg_2dL31____C_A_T_C_H____T_E_S_T____121Ev
FN:2317,_ZN13bilininteg_2dL31____C_A_T_C_H____T_E_S_T____131Ev
FN:2452,_ZN13bilininteg_2dL31____C_A_T_C_H____T_E_S_T____141Ev
FN:2539,_ZN13bilininteg_2dL31____C_A_T_C_H____T_E_S_T____148Ev
FN:2628,_ZN13bilininteg_2dL31____C_A_T_C_H____T_E_S_T____156Ev
FN:2847,_ZN13bilininteg_2dL31____C_A_T_C_H____T_E_S_T____170Ev
FN:3007,_ZN13bilininteg_2dL31____C_A_T_C_H____T_E_S_T____182Ev
FN:3087,_ZN13bilininteg_2dL31____C_A_T_C_H____T_E_S_T____190Ev
FN:3166,_ZN13bilininteg_2dL31____C_A_T_C_H____T_E_S_T____197Ev
FNDA:0,_ZN13bilininteg_2d11MapTypeNameB5cxx11EN4mfem13FiniteElement7MapTypeE
FNDA:0,_ZN13bilininteg_2d11VdotGrad_f2ERKN4mfem6VectorE
FNDA:0,_ZN13bilininteg_2d12VcrossCurlF2ERKN4mfem6VectorERS1_
FNDA:0,_ZN13bilininteg_2d13VcrossGrad_f2ERKN4mfem6VectorE
FNDA:0,_ZN13bilininteg_2d2F2ERKN4mfem6VectorERS1_
FNDA:0,_ZN13bilininteg_2d2M2ERKN4mfem6VectorERNS0_11DenseMatrixE
FNDA:0,_ZN13bilininteg_2d2V2ERKN4mfem6VectorERS1_
FNDA:0,_ZN13bilininteg_2d2f2ERKN4mfem6VectorE
FNDA:0,_ZN13bilininteg_2d2q2ERKN4mfem6VectorE
FNDA:0,_ZN13bilininteg_2d3DF2ERKN4mfem6VectorERS1_
FNDA:0,_ZN13bilininteg_2d3MF2ERKN4mfem6VectorERS1_
FNDA:0,_ZN13bilininteg_2d3MT2ERKN4mfem6VectorERNS0_11DenseMatrixE
FNDA:0,_ZN13bilininteg_2d3Vf2ERKN4mfem6VectorERS1_
FNDA:0,_ZN13bilininteg_2d3qF2ERKN4mfem6VectorERS1_
FNDA:0,_ZN13bilininteg_2d3qf2ERKN4mfem6VectorE
FNDA:0,_ZN13bilininteg_2d5DivF2ERKN4mfem6VectorE
FNDA:0,_ZN13bilininteg_2d6CurlF2ERKN4mfem6VectorE
FNDA:0,_ZN13bilininteg_2d6VDivF2ERKN4mfem6VectorERS1_
FNDA:0,_ZN13bilininteg_2d6VdotF2ERKN4mfem6VectorE
FNDA:0,_ZN13bilininteg_2d6qDivF2ERKN4mfem6VectorE
FNDA:0,_ZN13bilininteg_2d7Grad_f2ERKN4mfem6VectorERS1_
FNDA:0,_ZN13bilininteg_2d7qCurlF2ERKN4mfem6VectorE
FNDA:0,_ZN13bilininteg_2d8Curl_zf2ERKN4mfem6VectorERS1_
FNDA:0,_ZN13bilininteg_2d8DGrad_f2ERKN4mfem6VectorERS1_
FNDA:0,_ZN13bilininteg_2d8MGrad_f2ERKN4mfem6VectorERS1_
FNDA:0,_ZN13bilininteg_2d8VcrossF2ERKN4mfem6VectorE
FNDA:0,_ZN13bilininteg_2d8qGrad_f2ERKN4mfem6VectorERS1_
FNDA:0,_ZN13bilininteg_2d9Vcross_f2ERKN4mfem6VectorERS1_
FNDA:0,_ZN13bilininteg_2dL29____C_A_T_C_H____T_E_S_T____0Ev
FNDA:0,_ZN13bilininteg_2dL30____C_A_T_C_H____T_E_S_T____16Ev
FNDA:0,_ZN13bilininteg_2dL30____C_A_T_C_H____T_E_S_T____40Ev
FNDA:0,_ZN13bilininteg_2dL30____C_A_T_C_H____T_E_S_T____53Ev
FNDA:0,_ZN13bilininteg_2dL30____C_A_T_C_H____T_E_S_T____62Ev
FNDA:0,_ZN13bilininteg_2dL30____C_A_T_C_H____T_E_S_T____69Ev
FNDA:0,_ZN13bilininteg_2dL30____C_A_T_C_H____T_E_S_T____78Ev
FNDA:0,_ZN13bilininteg_2dL30____C_A_T_C_H____T_E_S_T____85Ev
FNDA:0,_ZN13bilininteg_2dL30____C_A_T_C_H____T_E_S_T____97Ev
FNDA:0,_ZN13bilininteg_2dL31____C_A_T_C_H____T_E_S_T____109Ev
FNDA:0,_ZN13bilininteg_2dL31____C_A_T_C_H____T_E_S_T____121Ev
FNDA:0,_ZN13bilininteg_2dL31____C_A_T_C_H____T_E_S_T____131Ev
FNDA:0,_ZN13bilininteg_2dL31____C_A_T_C_H____T_E_S_T____141Ev
FNDA:0,_ZN13bilininteg_2dL31____C_A_T_C_H____T_E_S_T____148Ev
FNDA:0,_ZN13bilininteg_2dL31____C_A_T_C_H____T_E_S_T____156Ev
FNDA:0,_ZN13bilininteg_2dL31____C_A_T_C_H____T_E_S_T____170Ev
FNDA:0,_ZN13bilininteg_2dL31____C_A_T_C_H____T_E_S_T____182Ev
FNDA:0,_ZN13bilininteg_2dL31____C_A_T_C_H____T_E_S_T____190Ev
FNDA:0,_ZN13bilininteg_2dL31____C_A_T_C_H____T_E_S_T____197Ev
FNF:47
FNH:0
DA:20,0
DA:21,0
DA:23,0
DA:24,0
DA:25,0
DA:26,0
DA:28,0
DA:29,0
DA:31,0
DA:32,0
DA:33,0
DA:34,0
DA:35,0
DA:37,0
DA:39,0
DA:40,0
DA:42,0
DA:43,0
DA:44,0
DA:45,0
DA:47,0
DA:48,0
DA:50,0
DA:51,0
DA:52,0
DA:54,0
DA:55,0
DA:56,0
DA:57,0
DA:58,0
DA:60,0
DA:61,0
DA:62,0
DA:63,0
DA:65,0
DA:67,0
DA:68,0
DA:69,0
DA:70,0
DA:72,0
DA:74,0
DA:75,0
DA:76,0
DA:77,0
DA:78,0
DA:80,0
DA:81,0
DA:83,0
DA:85,0
DA:86,0
DA:87,0
DA:88,0
DA:90,0
DA:91,0
DA:92,0
DA:93,0
DA:95,0
DA:96,0
DA:97,0
DA:98,0
DA:100,0
DA:102,0
DA:105,0
DA:107,0
DA:110,0
DA:112,0
DA:114,0
DA:115,0
DA:116,0
DA:117,0
DA:118,0
DA:121,0
DA:123,0
DA:124,0
DA:125,0
DA:128,0
DA:130,0
DA:131,0
DA:132,0
DA:133,0
DA:135,0
DA:137,0
DA:138,0
DA:139,0
DA:142,0
DA:144,0
DA:145,0
DA:146,0
DA:149,0
DA:151,0
DA:152,0
DA:153,0
DA:154,0
DA:156,0
DA:158,0
DA:159,0
DA:161,0
DA:163,0
DA:165,0
DA:166,0
DA:167,0
DA:168,0
DA:169,0
DA:170,0
DA:171,0
DA:172,0
DA:173,0
DA:174,0
DA:178,0
DA:184,0
DA:185,0
DA:186,0
DA:188,0
DA:190,0
DA:191,0
DA:192,0
DA:194,0
DA:195,0
DA:196,0
DA:197,0
DA:199,0
DA:201,0
DA:202,0
DA:204,0
DA:206,0
DA:207,0
DA:209,0
DA:210,0
DA:212,0
DA:213,0
DA:214,0
DA:215,0
DA:217,0
DA:219,0
DA:221,0
DA:222,0
DA:223,0
DA:224,0
DA:225,0
DA:226,0
DA:228,0
DA:229,0
DA:231,0
DA:233,0
DA:234,0
DA:235,0
DA:236,0
DA:238,0
DA:239,0
DA:240,0
DA:242,0
DA:243,0
DA:244,0
DA:245,0
DA:246,0
DA:247,0
DA:249,0
DA:250,0
DA:252,0
DA:254,0
DA:255,0
DA:256,0
DA:257,0
DA:259,0
DA:260,0
DA:261,0
DA:265,0
DA:266,0
DA:267,0
DA:268,0
DA:269,0
DA:270,0
DA:272,0
DA:274,0
DA:276,0
DA:277,0
DA:278,0
DA:279,0
DA:280,0
DA:281,0
DA:283,0
DA:284,0
DA:286,0
DA:288,0
DA:289,0
DA:290,0
DA:291,0
DA:292,0
DA:293,0
DA:295,0
DA:296,0
DA:298,0
DA:302,0
DA:303,0
DA:305,0
DA:307,0
DA:308,0
DA:310,0
DA:311,0
DA:313,0
DA:315,0
DA:316,0
DA:318,0
DA:322,0
DA:323,0
DA:325,0
DA:326,0
DA:328,0
DA:329,0
DA:330,0
DA:331,0
DA:333,0
DA:335,0
DA:337,0
DA:338,0
DA:339,0
DA:340,0
DA:341,0
DA:342,0
DA:344,0
DA:345,0
DA:347,0
DA:349,0
DA:350,0
DA:351,0
DA:352,0
DA:353,0
DA:354,0
DA:356,0
DA:357,0
DA:359,0
DA:363,0
DA:366,0
DA:367,0
DA:368,0
DA:370,0
DA:371,0
DA:372,0
DA:373,0
DA:375,0
DA:377,0
DA:379,0
DA:380,0
DA:381,0
DA:382,0
DA:383,0
DA:384,0
DA:386,0
DA:387,0
DA:389,0
DA:391,0
DA:392,0
DA:393,0
DA:394,0
DA:396,0
DA:397,0
DA:398,0
DA:400,0
DA:401,0
DA:402,0
DA:403,0
DA:404,0
DA:405,0
DA:407,0
DA:408,0
DA:410,0
DA:412,0
DA:413,0
DA:414,0
DA:415,0
DA:417,0
DA:418,0
DA:419,0
DA:424,0
DA:426,0
DA:432,0
DA:433,0
DA:434,0
DA:436,0
DA:438,0
DA:439,0
DA:440,0
DA:441,0
DA:442,0
DA:443,0
DA:444,0
DA:445,0
DA:447,0
DA:448,0
DA:449,0
DA:450,0
DA:452,0
DA:454,0
DA:455,0
DA:456,0
DA:459,0
DA:460,0
DA:462,0
DA:463,0
DA:464,0
DA:465,0
DA:467,0
DA:469,0
DA:471,0
DA:472,0
DA:473,0
DA:474,0
DA:475,0
DA:476,0
DA:478,0
DA:479,0
DA:481,0
DA:483,0
DA:484,0
DA:485,0
DA:486,0
DA:488,0
DA:489,0
DA:491,0
DA:493,0
DA:494,0
DA:496,0
DA:497,0
DA:498,0
DA:499,0
DA:501,0
DA:503,0
DA:505,0
DA:508,0
DA:510,0
DA:511,0
DA:513,0
DA:514,0
DA:515,0
DA:516,0
DA:518,0
DA:520,0
DA:522,0
DA:523,0
DA:524,0
DA:525,0
DA:526,0
DA:527,0
DA:529,0
DA:530,0
DA:532,0
DA:534,0
DA:535,0
DA:536,0
DA:537,0
DA:539,0
DA:540,0
DA:542,0
DA:544,0
DA:545,0
DA:547,0
DA:548,0
DA:549,0
DA:550,0
DA:551,0
DA:552,0
DA:554,0
DA:555,0
DA:557,0
DA:559,0
DA:560,0
DA:561,0
DA:562,0
DA:563,0
DA:565,0
DA:566,0
DA:568,0
DA:570,0
DA:571,0
DA:573,0
DA:574,0
DA:575,0
DA:576,0
DA:577,0
DA:578,0
DA:580,0
DA:581,0
DA:583,0
DA:585,0
DA:586,0
DA:587,0
DA:588,0
DA:589,0
DA:591,0
DA:592,0
DA:594,0
DA:596,0
DA:597,0
DA:601,0
DA:602,0
DA:603,0
DA:606,0
DA:607,0
DA:608,0
DA:609,0
DA:611,0
DA:613,0
DA:615,0
DA:616,0
DA:617,0
DA:618,0
DA:619,0
DA:620,0
DA:622,0
DA:623,0
DA:625,0
DA:627,0
DA:628,0
DA:629,0
DA:630,0
DA:632,0
DA:633,0
DA:635,0
DA:637,0
DA:638,0
DA:640,0
DA:641,0
DA:642,0
DA:643,0
DA:645,0
DA:647,0
DA:649,0
DA:652,0
DA:654,0
DA:655,0
DA:657,0
DA:658,0
DA:659,0
DA:660,0
DA:662,0
DA:664,0
DA:666,0
DA:667,0
DA:668,0
DA:669,0
DA:670,0
DA:671,0
DA:673,0
DA:674,0
DA:676,0
DA:678,0
DA:679,0
DA:680,0
DA:681,0
DA:683,0
DA:684,0
DA:686,0
DA:688,0
DA:689,0
DA:691,0
DA:692,0
DA:693,0
DA:694,0
DA:695,0
DA:696,0
DA:698,0
DA:699,0
DA:701,0
DA:703,0
DA:704,0
DA:705,0
DA:706,0
DA:707,0
DA:709,0
DA:710,0
DA:712,0
DA:714,0
DA:715,0
DA:717,0
DA:718,0
DA:719,0
DA:720,0
DA:721,0
DA:722,0
DA:724,0
DA:725,0
DA:727,0
DA:729,0
DA:730,0
DA:731,0
DA:732,0
DA:733,0
DA:735,0
DA:736,0
DA:738,0
DA:740,0
DA:741,0
DA:746,0
DA:747,0
DA:748,0
DA:749,0
DA:751,0
DA:753,0
DA:754,0
DA:755,0
DA:758,0
DA:759,0
DA:761,0
DA:762,0
DA:763,0
DA:764,0
DA:766,0
DA:768,0
DA:770,0
DA:771,0
DA:772,0
DA:773,0
DA:774,0
DA:775,0
DA:777,0
DA:778,0
DA:780,0
DA:782,0
DA:783,0
DA:784,0
DA:785,0
DA:787,0
DA:788,0
DA:790,0
DA:792,0
DA:793,0
DA:795,0
DA:796,0
DA:797,0
DA:798,0
DA:800,0
DA:802,0
DA:804,0
DA:807,0
DA:809,0
DA:810,0
DA:812,0
DA:813,0
DA:814,0
DA:815,0
DA:817,0
DA:819,0
DA:821,0
DA:822,0
DA:823,0
DA:824,0
DA:825,0
DA:826,0
DA:828,0
DA:829,0
DA:831,0
DA:833,0
DA:834,0
DA:835,0
DA:836,0
DA:838,0
DA:839,0
DA:841,0
DA:843,0
DA:844,0
DA:846,0
DA:847,0
DA:848,0
DA:849,0
DA:850,0
DA:851,0
DA:853,0
DA:854,0
DA:856,0
DA:858,0
DA:859,0
DA:860,0
DA:861,0
DA:862,0
DA:864,0
DA:865,0
DA:867,0
DA:869,0
DA:870,0
DA:872,0
DA:873,0
DA:874,0
DA:875,0
DA:876,0
DA:877,0
DA:879,0
DA:880,0
DA:882,0
DA:884,0
DA:885,0
DA:886,0
DA:887,0
DA:888,0
DA:890,0
DA:891,0
DA:893,0
DA:895,0
DA:896,0
DA:900,0
DA:901,0
DA:902,0
DA:905,0
DA:906,0
DA:907,0
DA:908,0
DA:910,0
DA:912,0
DA:914,0
DA:915,0
DA:916,0
DA:917,0
DA:918,0
DA:919,0
DA:921,0
DA:922,0
DA:924,0
DA:926,0
DA:927,0
DA:928,0
DA:929,0
DA:931,0
DA:932,0
DA:934,0
DA:936,0
DA:937,0
DA:939,0
DA:940,0
DA:941,0
DA:942,0
DA:944,0
DA:946,0
DA:948,0
DA:951,0
DA:953,0
DA:954,0
DA:956,0
DA:957,0
DA:958,0
DA:959,0
DA:961,0
DA:963,0
DA:965,0
DA:966,0
DA:967,0
DA:968,0
DA:969,0
DA:970,0
DA:972,0
DA:973,0
DA:975,0
DA:977,0
DA:978,0
DA:979,0
DA:980,0
DA:982,0
DA:983,0
DA:985,0
DA:987,0
DA:988,0
DA:990,0
DA:991,0
DA:992,0
DA:993,0
DA:994,0
DA:995,0
DA:997,0
DA:998,0
DA:1000,0
DA:1002,0
DA:1003,0
DA:1004,0
DA:1005,0
DA:1006,0
DA:1008,0
DA:1009,0
DA:1011,0
DA:1013,0
DA:1014,0
DA:1016,0
DA:1017,0
DA:1018,0
DA:1019,0
DA:1020,0
DA:1021,0
DA:1023,0
DA:1024,0
DA:1026,0
DA:1028,0
DA:1029,0
DA:1030,0
DA:1031,0
DA:1032,0
DA:1034,0
DA:1035,0
DA:1037,0
DA:1039,0
DA:1040,0
DA:1045,0
DA:1047,0
DA:1053,0
DA:1054,0
DA:1055,0
DA:1057,0
DA:1059,0
DA:1060,0
DA:1061,0
DA:1062,0
DA:1063,0
DA:1064,0
DA:1065,0
DA:1066,0
DA:1068,0
DA:1069,0
DA:1070,0
DA:1071,0
DA:1073,0
DA:1075,0
DA:1076,0
DA:1077,0
DA:1078,0
DA:1080,0
DA:1081,0
DA:1082,0
DA:1083,0
DA:1085,0
DA:1087,0
DA:1089,0
DA:1090,0
DA:1091,0
DA:1092,0
DA:1093,0
DA:1094,0
DA:1095,0
DA:1097,0
DA:1098,0
DA:1100,0
DA:1102,0
DA:1103,0
DA:1104,0
DA:1105,0
DA:1106,0
DA:1107,0
DA:1108,0
DA:1110,0
DA:1111,0
DA:1113,0
DA:1115,0
DA:1116,0
DA:1117,0
DA:1118,0
DA:1119,0
DA:1120,0
DA:1121,0
DA:1123,0
DA:1124,0
DA:1126,0
DA:1128,0
DA:1129,0
DA:1130,0
DA:1131,0
DA:1132,0
DA:1133,0
DA:1134,0
DA:1136,0
DA:1137,0
DA:1139,0
DA:1142,0
DA:1143,0
DA:1144,0
DA:1145,0
DA:1147,0
DA:1148,0
DA:1149,0
DA:1150,0
DA:1152,0
DA:1154,0
DA:1156,0
DA:1157,0
DA:1158,0
DA:1159,0
DA:1160,0
DA:1161,0
DA:1163,0
DA:1164,0
DA:1166,0
DA:1168,0
DA:1169,0
DA:1170,0
DA:1171,0
DA:1172,0
DA:1173,0
DA:1174,0
DA:1176,0
DA:1177,0
DA:1179,0
DA:1181,0
DA:1182,0
DA:1183,0
DA:1184,0
DA:1185,0
DA:1186,0
DA:1187,0
DA:1189,0
DA:1190,0
DA:1192,0
DA:1194,0
DA:1195,0
DA:1196,0
DA:1197,0
DA:1198,0
DA:1199,0
DA:1200,0
DA:1202,0
DA:1203,0
DA:1205,0
DA:1209,0
DA:1211,0
DA:1217,0
DA:1218,0
DA:1219,0
DA:1221,0
DA:1223,0
DA:1224,0
DA:1225,0
DA:1226,0
DA:1228,0
DA:1229,0
DA:1230,0
DA:1231,0
DA:1233,0
DA:1235,0
DA:1236,0
DA:1238,0
DA:1240,0
DA:1241,0
DA:1243,0
DA:1244,0
DA:1246,0
DA:1247,0
DA:1248,0
DA:1249,0
DA:1251,0
DA:1253,0
DA:1255,0
DA:1256,0
DA:1257,0
DA:1258,0
DA:1259,0
DA:1260,0
DA:1262,0
DA:1263,0
DA:1265,0
DA:1267,0
DA:1268,0
DA:1269,0
DA:1270,0
DA:1271,0
DA:1272,0
DA:1273,0
DA:1275,0
DA:1276,0
DA:1278,0
DA:1282,0
DA:1283,0
DA:1284,0
DA:1285,0
DA:1287,0
DA:1288,0
DA:1289,0
DA:1290,0
DA:1292,0
DA:1294,0
DA:1296,0
DA:1297,0
DA:1298,0
DA:1299,0
DA:1300,0
DA:1301,0
DA:1303,0
DA:1304,0
DA:1306,0
DA:1308,0
DA:1309,0
DA:1310,0
DA:1311,0
DA:1312,0
DA:1313,0
DA:1314,0
DA:1316,0
DA:1317,0
DA:1319,0
DA:1323,0
DA:1325,0
DA:1331,0
DA:1332,0
DA:1333,0
DA:1335,0
DA:1337,0
DA:1338,0
DA:1339,0
DA:1341,0
DA:1342,0
DA:1343,0
DA:1344,0
DA:1346,0
DA:1348,0
DA:1349,0
DA:1351,0
DA:1353,0
DA:1354,0
DA:1356,0
DA:1357,0
DA:1359,0
DA:1360,0
DA:1361,0
DA:1362,0
DA:1364,0
DA:1366,0
DA:1368,0
DA:1369,0
DA:1370,0
DA:1371,0
DA:1372,0
DA:1373,0
DA:1374,0
DA:1376,0
DA:1377,0
DA:1379,0
DA:1383,0
DA:1384,0
DA:1385,0
DA:1386,0
DA:1387,0
DA:1388,0
DA:1390,0
DA:1392,0
DA:1394,0
DA:1395,0
DA:1396,0
DA:1397,0
DA:1398,0
DA:1399,0
DA:1400,0
DA:1402,0
DA:1403,0
DA:1405,0
DA:1409,0
DA:1411,0
DA:1417,0
DA:1418,0
DA:1419,0
DA:1421,0
DA:1423,0
DA:1424,0
DA:1425,0
DA:1426,0
DA:1428,0
DA:1429,0
DA:1430,0
DA:1431,0
DA:1433,0
DA:1435,0
DA:1436,0
DA:1438,0
DA:1440,0
DA:1441,0
DA:1443,0
DA:1444,0
DA:1446,0
DA:1447,0
DA:1448,0
DA:1449,0
DA:1451,0
DA:1453,0
DA:1455,0
DA:1456,0
DA:1457,0
DA:1458,0
DA:1459,0
DA:1460,0
DA:1462,0
DA:1463,0
DA:1465,0
DA:1467,0
DA:1468,0
DA:1469,0
DA:1470,0
DA:1471,0
DA:1472,0
DA:1473,0
DA:1475,0
DA:1476,0
DA:1478,0
DA:1482,0
DA:1483,0
DA:1484,0
DA:1485,0
DA:1487,0
DA:1488,0
DA:1489,0
DA:1490,0
DA:1492,0
DA:1494,0
DA:1496,0
DA:1497,0
DA:1498,0
DA:1499,0
DA:1500,0
DA:1501,0
DA:1503,0
DA:1504,0
DA:1506,0
DA:1508,0
DA:1509,0
DA:1510,0
DA:1511,0
DA:1512,0
DA:1513,0
DA:1514,0
DA:1516,0
DA:1517,0
DA:1519,0
DA:1523,0
DA:1525,0
DA:1531,0
DA:1532,0
DA:1533,0
DA:1535,0
DA:1537,0
DA:1538,0
DA:1539,0
DA:1541,0
DA:1542,0
DA:1543,0
DA:1544,0
DA:1546,0
DA:1548,0
DA:1549,0
DA:1550,0
DA:1551,0
DA:1552,0
DA:1553,0
DA:1555,0
DA:1557,0
DA:1559,0
DA:1560,0
DA:1561,0
DA:1562,0
DA:1563,0
DA:1564,0
DA:1565,0
DA:1567,0
DA:1568,0
DA:1570,0
DA:1573,0
DA:1574,0
DA:1575,0
DA:1576,0
DA:1578,0
DA:1579,0
DA:1580,0
DA:1581,0
DA:1583,0
DA:1585,0
DA:1587,0
DA:1588,0
DA:1589,0
DA:1590,0
DA:1591,0
DA:1592,0
DA:1593,0
DA:1595,0
DA:1596,0
DA:1598,0
DA:1602,0
DA:1604,0
DA:1610,0
DA:1611,0
DA:1612,0
DA:1614,0
DA:1616,0
DA:1617,0
DA:1618,0
DA:1620,0
DA:1621,0
DA:1622,0
DA:1623,0
DA:1625,0
DA:1627,0
DA:1628,0
DA:1629,0
DA:1630,0
DA:1632,0
DA:1633,0
DA:1634,0
DA:1635,0
DA:1637,0
DA:1639,0
DA:1641,0
DA:1642,0
DA:1643,0
DA:1644,0
DA:1645,0
DA:1646,0
DA:1648,0
DA:1649,0
DA:1651,0
DA:1653,0
DA:1654,0
DA:1655,0
DA:1656,0
DA:1657,0
DA:1659,0
DA:1660,0
DA:1662,0
DA:1664,0
DA:1665,0
DA:1668,0
DA:1669,0
DA:1670,0
DA:1671,0
DA:1673,0
DA:1674,0
DA:1675,0
DA:1676,0
DA:1678,0
DA:1680,0
DA:1682,0
DA:1683,0
DA:1684,0
DA:1685,0
DA:1686,0
DA:1687,0
DA:1689,0
DA:1690,0
DA:1692,0
DA:1694,0
DA:1695,0
DA:1696,0
DA:1697,0
DA:1698,0
DA:1700,0
DA:1701,0
DA:1703,0
DA:1705,0
DA:1706,0
DA:1710,0
DA:1711,0
DA:1713,0
DA:1715,0
DA:1716,0
DA:1718,0
DA:1719,0
DA:1721,0
DA:1723,0
DA:1725,0
DA:1726,0
DA:1727,0
DA:1729,0
DA:1730,0
DA:1731,0
DA:1732,0
DA:1734,0
DA:1736,0
DA:1738,0
DA:1739,0
DA:1740,0
DA:1741,0
DA:1742,0
DA:1743,0
DA:1745,0
DA:1746,0
DA:1748,0
DA:1750,0
DA:1751,0
DA:1752,0
DA:1753,0
DA:1754,0
DA:1756,0
DA:1757,0
DA:1759,0
DA:1761,0
DA:1762,0
DA:1765,0
DA:1767,0
DA:1768,0
DA:1769,0
DA:1771,0
DA:1772,0
DA:1773,0
DA:1774,0
DA:1776,0
DA:1778,0
DA:1780,0
DA:1781,0
DA:1782,0
DA:1783,0
DA:1784,0
DA:1785,0
DA:1787,0
DA:1788,0
DA:1790,0
DA:1792,0
DA:1793,0
DA:1794,0
DA:1795,0
DA:1796,0
DA:1798,0
DA:1799,0
DA:1801,0
DA:1803,0
DA:1804,0
DA:1809,0
DA:1811,0
DA:1817,0
DA:1818,0
DA:1819,0
DA:1821,0
DA:1823,0
DA:1824,0
DA:1825,0
DA:1827,0
DA:1828,0
DA:1829,0
DA:1830,0
DA:1832,0
DA:1834,0
DA:1835,0
DA:1836,0
DA:1837,0
DA:1839,0
DA:1840,0
DA:1841,0
DA:1842,0
DA:1844,0
DA:1846,0
DA:1848,0
DA:1849,0
DA:1850,0
DA:1851,0
DA:1852,0
DA:1853,0
DA:1854,0
DA:1856,0
DA:1857,0
DA:1859,0
DA:1862,0
DA:1863,0
DA:1865,0
DA:1867,0
DA:1868,0
DA:1870,0
DA:1871,0
DA:1873,0
DA:1874,0
DA:1875,0
DA:1876,0
DA:1878,0
DA:1880,0
DA:1882,0
DA:1883,0
DA:1884,0
DA:1885,0
DA:1886,0
DA:1887,0
DA:1888,0
DA:1890,0
DA:1891,0
DA:1893,0
DA:1898,0
DA:1899,0
DA:1900,0
DA:1901,0
DA:1903,0
DA:1905,0
DA:1906,0
DA:1907,0
DA:1908,0
DA:1910,0
DA:1911,0
DA:1912,0
DA:1913,0
DA:1915,0
DA:1917,0
DA:1919,0
DA:1920,0
DA:1921,0
DA:1922,0
DA:1923,0
DA:1924,0
DA:1925,0
DA:1927,0
DA:1928,0
DA:1930,0
DA:1933,0
DA:1934,0
DA:1936,0
DA:1938,0
DA:1939,0
DA:1941,0
DA:1942,0
DA:1944,0
DA:1945,0
DA:1946,0
DA:1947,0
DA:1949,0
DA:1951,0
DA:1953,0
DA:1954,0
DA:1955,0
DA:1956,0
DA:1957,0
DA:1958,0
DA:1959,0
DA:1961,0
DA:1962,0
DA:1964,0
DA:1969,0
DA:1971,0
DA:1977,0
DA:1978,0
DA:1979,0
DA:1981,0
DA:1983,0
DA:1984,0
DA:1985,0
DA:1987,0
DA:1988,0
DA:1989,0
DA:1990,0
DA:1992,0
DA:1994,0
DA:1995,0
DA:1996,0
DA:1997,0
DA:1999,0
DA:2000,0
DA:2001,0
DA:2002,0
DA:2004,0
DA:2006,0
DA:2008,0
DA:2009,0
DA:2010,0
DA:2011,0
DA:2012,0
DA:2013,0
DA:2014,0
DA:2016,0
DA:2017,0
DA:2019,0
DA:2021,0
DA:2022,0
DA:2023,0
DA:2024,0
DA:2025,0
DA:2027,0
DA:2028,0
DA:2030,0
DA:2032,0
DA:2033,0
DA:2036,0
DA:2037,0
DA:2038,0
DA:2039,0
DA:2041,0
DA:2042,0
DA:2043,0
DA:2044,0
DA:2046,0
DA:2048,0
DA:2050,0
DA:2051,0
DA:2052,0
DA:2053,0
DA:2054,0
DA:2055,0
DA:2056,0
DA:2058,0
DA:2059,0
DA:2061,0
DA:2063,0
DA:2064,0
DA:2065,0
DA:2066,0
DA:2067,0
DA:2069,0
DA:2070,0
DA:2072,0
DA:2074,0
DA:2075,0
DA:2079,0
DA:2080,0
DA:2082,0
DA:2084,0
DA:2085,0
DA:2087,0
DA:2088,0
DA:2090,0
DA:2092,0
DA:2094,0
DA:2095,0
DA:2096,0
DA:2098,0
DA:2099,0
DA:2100,0
DA:2101,0
DA:2103,0
DA:2105,0
DA:2107,0
DA:2108,0
DA:2109,0
DA:2110,0
DA:2111,0
DA:2112,0
DA:2113,0
DA:2115,0
DA:2116,0
DA:2118,0
DA:2120,0
DA:2121,0
DA:2122,0
DA:2123,0
DA:2124,0
DA:2126,0
DA:2127,0
DA:2129,0
DA:2131,0
DA:2132,0
DA:2135,0
DA:2137,0
DA:2138,0
DA:2139,0
DA:2141,0
DA:2142,0
DA:2143,0
DA:2144,0
DA:2146,0
DA:2148,0
DA:2150,0
DA:2151,0
DA:2152,0
DA:2153,0
DA:2154,0
DA:2155,0
DA:2156,0
DA:2158,0
DA:2159,0
DA:2161,0
DA:2163,0
DA:2164,0
DA:2165,0
DA:2166,0
DA:2167,0
DA:2169,0
DA:2170,0
DA:2172,0
DA:2174,0
DA:2175,0
DA:2180,0
DA:2182,0
DA:2188,0
DA:2189,0
DA:2191,0
DA:2193,0
DA:2195,0
DA:2196,0
DA:2197,0
DA:2198,0
DA:2200,0
DA:2201,0
DA:2202,0
DA:2203,0
DA:2205,0
DA:2206,0
DA:2207,0
DA:2208,0
DA:2209,0
DA:2210,0
DA:2211,0
DA:2213,0
DA:2214,0
DA:2215,0
DA:2216,0
DA:2217,0
DA:2219,0
DA:2220,0
DA:2222,0
DA:2224,0
DA:2225,0
DA:2227,0
DA:2228,0
DA:2229,0
DA:2230,0
DA:2231,0
DA:2232,0
DA:2233,0
DA:2235,0
DA:2236,0
DA:2237,0
DA:2238,0
DA:2239,0
DA:2241,0
DA:2242,0
DA:2244,0
DA:2246,0
DA:2247,0
DA:2251,0
DA:2252,0
DA:2254,0
DA:2256,0
DA:2257,0
DA:2259,0
DA:2260,0
DA:2262,0
DA:2264,0
DA:2265,0
DA:2266,0
DA:2268,0
DA:2269,0
DA:2270,0
DA:2271,0
DA:2272,0
DA:2273,0
DA:2274,0
DA:2276,0
DA:2277,0
DA:2278,0
DA:2279,0
DA:2280,0
DA:2282,0
DA:2283,0
DA:2285,0
DA:2287,0
DA:2288,0
DA:2290,0
DA:2291,0
DA:2292,0
DA:2293,0
DA:2294,0
DA:2295,0
DA:2296,0
DA:2298,0
DA:2299,0
DA:2300,0
DA:2301,0
DA:2302,0
DA:2304,0
DA:2305,0
DA:2307,0
DA:2309,0
DA:2310,0
DA:2315,0
DA:2317,0
DA:2323,0
DA:2324,0
DA:2326,0
DA:2328,0
DA:2330,0
DA:2331,0
DA:2332,0
DA:2333,0
DA:2335,0
DA:2336,0
DA:2337,0
DA:2338,0
DA:2340,0
DA:2341,0
DA:2342,0
DA:2343,0
DA:2344,0
DA:2345,0
DA:2346,0
DA:2348,0
DA:2349,0
DA:2350,0
DA:2351,0
DA:2352,0
DA:2354,0
DA:2355,0
DA:2357,0
DA:2359,0
DA:2360,0
DA:2362,0
DA:2363,0
DA:2364,0
DA:2365,0
DA:2366,0
DA:2367,0
DA:2368,0
DA:2370,0
DA:2371,0
DA:2372,0
DA:2373,0
DA:2374,0
DA:2376,0
DA:2377,0
DA:2379,0
DA:2381,0
DA:2382,0
DA:2386,0
DA:2387,0
DA:2389,0
DA:2391,0
DA:2392,0
DA:2394,0
DA:2395,0
DA:2397,0
DA:2399,0
DA:2400,0
DA:2401,0
DA:2403,0
DA:2404,0
DA:2405,0
DA:2406,0
DA:2407,0
DA:2408,0
DA:2409,0
DA:2411,0
DA:2412,0
DA:2413,0
DA:2414,0
DA:2415,0
DA:2417,0
DA:2418,0
DA:2420,0
DA:2422,0
DA:2423,0
DA:2425,0
DA:2426,0
DA:2427,0
DA:2428,0
DA:2429,0
DA:2430,0
DA:2431,0
DA:2433,0
DA:2434,0
DA:2435,0
DA:2436,0
DA:2437,0
DA:2439,0
DA:2440,0
DA:2442,0
DA:2444,0
DA:2445,0
DA:2450,0
DA:2452,0
DA:2458,0
DA:2459,0
DA:2460,0
DA:2462,0
DA:2464,0
DA:2465,0
DA:2466,0
DA:2468,0
DA:2469,0
DA:2470,0
DA:2471,0
DA:2473,0
DA:2475,0
DA:2476,0
DA:2477,0
DA:2478,0
DA:2479,0
DA:2480,0
DA:2482,0
DA:2484,0
DA:2486,0
DA:2487,0
DA:2488,0
DA:2489,0
DA:2490,0
DA:2491,0
DA:2492,0
DA:2494,0
DA:2495,0
DA:2497,0
DA:2500,0
DA:2501,0
DA:2503,0
DA:2505,0
DA:2506,0
DA:2508,0
DA:2509,0
DA:2511,0
DA:2512,0
DA:2513,0
DA:2514,0
DA:2516,0
DA:2518,0
DA:2520,0
DA:2521,0
DA:2522,0
DA:2523,0
DA:2524,0
DA:2525,0
DA:2526,0
DA:2528,0
DA:2529,0
DA:2531,0
DA:2536,0
DA:2539,0
DA:2545,0
DA:2546,0
DA:2548,0
DA:2550,0
DA:2552,0
DA:2553,0
DA:2554,0
DA:2555,0
DA:2557,0
DA:2558,0
DA:2559,0
DA:2560,0
DA:2561,0
DA:2562,0
DA:2563,0
DA:2564,0
DA:2565,0
DA:2567,0
DA:2568,0
DA:2569,0
DA:2570,0
DA:2571,0
DA:2573,0
DA:2574,0
DA:2576,0
DA:2578,0
DA:2579,0
DA:2583,0
DA:2584,0
DA:2586,0
DA:2588,0
DA:2589,0
DA:2591,0
DA:2592,0
DA:2594,0
DA:2596,0
DA:2597,0
DA:2598,0
DA:2600,0
DA:2601,0
DA:2602,0
DA:2603,0
DA:2604,0
DA:2605,0
DA:2606,0
DA:2608,0
DA:2609,0
DA:2610,0
DA:2611,0
DA:2612,0
DA:2614,0
DA:2615,0
DA:2617,0
DA:2619,0
DA:2620,0
DA:2625,0
DA:2628,0
DA:2634,0
DA:2635,0
DA:2637,0
DA:2639,0
DA:2640,0
DA:2641,0
DA:2642,0
DA:2644,0
DA:2645,0
DA:2646,0
DA:2647,0
DA:2649,0
DA:2650,0
DA:2651,0
DA:2652,0
DA:2654,0
DA:2655,0
DA:2656,0
DA:2657,0
DA:2658,0
DA:2659,0
DA:2660,0
DA:2662,0
DA:2663,0
DA:2664,0
DA:2665,0
DA:2666,0
DA:2668,0
DA:2669,0
DA:2671,0
DA:2673,0
DA:2674,0
DA:2676,0
DA:2677,0
DA:2678,0
DA:2679,0
DA:2680,0
DA:2681,0
DA:2682,0
DA:2684,0
DA:2685,0
DA:2686,0
DA:2687,0
DA:2688,0
DA:2690,0
DA:2691,0
DA:2693,0
DA:2695,0
DA:2696,0
DA:2698,0
DA:2699,0
DA:2700,0
DA:2701,0
DA:2702,0
DA:2703,0
DA:2704,0
DA:2706,0
DA:2707,0
DA:2708,0
DA:2709,0
DA:2710,0
DA:2712,0
DA:2713,0
DA:2715,0
DA:2717,0
DA:2718,0
DA:2720,0
DA:2721,0
DA:2722,0
DA:2723,0
DA:2724,0
DA:2725,0
DA:2726,0
DA:2728,0
DA:2729,0
DA:2730,0
DA:2731,0
DA:2732,0
DA:2734,0
DA:2735,0
DA:2737,0
DA:2739,0
DA:2740,0
DA:2744,0
DA:2745,0
DA:2746,0
DA:2747,0
DA:2749,0
DA:2750,0
DA:2751,0
DA:2752,0
DA:2754,0
DA:2755,0
DA:2756,0
DA:2757,0
DA:2758,0
DA:2759,0
DA:2760,0
DA:2762,0
DA:2763,0
DA:2764,0
DA:2765,0
DA:2766,0
DA:2768,0
DA:2769,0
DA:2771,0
DA:2773,0
DA:2774,0
DA:2776,0
DA:2777,0
DA:2778,0
DA:2779,0
DA:2780,0
DA:2781,0
DA:2782,0
DA:2784,0
DA:2785,0
DA:2786,0
DA:2787,0
DA:2788,0
DA:2790,0
DA:2791,0
DA:2793,0
DA:2795,0
DA:2796,0
DA:2798,0
DA:2799,0
DA:2800,0
DA:2801,0
DA:2802,0
DA:2803,0
DA:2804,0
DA:2806,0
DA:2807,0
DA:2808,0
DA:2809,0
DA:2810,0
DA:2812,0
DA:2813,0
DA:2815,0
DA:2817,0
DA:2818,0
DA:2820,0
DA:2821,0
DA:2822,0
DA:2823,0
DA:2824,0
DA:2825,0
DA:2826,0
DA:2828,0
DA:2829,0
DA:2830,0
DA:2831,0
DA:2832,0
DA:2834,0
DA:2835,0
DA:2837,0
DA:2839,0
DA:2840,0
DA:2844,0
DA:2847,0
DA:2853,0
DA:2854,0
DA:2855,0
DA:2857,0
DA:2859,0
DA:2860,0
DA:2861,0
DA:2863,0
DA:2864,0
DA:2865,0
DA:2866,0
DA:2868,0
DA:2870,0
DA:2871,0
DA:2872,0
DA:2873,0
DA:2875,0
DA:2876,0
DA:2877,0
DA:2878,0
DA:2880,0
DA:2882,0
DA:2884,0
DA:2885,0
DA:2886,0
DA:2887,0
DA:2888,0
DA:2889,0
DA:2890,0
DA:2892,0
DA:2893,0
DA:2895,0
DA:2898,0
DA:2899,0
DA:2901,0
DA:2903,0
DA:2904,0
DA:2906,0
DA:2907,0
DA:2909,0
DA:2910,0
DA:2911,0
DA:2912,0
DA:2914,0
DA:2916,0
DA:2918,0
DA:2919,0
DA:2920,0
DA:2921,0
DA:2922,0
DA:2923,0
DA:2924,0
DA:2926,0
DA:2927,0
DA:2929,0
DA:2934,0
DA:2935,0
DA:2936,0
DA:2937,0
DA:2939,0
DA:2941,0
DA:2942,0
DA:2943,0
DA:2944,0
DA:2946,0
DA:2947,0
DA:2948,0
DA:2949,0
DA:2951,0
DA:2953,0
DA:2955,0
DA:2956,0
DA:2957,0
DA:2958,0
DA:2959,0
DA:2960,0
DA:2961,0
DA:2963,0
DA:2964,0
DA:2966,0
DA:2969,0
DA:2970,0
DA:2972,0
DA:2974,0
DA:2975,0
DA:2977,0
DA:2978,0
DA:2980,0
DA:2981,0
DA:2982,0
DA:2983,0
DA:2985,0
DA:2987,0
DA:2989,0
DA:2990,0
DA:2991,0
DA:2992,0
DA:2993,0
DA:2994,0
DA:2995,0
DA:2997,0
DA:2998,0
DA:3000,0
DA:3005,0
DA:3007,0
DA:3013,0
DA:3014,0
DA:3016,0
DA:3018,0
DA:3020,0
DA:3021,0
DA:3022,0
DA:3023,0
DA:3025,0
DA:3026,0
DA:3027,0
DA:3028,0
DA:3030,0
DA:3031,0
DA:3032,0
DA:3033,0
DA:3034,0
DA:3035,0
DA:3036,0
DA:3038,0
DA:3039,0
DA:3040,0
DA:3041,0
DA:3042,0
DA:3044,0
DA:3045,0
DA:3047,0
DA:3049,0
DA:3050,0
DA:3054,0
DA:3055,0
DA:3056,0
DA:3057,0
DA:3059,0
DA:3060,0
DA:3061,0
DA:3062,0
DA:3063,0
DA:3064,0
DA:3065,0
DA:3066,0
DA:3067,0
DA:3069,0
DA:3070,0
DA:3071,0
DA:3072,0
DA:3073,0
DA:3075,0
DA:3076,0
DA:3078,0
DA:3080,0
DA:3081,0
DA:3085,0
DA:3087,0
DA:3093,0
DA:3094,0
DA:3095,0
DA:3097,0
DA:3099,0
DA:3100,0
DA:3101,0
DA:3103,0
DA:3104,0
DA:3105,0
DA:3106,0
DA:3108,0
DA:3110,0
DA:3111,0
DA:3112,0
DA:3113,0
DA:3115,0
DA:3116,0
DA:3117,0
DA:3118,0
DA:3120,0
DA:3122,0
DA:3124,0
DA:3125,0
DA:3126,0
DA:3127,0
DA:3128,0
DA:3129,0
DA:3130,0
DA:3132,0
DA:3133,0
DA:3135,0
DA:3138,0
DA:3139,0
DA:3140,0
DA:3141,0
DA:3142,0
DA:3143,0
DA:3145,0
DA:3147,0
DA:3149,0
DA:3150,0
DA:3151,0
DA:3152,0
DA:3153,0
DA:3154,0
DA:3155,0
DA:3157,0
DA:3158,0
DA:3160,0
DA:3164,0
DA:3166,0
DA:3172,0
DA:3173,0
DA:3175,0
DA:3177,0
DA:3179,0
DA:3180,0
DA:3181,0
DA:3182,0
DA:3184,0
DA:3185,0
DA:3186,0
DA:3187,0
DA:3188,0
DA:3189,0
DA:3190,0
DA:3191,0
DA:3192,0
DA:3194,0
DA:3195,0
DA:3196,0
DA:3197,0
DA:3198,0
DA:3200,0
DA:3201,0
DA:3203,0
DA:3205,0
DA:3206,0
DA:3210,0
DA:3211,0
DA:3212,0
DA:3213,0
DA:3215,0
DA:3216,0
DA:3217,0
DA:3218,0
DA:3220,0
DA:3221,0
DA:3222,0
DA:3223,0
DA:3224,0
DA:3225,0
DA:3226,0
DA:3228,0
DA:3229,0
DA:3230,0
DA:3231,0
DA:3232,0
DA:3234,0
DA:3235,0
DA:3237,0
DA:3239,0
DA:3240,0
DA:3244,0
LF:2184
LH:0
end_of_record
TN:
SF:/root/mfem/tests/unit/fem/test_3d_bilininteg.cpp
FN:20,_ZN13bilininteg_3d5zero3ERKN4mfem6VectorE
FN:21,_ZN13bilininteg_3d5Zero3ERKN4mfem6VectorERS1_
FN:23,_ZN13bilininteg_3d2f3ERKN4mfem6VectorE
FN:25,_ZN13bilininteg_3d2F3ERKN4mfem6VectorERS1_
FN:33,_ZN13bilininteg_3d2q3ERKN4mfem6VectorE
FN:36,_ZN13bilininteg_3d2V3ERKN4mfem6VectorERS1_
FN:43,_ZN13bilininteg_3d2M3ERKN4mfem6VectorERNS0_11DenseMatrixE
FN:59,_ZN13bilininteg_3d3MT3ERKN4mfem6VectorERNS0_11DenseMatrixE
FN:64,_ZN13bilininteg_3d3qf3ERKN4mfem6VectorE
FN:65,_ZN13bilininteg_3d3qF3ERKN4mfem6VectorERS1_
FN:66,_ZN13bilininteg_3d3MF3ERKN4mfem6VectorERS1_
FN:72,_ZN13bilininteg_3d3DF3ERKN4mfem6VectorERS1_
FN:79,_ZN13bilininteg_3d7Grad_f3ERKN4mfem6VectorERS1_
FN:86,_ZN13bilininteg_3d6CurlF3ERKN4mfem6VectorERS1_
FN:93,_ZN13bilininteg_3d5DivF3ERKN4mfem6VectorE
FN:96,_ZN13bilininteg_3d6CurlV3ERKN4mfem6VectorERS1_
FN:104,_ZN13bilininteg_3d8qGrad_f3ERKN4mfem6VectorERS1_
FN:108,_ZN13bilininteg_3d8DGrad_f3ERKN4mfem6VectorERS1_
FN:113,_ZN13bilininteg_3d8MGrad_f3ERKN4mfem6VectorERS1_
FN:120,_ZN13bilininteg_3d7qCurlF3ERKN4mfem6VectorERS1_
FN:124,_ZN13bilininteg_3d7DCurlF3ERKN4mfem6VectorERS1_
FN:129,_ZN13bilininteg_3d7MCurlF3ERKN4mfem6VectorERS1_
FN:136,_ZN13bilininteg_3d6qDivF3ERKN4mfem6VectorE
FN:141,_ZN13bilininteg_3d3Vf3ERKN4mfem6VectorERS1_
FN:146,_ZN13bilininteg_3d8VcrossF3ERKN4mfem6VectorERS1_
FN:156,_ZN13bilininteg_3d6VdotF3ERKN4mfem6VectorE
FN:163,_ZN13bilininteg_3d11VdotGrad_f3ERKN4mfem6VectorE
FN:170,_ZN13bilininteg_3d13VcrossGrad_f3ERKN4mfem6VectorERS1_
FN:180,_ZN13bilininteg_3d12VcrossCurlF3ERKN4mfem6VectorERS1_
FN:190,_ZN13bilininteg_3d6VDivF3ERKN4mfem6VectorERS1_
FN:195,_ZN13bilininteg_3d7Grad_q3ERKN4mfem6VectorERS1_
FN:203,_ZN13bilininteg_3d7Grad_V3ERKN4mfem6VectorERNS0_11DenseMatrixE
FN:211,_ZN13bilininteg_3d5DivV3ERKN4mfem6VectorE
FN:214,_ZN13bilininteg_3d7Grad_F3ERKN4mfem6VectorERNS0_11DenseMatrixE
FN:222,_ZN13bilininteg_3d7Grad_M3ERKN4mfem6VectorERNS0_11DenseTensorE
FN:238,_ZN13bilininteg_3d8Grad_qf3ERKN4mfem6VectorERS1_
FN:247,_ZN13bilininteg_3d10GradVdotF3ERKN4mfem6VectorERS1_
FN:261,_ZN13bilininteg_3d8Curl_qF3ERKN4mfem6VectorERS1_
FN:272,_ZN13bilininteg_3d7Div_qF3ERKN4mfem6VectorE
FN:279,_ZN13bilininteg_3d7Div_Vf3ERKN4mfem6VectorE
FN:286,_ZN13bilininteg_3d12Div_VcrossF3ERKN4mfem6VectorE
FN:295,_ZN13bilininteg_3d7Div_DF3ERKN4mfem6VectorE
FN:305,_ZN13bilininteg_3d7Div_MF3ERKN4mfem6VectorE
FN:320,_ZN13bilininteg_3d13Curl_VcrossF3ERKN4mfem6VectorERS1_
FN:341,_ZN13bilininteg_3d8Curl_DF3ERKN4mfem6VectorERS1_
FN:353,_ZN13bilininteg_3d8Curl_MF3ERKN4mfem6VectorERS1_
FN:374,_ZN13bilininteg_3d12Div_qGrad_f3ERKN4mfem6VectorE
FN:382,_ZN13bilininteg_3d17Div_VcrossGrad_f3ERKN4mfem6VectorE
FN:394,_ZN13bilininteg_3d12Div_DGrad_f3ERKN4mfem6VectorE
FN:403,_ZN13bilininteg_3d12Div_MGrad_f3ERKN4mfem6VectorE
FN:415,_ZN13bilininteg_3d12Curl_qCurlF3ERKN4mfem6VectorERS1_
FN:425,_ZN13bilininteg_3d18Curl_VcrossGrad_f3ERKN4mfem6VectorERS1_
FN:435,_ZN13bilininteg_3d17Curl_VcrossCurlF3ERKN4mfem6VectorERS1_
FN:445,_ZN13bilininteg_3d12Curl_DCurlF3ERKN4mfem6VectorERS1_
FN:456,_ZN13bilininteg_3d12Curl_MCurlF3ERKN4mfem6VectorERS1_
FN:476,_ZN13bilininteg_3d11Grad_qDivF3ERKN4mfem6VectorERS1_
FN:482,_ZN13bilininteg_3d15GradVdotGrad_f3ERKN4mfem6VectorERS1_
FN:490,_ZN13bilininteg_3d9DivVDivF3ERKN4mfem6VectorE
FN:495,_ZN13bilininteg_3d15DivVcrossCurlF3ERKN4mfem6VectorE
FN:503,_ZN13bilininteg_3d11MapTypeNameB5cxx11EN4mfem13FiniteElement7MapTypeE
FN:520,_ZN13bilininteg_3dL29____C_A_T_C_H____T_E_S_T____0Ev
FN:790,_ZN13bilininteg_3dL30____C_A_T_C_H____T_E_S_T____16Ev
FN:1875,_ZN13bilininteg_3dL30____C_A_T_C_H____T_E_S_T____56Ev
FN:2046,_ZN13bilininteg_3dL30____C_A_T_C_H____T_E_S_T____69Ev
FN:2211,_ZN13bilininteg_3dL30____C_A_T_C_H____T_E_S_T____82Ev
FN:2298,_ZN13bilininteg_3dL30____C_A_T_C_H____T_E_S_T____89Ev
FN:2382,_ZN13bilininteg_3dL30____C_A_T_C_H____T_E_S_T____96Ev
FN:2501,_ZN13bilininteg_3dL31____C_A_T_C_H____T_E_S_T____105Ev
FN:2585,_ZN13bilininteg_3dL31____C_A_T_C_H____T_E_S_T____112Ev
FN:2811,_ZN13bilininteg_3dL31____C_A_T_C_H____T_E_S_T____124Ev
FN:3028,_ZN13bilininteg_3dL31____C_A_T_C_H____T_E_S_T____136Ev
FN:3193,_ZN13bilininteg_3dL31____C_A_T_C_H____T_E_S_T____148Ev
FN:3284,_ZN13bilininteg_3dL31____C_A_T_C_H____T_E_S_T____155Ev
FN:3495,_ZN13bilininteg_3dL31____C_A_T_C_H____T_E_S_T____165Ev
FN:3639,_ZN13bilininteg_3dL31____C_A_T_C_H____T_E_S_T____173Ev
FN:3975,_ZN13bilininteg_3dL31____C_A_T_C_H____T_E_S_T____187Ev
FN:4308,_ZN13bilininteg_3dL31____C_A_T_C_H____T_E_S_T____201Ev
FN:4442,_ZN13bilininteg_3dL31____C_A_T_C_H____T_E_S_T____209Ev
FN:4575,_ZN13bilininteg_3dL31____C_A_T_C_H____T_E_S_T____217Ev
FN:4708,_ZN13bilininteg_3dL31____C_A_T_C_H____T_E_S_T____225Ev
FN:4835,_ZN13bilininteg_3dL31____C_A_T_C_H____T_E_S_T____233Ev
FN:4968,_ZN13bilininteg_3dL31____C_A_T_C_H____T_E_S_T____240Ev
FN:5136,_ZN13bilininteg_3dL31____C_A_T_C_H____T_E_S_T____248Ev
FN:5209,_ZN13bilininteg_3dL31____C_A_T_C_H____T_E_S_T____253Ev
FN:5291,_ZN13bilininteg_3dL31____C_A_T_C_H____T_E_S_T____258Ev
FN:5389,_ZN13bilininteg_3dL31____C_A_T_C_H____T_E_S_T____264Ev
FN:5555,_ZN13bilininteg_3dL31____C_A_T_C_H____T_E_S_T____272Ev
FN:5628,_ZN13bilininteg_3dL31____C_A_T_C_H____T_E_S_T____277Ev
FN:5709,_ZN13bilininteg_3dL31____C_A_T_C_H____T_E_S_T____282Ev
FNDA:0,_ZN13bilininteg_3d10GradVdotF3ERKN4mfem6VectorERS1_
FNDA:0,_ZN13bilininteg_3d11Grad_qDivF3ERKN4mfem6VectorERS1_
FNDA:0,_ZN13bilininteg_3d11MapTypeNameB5cxx11EN4mfem13FiniteElement7MapTypeE
FNDA:0,_ZN13bilininteg_3d11VdotGrad_f3ERKN4mfem6VectorE
FNDA:0,_ZN13bilininteg_3d12Curl_DCurlF3ERKN4mfem6VectorERS1_
FNDA:0,_ZN13bilininteg_3d12Curl_MCurlF3ERKN4mfem6VectorERS1_
FNDA:0,_ZN13bilininteg_3d12Curl_qCurlF3ERKN4mfem6VectorERS1_
FNDA:0,_ZN13bilininteg_3d12Div_DGrad_f3ERKN4mfem6VectorE
FNDA:0,_ZN13bilininteg_3d12Div_MGrad_f3ERKN4mfem6VectorE
FNDA:0,_ZN13bilininteg_3d12Div_VcrossF3ERKN4mfem6VectorE
FNDA:0,_ZN13bilininteg_3d12Div_qGrad_f3ERKN4mfem6VectorE
FNDA:0,_ZN13bilininteg_3d12VcrossCurlF3ERKN4mfem6VectorERS1_
FNDA:0,_ZN13bilininteg_3d13Curl_VcrossF3ERKN4mfem6VectorERS1_
FNDA:0,_ZN13bilininteg_3d13VcrossGrad_f3ERKN4mfem6VectorERS1_
FNDA:0,_ZN13bilininteg_3d15DivVcrossCurlF3ERKN4mfem6VectorE
FNDA:0,_ZN13bilininteg_3d15GradVdotGrad_f3ERKN4mfem6VectorERS1_
FNDA:0,_ZN13bilininteg_3d17Curl_VcrossCurlF3ERKN4mfem6VectorERS1_
FNDA:0,_ZN13bilininteg_3d17Div_VcrossGrad_f3ERKN4mfem6VectorE
FNDA:0,_ZN13bilininteg_3d18Curl_VcrossGrad_f3ERKN4mfem6VectorERS1_
FNDA:0,_ZN13bilininteg_3d2F3ERKN4mfem6VectorERS1_
FNDA:0,_ZN13bilininteg_3d2M3ERKN4mfem6VectorERNS0_11DenseMatrixE
FNDA:0,_ZN13bilininteg_3d2V3ERKN4mfem6VectorERS1_
FNDA:0,_ZN13bilininteg_3d2f3ERKN4mfem6VectorE
FNDA:0,_ZN13bilininteg_3d2q3ERKN4mfem6VectorE
FNDA:0,_ZN13bilininteg_3d3DF3ERKN4mfem6VectorERS1_
FNDA:0,_ZN13bilininteg_3d3MF3ERKN4mfem6VectorERS1_
FNDA:0,_ZN13bilininteg_3d3MT3ERKN4mfem6VectorERNS0_11DenseMatrixE
FNDA:0,_ZN13bilininteg_3d3Vf3ERKN4mfem6VectorERS1_
FNDA:0,_ZN13bilininteg_3d3qF3ERKN4mfem6VectorERS1_
FNDA:0,_ZN13bilininteg_3d3qf3ERKN4mfem6VectorE
FNDA:0,_ZN13bilininteg_3d5DivF3ERKN4mfem6VectorE
FNDA:0,_ZN13bilininteg_3d5DivV3ERKN4mfem6VectorE
FNDA:0,_ZN13bilininteg_3d5Zero3ERKN4mfem6VectorERS1_
FNDA:0,_ZN13bilininteg_3d5zero3ERKN4mfem6VectorE
FNDA:0,_ZN13bilininteg_3d6CurlF3ERKN4mfem6VectorERS1_
FNDA:0,_ZN13bilininteg_3d6CurlV3ERKN4mfem6VectorERS1_
FNDA:0,_ZN13bilininteg_3d6VDivF3ERKN4mfem6VectorERS1_
FNDA:0,_ZN13bilininteg_3d6VdotF3ERKN4mfem6VectorE
FNDA:0,_ZN13bilininteg_3d6qDivF3ERKN4mfem6VectorE
FNDA:0,_ZN13bilininteg_3d7DCurlF3ERKN4mfem6VectorERS1_
FNDA:0,_ZN13bilininteg_3d7Div_DF3ERKN4mfem6VectorE
FNDA:0,_ZN13bilininteg_3d7Div_MF3ERKN4mfem6VectorE
FNDA:0,_ZN13bilininteg_3d7Div_Vf3ERKN4mfem6VectorE
FNDA:0,_ZN13bilininteg_3d7Div_qF3ERKN4mfem6VectorE
FNDA:0,_ZN13bilininteg_3d7Grad_F3ERKN4mfem6VectorERNS0_11DenseMatrixE
FNDA:0,_ZN13bilininteg_3d7Grad_M3ERKN4mfem6VectorERNS0_11DenseTensorE
FNDA:0,_ZN13bilininteg_3d7Grad_V3ERKN4mfem6VectorERNS0_11DenseMatrixE
FNDA:0,_ZN13bilininteg_3d7Grad_f3ERKN4mfem6VectorERS1_
FNDA:0,_ZN13bilininteg_3d7Grad_q3ERKN4mfem6VectorERS1_
FNDA:0,_ZN13bilininteg_3d7MCurlF3ERKN4mfem6VectorERS1_
FNDA:0,_ZN13bilininteg_3d7qCurlF3ERKN4mfem6VectorERS1_
FNDA:0,_ZN13bilininteg_3d8Curl_DF3ERKN4mfem6VectorERS1_
FNDA:0,_ZN13bilininteg_3d8Curl_MF3ERKN4mfem6VectorERS1_
FNDA:0,_ZN13bilininteg_3d8Curl_qF3ERKN4mfem6VectorERS1_
FNDA:0,_ZN13bilininteg_3d8DGrad_f3ERKN4mfem6VectorERS1_
FNDA:0,_ZN13bilininteg_3d8Grad_qf3ERKN4mfem6VectorERS1_
FNDA:0,_ZN13bilininteg_3d8MGrad_f3ERKN4mfem6VectorERS1_
FNDA:0,_ZN13bilininteg_3d8VcrossF3ERKN4mfem6VectorERS1_
FNDA:0,_ZN13bilininteg_3d8qGrad_f3ERKN4mfem6VectorERS1_
FNDA:0,_ZN13bilininteg_3d9DivVDivF3ERKN4mfem6VectorE
FNDA:0,_ZN13bilininteg_3dL29____C_A_T_C_H____T_E_S_T____0Ev
FNDA:0,_ZN13bilininteg_3dL30____C_A_T_C_H____T_E_S_T____16Ev
FNDA:0,_ZN13bilininteg_3dL30____C_A_T_C_H____T_E_S_T____56Ev
FNDA:0,_ZN13bilininteg_3dL30____C_A_T_C_H____T_E_S_T____69Ev
FNDA:0,_ZN13bilininteg_3dL30____C_A_T_C_H____T_E_S_T____82Ev
FNDA:0,_ZN13bilininteg_3dL30____C_A_T_C_H____T_E_S_T____89Ev
FNDA:0,_ZN13bilininteg_3dL30____C_A_T_C_H____T_E_S_T____96Ev
FNDA:0,_ZN13bilininteg_3dL31____C_A_T_C_H____T_E_S_T____105Ev
FNDA:0,_ZN13bilininteg_3dL31____C_A_T_C_H____T_E_S_T____112Ev
FNDA:0,_ZN13bilininteg_3dL31____C_A_T_C_H____T_E_S_T____124Ev
FNDA:0,_ZN13bilininteg_3dL31____C_A_T_C_H____T_E_S_T____136Ev
FNDA:0,_ZN13bilininteg_3dL31____C_A_T_C_H____T_E_S_T____148Ev
FNDA:0,_ZN13bilininteg_3dL31____C_A_T_C_H____T_E_S_T____155Ev
FNDA:0,_ZN13bilininteg_3dL31____C_A_T_C_H____T_E_S_T____165Ev
FNDA:0,_ZN13bilininteg_3dL31____C_A_T_C_H____T_E_S_T____173Ev
FNDA:0,_ZN13bilininteg_3dL31____C_A_T_C_H____T_E_S_T____187Ev
FNDA:0,_ZN13bilininteg_3dL31____C_A_T_C_H____T_E_S_T____201Ev
FNDA:0,_ZN13bilininteg_3dL31____C_A_T_C_H____T_E_S_T____209Ev
FNDA:0,_ZN13bilininteg_3dL31____C_A_T_C_H____T_E_S_T____217Ev
FNDA:0,_ZN13bilininteg_3dL31____C_A_T_C_H____T_E_S_T____225Ev
FNDA:0,_ZN13bilininteg_3dL31____C_A_T_C_H____T_E_S_T____233Ev
FNDA:0,_ZN13bilininteg_3dL31____C_A_T_C_H____T_E_S_T____240Ev
FNDA:0,_ZN13bilininteg_3dL31____C_A_T_C_H____T_E_S_T____248Ev
FNDA:0,_ZN13bilininteg_3dL31____C_A_T_C_H____T_E_S_T____253Ev
FNDA:0,_ZN13bilininteg_3dL31____C_A_T_C_H____T_E_S_T____258Ev
FNDA:0,_ZN13bilininteg_3dL31____C_A_T_C_H____T_E_S_T____264Ev
FNDA:0,_ZN13bilininteg_3dL31____C_A_T_C_H____T_E_S_T____272Ev
FNDA:0,_ZN13bilininteg_3dL31____C_A_T_C_H____T_E_S_T____277Ev
FNDA:0,_ZN13bilininteg_3dL31____C_A_T_C_H____T_E_S_T____282Ev
FNF:89
FNH:0
DA:20,0
DA:21,0
DA:23,0
DA:24,0
DA:25,0
DA:27,0
DA:28,0
DA:29,0
DA:30,0
DA:31,0
DA:33,0
DA:34,0
DA:36,0
DA:38,0
DA:39,0
DA:40,0
DA:41,0
DA:42,0
DA:43,0
DA:45,0
DA:47,0
DA:48,0
DA:49,0
DA:51,0
DA:52,0
DA:53,0
DA:55,0
DA:56,0
DA:57,0
DA:58,0
DA:59,0
DA:61,0
DA:62,0
DA:64,0
DA:65,0
DA:66,0
DA:68,0
DA:69,0
DA:70,0
DA:71,0
DA:72,0
DA:74,0
DA:75,0
DA:76,0
DA:77,0
DA:79,0
DA:81,0
DA:82,0
DA:83,0
DA:84,0
DA:85,0
DA:86,0
DA:88,0
DA:89,0
DA:90,0
DA:91,0
DA:92,0
DA:93,0
DA:94,0
DA:96,0
DA:98,0
DA:99,0
DA:100,0
DA:101,0
DA:102,0
DA:104,0
DA:106,0
DA:107,0
DA:108,0
DA:110,0
DA:111,0
DA:112,0
DA:113,0
DA:115,0
DA:116,0
DA:117,0
DA:118,0
DA:120,0
DA:122,0
DA:123,0
DA:124,0
DA:126,0
DA:127,0
DA:128,0
DA:129,0
DA:131,0
DA:132,0
DA:133,0
DA:134,0
DA:136,0
DA:138,0
DA:141,0
DA:143,0
DA:144,0
DA:146,0
DA:148,0
DA:149,0
DA:150,0
DA:151,0
DA:152,0
DA:153,0
DA:154,0
DA:156,0
DA:158,0
DA:159,0
DA:160,0
DA:163,0
DA:165,0
DA:166,0
DA:167,0
DA:170,0
DA:172,0
DA:173,0
DA:174,0
DA:175,0
DA:176,0
DA:177,0
DA:178,0
DA:180,0
DA:182,0
DA:183,0
DA:184,0
DA:185,0
DA:186,0
DA:187,0
DA:188,0
DA:190,0
DA:192,0
DA:193,0
DA:195,0
DA:197,0
DA:198,0
DA:199,0
DA:200,0
DA:201,0
DA:203,0
DA:205,0
DA:206,0
DA:207,0
DA:208,0
DA:209,0
DA:211,0
DA:212,0
DA:214,0
DA:216,0
DA:217,0
DA:218,0
DA:219,0
DA:220,0
DA:222,0
DA:224,0
DA:225,0
DA:226,0
DA:227,0
DA:229,0
DA:230,0
DA:231,0
DA:233,0
DA:234,0
DA:235,0
DA:236,0
DA:238,0
DA:240,0
DA:241,0
DA:242,0
DA:243,0
DA:244,0
DA:247,0
DA:249,0
DA:250,0
DA:251,0
DA:252,0
DA:253,0
DA:254,0
DA:256,0
DA:257,0
DA:258,0
DA:259,0
DA:261,0
DA:263,0
DA:264,0
DA:265,0
DA:266,0
DA:267,0
DA:268,0
DA:269,0
DA:270,0
DA:272,0
DA:274,0
DA:275,0
DA:276,0
DA:279,0
DA:281,0
DA:282,0
DA:283,0
DA:286,0
DA:288,0
DA:289,0
DA:290,0
DA:291,0
DA:292,0
DA:295,0
DA:297,0
DA:298,0
DA:299,0
DA:300,0
DA:301,0
DA:302,0
DA:305,0
DA:307,0
DA:308,0
DA:309,0
DA:310,0
DA:311,0
DA:312,0
DA:313,0
DA:314,0
DA:315,0
DA:316,0
DA:317,0
DA:320,0
DA:322,0
DA:323,0
DA:324,0
DA:325,0
DA:326,0
DA:327,0
DA:328,0
DA:329,0
DA:330,0
DA:331,0
DA:332,0
DA:333,0
DA:334,0
DA:335,0
DA:336,0
DA:337,0
DA:338,0
DA:339,0
DA:341,0
DA:343,0
DA:344,0
DA:345,0
DA:346,0
DA:347,0
DA:348,0
DA:349,0
DA:350,0
DA:351,0
DA:353,0
DA:355,0
DA:356,0
DA:357,0
DA:358,0
DA:359,0
DA:360,0
DA:361,0
DA:362,0
DA:363,0
DA:364,0
DA:365,0
DA:366,0
DA:367,0
DA:368,0
DA:369,0
DA:370,0
DA:371,0
DA:372,0
DA:374,0
DA:376,0
DA:377,0
DA:378,0
DA:379,0
DA:382,0
DA:384,0
DA:385,0
DA:386,0
DA:387,0
DA:388,0
DA:389,0
DA:390,0
DA:391,0
DA:394,0
DA:396,0
DA:397,0
DA:398,0
DA:399,0
DA:400,0
DA:403,0
DA:405,0
DA:406,0
DA:407,0
DA:408,0
DA:409,0
DA:410,0
DA:411,0
DA:412,0
DA:415,0
DA:417,0
DA:418,0
DA:419,0
DA:420,0
DA:421,0
DA:422,0
DA:423,0
DA:425,0
DA:427,0
DA:428,0
DA:429,0
DA:430,0
DA:431,0
DA:432,0
DA:433,0
DA:435,0
DA:437,0
DA:438,0
DA:439,0
DA:440,0
DA:441,0
DA:442,0
DA:443,0
DA:445,0
DA:447,0
DA:448,0
DA:449,0
DA:450,0
DA:451,0
DA:452,0
DA:453,0
DA:454,0
DA:456,0
DA:458,0
DA:459,0
DA:460,0
DA:461,0
DA:462,0
DA:463,0
DA:464,0
DA:465,0
DA:466,0
DA:467,0
DA:468,0
DA:469,0
DA:470,0
DA:471,0
DA:472,0
DA:473,0
DA:474,0
DA:476,0
DA:478,0
DA:479,0
DA:480,0
DA:482,0
DA:484,0
DA:485,0
DA:486,0
DA:487,0
DA:488,0
DA:490,0
DA:492,0
DA:495,0
DA:497,0
DA:498,0
DA:500,0
DA:503,0
DA:505,0
DA:507,0
DA:508,0
DA:509,0
DA:510,0
DA:511,0
DA:512,0
DA:513,0
DA:514,0
DA:515,0
DA:516,0
DA:520,0
DA:526,0
DA:527,0
DA:528,0
DA:530,0
DA:531,0
DA:532,0
DA:534,0
DA:535,0
DA:537,0
DA:538,0
DA:540,0
DA:541,0
DA:542,0
DA:543,0
DA:545,0
DA:547,0
DA:548,0
DA:550,0
DA:552,0
DA:553,0
DA:555,0
DA:556,0
DA:558,0
DA:559,0
DA:560,0
DA:561,0
DA:563,0
DA:565,0
DA:567,0
DA:568,0
DA:569,0
DA:570,0
DA:571,0
DA:572,0
DA:574,0
DA:575,0
DA:577,0
DA:579,0
DA:580,0
DA:581,0
DA:582,0
DA:584,0
DA:585,0
DA:587,0
DA:589,0
DA:590,0
DA:592,0
DA:593,0
DA:594,0
DA:595,0
DA:596,0
DA:597,0
DA:599,0
DA:600,0
DA:602,0
DA:604,0
DA:605,0
DA:606,0
DA:607,0
DA:609,0
DA:610,0
DA:612,0
DA:614,0
DA:615,0
DA:619,0
DA:620,0
DA:621,0
DA:622,0
DA:623,0
DA:624,0
DA:626,0
DA:628,0
DA:630,0
DA:631,0
DA:632,0
DA:633,0
DA:634,0
DA:635,0
DA:637,0
DA:638,0
DA:640,0
DA:642,0
DA:643,0
DA:644,0
DA:645,0
DA:646,0
DA:647,0
DA:649,0
DA:650,0
DA:652,0
DA:656,0
DA:657,0
DA:659,0
DA:662,0
DA:663,0
DA:665,0
DA:666,0
DA:668,0
DA:670,0
DA:671,0
DA:673,0
DA:677,0
DA:678,0
DA:680,0
DA:681,0
DA:683,0
DA:684,0
DA:685,0
DA:686,0
DA:688,0
DA:690,0
DA:692,0
DA:693,0
DA:694,0
DA:695,0
DA:696,0
DA:697,0
DA:699,0
DA:700,0
DA:702,0
DA:704,0
DA:705,0
DA:706,0
DA:707,0
DA:708,0
DA:709,0
DA:711,0
DA:712,0
DA:714,0
DA:718,0
DA:721,0
DA:722,0
DA:723,0
DA:725,0
DA:726,0
DA:727,0
DA:728,0
DA:730,0
DA:732,0
DA:734,0
DA:735,0
DA:736,0
DA:737,0
DA:738,0
DA:739,0
DA:741,0
DA:742,0
DA:744,0
DA:746,0
DA:747,0
DA:748,0
DA:749,0
DA:751,0
DA:752,0
DA:754,0
DA:756,0
DA:757,0
DA:759,0
DA:760,0
DA:761,0
DA:762,0
DA:763,0
DA:764,0
DA:766,0
DA:767,0
DA:769,0
DA:771,0
DA:772,0
DA:773,0
DA:774,0
DA:776,0
DA:777,0
DA:779,0
DA:781,0
DA:782,0
DA:788,0
DA:790,0
DA:797,0
DA:798,0
DA:799,0
DA:801,0
DA:802,0
DA:803,0
DA:804,0
DA:805,0
DA:806,0
DA:807,0
DA:808,0
DA:810,0
DA:811,0
DA:813,0
DA:814,0
DA:816,0
DA:817,0
DA:818,0
DA:819,0
DA:821,0
DA:823,0
DA:824,0
DA:825,0
DA:828,0
DA:829,0
DA:831,0
DA:832,0
DA:833,0
DA:834,0
DA:836,0
DA:838,0
DA:840,0
DA:842,0
DA:843,0
DA:844,0
DA:845,0
DA:846,0
DA:847,0
DA:849,0
DA:850,0
DA:852,0
DA:854,0
DA:855,0
DA:856,0
DA:857,0
DA:859,0
DA:860,0
DA:862,0
DA:864,0
DA:865,0
DA:867,0
DA:868,0
DA:869,0
DA:870,0
DA:872,0
DA:874,0
DA:876,0
DA:878,0
DA:879,0
DA:880,0
DA:881,0
DA:882,0
DA:883,0
DA:885,0
DA:886,0
DA:888,0
DA:890,0
DA:891,0
DA:892,0
DA:893,0
DA:895,0
DA:896,0
DA:898,0
DA:900,0
DA:901,0
DA:904,0
DA:906,0
DA:907,0
DA:909,0
DA:910,0
DA:911,0
DA:912,0
DA:914,0
DA:916,0
DA:918,0
DA:920,0
DA:921,0
DA:922,0
DA:923,0
DA:924,0
DA:925,0
DA:926,0
DA:928,0
DA:929,0
DA:931,0
DA:933,0
DA:934,0
DA:935,0
DA:936,0
DA:937,0
DA:939,0
DA:940,0
DA:942,0
DA:944,0
DA:945,0
DA:947,0
DA:948,0
DA:949,0
DA:950,0
DA:951,0
DA:952,0
DA:954,0
DA:955,0
DA:957,0
DA:959,0
DA:960,0
DA:961,0
DA:962,0
DA:964,0
DA:965,0
DA:967,0
DA:969,0
DA:970,0
DA:972,0
DA:973,0
DA:974,0
DA:975,0
DA:976,0
DA:977,0
DA:978,0
DA:980,0
DA:981,0
DA:983,0
DA:985,0
DA:986,0
DA:987,0
DA:988,0
DA:989,0
DA:991,0
DA:992,0
DA:994,0
DA:996,0
DA:997,0
DA:999,0
DA:1000,0
DA:1001,0
DA:1002,0
DA:1003,0
DA:1004,0
DA:1005,0
DA:1007,0
DA:1008,0
DA:1010,0
DA:1012,0
DA:1013,0
DA:1014,0
DA:1015,0
DA:1016,0
DA:1018,0
DA:1019,0
DA:1021,0
DA:1023,0
DA:1024,0
DA:1026,0
DA:1027,0
DA:1028,0
DA:1029,0
DA:1030,0
DA:1031,0
DA:1032,0
DA:1034,0
DA:1035,0
DA:1037,0
DA:1039,0
DA:1040,0
DA:1041,0
DA:1042,0
DA:1043,0
DA:1045,0
DA:1046,0
DA:1048,0
DA:1050,0
DA:1051,0
DA:1053,0
DA:1054,0
DA:1055,0
DA:1056,0
DA:1057,0
DA:1058,0
DA:1060,0
DA:1061,0
DA:1063,0
DA:1065,0
DA:1066,0
DA:1067,0
DA:1068,0
DA:1069,0
DA:1071,0
DA:1072,0
DA:1074,0
DA:1076,0
DA:1077,0
DA:1081,0
DA:1082,0
DA:1083,0
DA:1087,0
DA:1088,0
DA:1089,0
DA:1090,0
DA:1092,0
DA:1094,0
DA:1096,0
DA:1098,0
DA:1099,0
DA:1100,0
DA:1101,0
DA:1102,0
DA:1103,0
DA:1105,0
DA:1106,0
DA:1108,0
DA:1110,0
DA:1111,0
DA:1112,0
DA:1113,0
DA:1115,0
DA:1116,0
DA:1118,0
DA:1120,0
DA:1121,0
DA:1123,0
DA:1124,0
DA:1125,0
DA:1126,0
DA:1128,0
DA:1130,0
DA:1132,0
DA:1134,0
DA:1135,0
DA:1136,0
DA:1137,0
DA:1138,0
DA:1139,0
DA:1141,0
DA:1142,0
DA:1144,0
DA:1146,0
DA:1147,0
DA:1148,0
DA:1149,0
DA:1151,0
DA:1152,0
DA:1154,0
DA:1156,0
DA:1157,0
DA:1160,0
DA:1162,0
DA:1163,0
DA:1165,0
DA:1166,0
DA:1167,0
DA:1168,0
DA:1170,0
DA:1172,0
DA:1174,0
DA:1176,0
DA:1177,0
DA:1178,0
DA:1179,0
DA:1180,0
DA:1181,0
DA:1182,0
DA:1184,0
DA:1185,0
DA:1188,0
DA:1190,0
DA:1191,0
DA:1192,0
DA:1193,0
DA:1194,0
DA:1196,0
DA:1197,0
DA:1199,0
DA:1201,0
DA:1202,0
DA:1204,0
DA:1205,0
DA:1206,0
DA:1207,0
DA:1208,0
DA:1209,0
DA:1211,0
DA:1212,0
DA:1215,0
DA:1217,0
DA:1218,0
DA:1219,0
DA:1220,0
DA:1222,0
DA:1223,0
DA:1225,0
DA:1227,0
DA:1228,0
DA:1230,0
DA:1231,0
DA:1232,0
DA:1233,0
DA:1234,0
DA:1235,0
DA:1236,0
DA:1238,0
DA:1239,0
DA:1242,0
DA:1244,0
DA:1245,0
DA:1246,0
DA:1247,0
DA:1248,0
DA:1250,0
DA:1251,0
DA:1253,0
DA:1255,0
DA:1256,0
DA:1258,0
DA:1259,0
DA:1260,0
DA:1261,0
DA:1262,0
DA:1263,0
DA:1264,0
DA:1266,0
DA:1267,0
DA:1270,0
DA:1272,0
DA:1273,0
DA:1274,0
DA:1275,0
DA:1276,0
DA:1278,0
DA:1279,0
DA:1281,0
DA:1283,0
DA:1284,0
DA:1286,0
DA:1287,0
DA:1288,0
DA:1289,0
DA:1290,0
DA:1291,0
DA:1292,0
DA:1294,0
DA:1295,0
DA:1298,0
DA:1300,0
DA:1301,0
DA:1302,0
DA:1303,0
DA:1304,0
DA:1306,0
DA:1307,0
DA:1309,0
DA:1311,0
DA:1312,0
DA:1314,0
DA:1315,0
DA:1316,0
DA:1317,0
DA:1318,0
DA:1319,0
DA:1321,0
DA:1322,0
DA:1325,0
DA:1327,0
DA:1328,0
DA:1329,0
DA:1330,0
DA:1331,0
DA:1333,0
DA:1334,0
DA:1336,0
DA:1338,0
DA:1339,0
DA:1344,0
DA:1345,0
DA:1346,0
DA:1347,0
DA:1349,0
DA:1351,0
DA:1352,0
DA:1353,0
DA:1356,0
DA:1357,0
DA:1359,0
DA:1360,0
DA:1361,0
DA:1362,0
DA:1364,0
DA:1366,0
DA:1368,0
DA:1370,0
DA:1371,0
DA:1372,0
DA:1373,0
DA:1374,0
DA:1375,0
DA:1377,0
DA:1378,0
DA:1380,0
DA:1382,0
DA:1383,0
DA:1384,0
DA:1385,0
DA:1387,0
DA:1388,0
DA:1390,0
DA:1392,0
DA:1393,0
DA:1395,0
DA:1396,0
DA:1397,0
DA:1398,0
DA:1400,0
DA:1402,0
DA:1404,0
DA:1406,0
DA:1407,0
DA:1408,0
DA:1409,0
DA:1410,0
DA:1411,0
DA:1413,0
DA:1414,0
DA:1416,0
DA:1418,0
DA:1419,0
DA:1420,0
DA:1421,0
DA:1423,0
DA:1424,0
DA:1426,0
DA:1428,0
DA:1429,0
DA:1432,0
DA:1434,0
DA:1435,0
DA:1437,0
DA:1438,0
DA:1439,0
DA:1440,0
DA:1442,0
DA:1444,0
DA:1446,0
DA:1448,0
DA:1449,0
DA:1450,0
DA:1451,0
DA:1452,0
DA:1453,0
DA:1454,0
DA:1456,0
DA:1457,0
DA:1459,0
DA:1461,0
DA:1462,0
DA:1463,0
DA:1464,0
DA:1465,0
DA:1467,0
DA:1468,0
DA:1470,0
DA:1472,0
DA:1473,0
DA:1475,0
DA:1476,0
DA:1477,0
DA:1478,0
DA:1479,0
DA:1480,0
DA:1482,0
DA:1483,0
DA:1485,0
DA:1487,0
DA:1488,0
DA:1489,0
DA:1490,0
DA:1492,0
DA:1493,0
DA:1495,0
DA:1497,0
DA:1498,0
DA:1500,0
DA:1501,0
DA:1502,0
DA:1503,0
DA:1504,0
DA:1505,0
DA:1506,0
DA:1508,0
DA:1509,0
DA:1511,0
DA:1513,0
DA:1514,0
DA:1515,0
DA:1516,0
DA:1517,0
DA:1519,0
DA:1520,0
DA:1522,0
DA:1524,0
DA:1525,0
DA:1527,0
DA:1528,0
DA:1529,0
DA:1530,0
DA:1531,0
DA:1532,0
DA:1533,0
DA:1535,0
DA:1536,0
DA:1538,0
DA:1540,0
DA:1541,0
DA:1542,0
DA:1543,0
DA:1544,0
DA:1546,0
DA:1547,0
DA:1549,0
DA:1551,0
DA:1552,0
DA:1554,0
DA:1555,0
DA:1556,0
DA:1557,0
DA:1558,0
DA:1559,0
DA:1560,0
DA:1562,0
DA:1563,0
DA:1565,0
DA:1567,0
DA:1568,0
DA:1569,0
DA:1570,0
DA:1571,0
DA:1573,0
DA:1574,0
DA:1576,0
DA:1578,0
DA:1579,0
DA:1581,0
DA:1582,0
DA:1583,0
DA:1584,0
DA:1585,0
DA:1586,0
DA:1588,0
DA:1589,0
DA:1591,0
DA:1593,0
DA:1594,0
DA:1595,0
DA:1596,0
DA:1597,0
DA:1599,0
DA:1600,0
DA:1602,0
DA:1604,0
DA:1605,0
DA:1609,0
DA:1610,0
DA:1611,0
DA:1615,0
DA:1616,0
DA:1617,0
DA:1618,0
DA:1620,0
DA:1622,0
DA:1624,0
DA:1626,0
DA:1627,0
DA:1628,0
DA:1629,0
DA:1630,0
DA:1631,0
DA:1633,0
DA:1634,0
DA:1636,0
DA:1638,0
DA:1639,0
DA:1640,0
DA:1641,0
DA:1643,0
DA:1644,0
DA:1646,0
DA:1648,0
DA:1649,0
DA:1651,0
DA:1652,0
DA:1653,0
DA:1654,0
DA:1656,0
DA:1658,0
DA:1660,0
DA:1662,0
DA:1663,0
DA:1664,0
DA:1665,0
DA:1666,0
DA:1667,0
DA:1669,0
DA:1670,0
DA:1672,0
DA:1674,0
DA:1675,0
DA:1676,0
DA:1677,0
DA:1679,0
DA:1680,0
DA:1682,0
DA:1684,0
DA:1685,0
DA:1688,0
DA:1690,0
DA:1691,0
DA:1693,0
DA:1694,0
DA:1695,0
DA:1696,0
DA:1698,0
DA:1700,0
DA:1702,0
DA:1704,0
DA:1705,0
DA:1706,0
DA:1707,0
DA:1708,0
DA:1709,0
DA:1710,0
DA:1712,0
DA:1713,0
DA:1716,0
DA:1718,0
DA:1719,0
DA:1720,0
DA:1721,0
DA:1722,0
DA:1724,0
DA:1725,0
DA:1727,0
DA:1729,0
DA:1730,0
DA:1732,0
DA:1733,0
DA:1734,0
DA:1735,0
DA:1736,0
DA:1737,0
DA:1739,0
DA:1740,0
DA:1743,0
DA:1745,0
DA:1746,0
DA:1747,0
DA:1748,0
DA:1750,0
DA:1751,0
DA:1753,0
DA:1755,0
DA:1756,0
DA:1758,0
DA:1759,0
DA:1760,0
DA:1761,0
DA:1762,0
DA:1763,0
DA:1764,0
DA:1766,0
DA:1767,0
DA:1770,0
DA:1772,0
DA:1773,0
DA:1774,0
DA:1775,0
DA:1776,0
DA:1778,0
DA:1779,0
DA:1781,0
DA:1783,0
DA:1784,0
DA:1786,0
DA:1787,0
DA:1788,0
DA:1789,0
DA:1790,0
DA:1791,0
DA:1792,0
DA:1794,0
DA:1795,0
DA:1798,0
DA:1800,0
DA:1801,0
DA:1802,0
DA:1803,0
DA:1804,0
DA:1806,0
DA:1807,0
DA:1809,0
DA:1811,0
DA:1812,0
DA:1814,0
DA:1815,0
DA:1816,0
DA:1817,0
DA:1818,0
DA:1819,0
DA:1820,0
DA:1822,0
DA:1823,0
DA:1826,0
DA:1828,0
DA:1829,0
DA:1830,0
DA:1831,0
DA:1832,0
DA:1834,0
DA:1835,0
DA:1837,0
DA:1839,0
DA:1840,0
DA:1842,0
DA:1843,0
DA:1844,0
DA:1845,0
DA:1846,0
DA:1847,0
DA:1849,0
DA:1850,0
DA:1853,0
DA:1855,0
DA:1856,0
DA:1857,0
DA:1858,0
DA:1859,0
DA:1861,0
DA:1862,0
DA:1864,0
DA:1866,0
DA:1867,0
DA:1873,0
DA:1875,0
DA:1881,0
DA:1882,0
DA:1883,0
DA:1885,0
DA:1886,0
DA:1887,0
DA:1888,0
DA:1889,0
DA:1890,0
DA:1891,0
DA:1892,0
DA:1894,0
DA:1895,0
DA:1897,0
DA:1898,0
DA:1900,0
DA:1901,0
DA:1902,0
DA:1903,0
DA:1905,0
DA:1907,0
DA:1908,0
DA:1909,0
DA:1910,0
DA:1912,0
DA:1913,0
DA:1914,0
DA:1915,0
DA:1917,0
DA:1919,0
DA:1921,0
DA:1922,0
DA:1923,0
DA:1924,0
DA:1925,0
DA:1926,0
DA:1928,0
DA:1929,0
DA:1931,0
DA:1933,0
DA:1934,0
DA:1935,0
DA:1936,0
DA:1937,0
DA:1938,0
DA:1939,0
DA:1941,0
DA:1942,0
DA:1944,0
DA:1946,0
DA:1947,0
DA:1948,0
DA:1949,0
DA:1950,0
DA:1951,0
DA:1952,0
DA:1954,0
DA:1955,0
DA:1957,0
DA:1959,0
DA:1960,0
DA:1961,0
DA:1962,0
DA:1963,0
DA:1964,0
DA:1965,0
DA:1967,0
DA:1968,0
DA:1970,0
DA:1973,0
DA:1974,0
DA:1978,0
DA:1979,0
DA:1981,0
DA:1982,0
DA:1983,0
DA:1984,0
DA:1986,0
DA:1988,0
DA:1990,0
DA:1991,0
DA:1992,0
DA:1993,0
DA:1994,0
DA:1995,0
DA:1997,0
DA:1998,0
DA:2000,0
DA:2002,0
DA:2003,0
DA:2004,0
DA:2005,0
DA:2006,0
DA:2007,0
DA:2008,0
DA:2010,0
DA:2011,0
DA:2013,0
DA:2015,0
DA:2016,0
DA:2017,0
DA:2018,0
DA:2019,0
DA:2020,0
DA:2021,0
DA:2023,0
DA:2024,0
DA:2026,0
DA:2028,0
DA:2029,0
DA:2030,0
DA:2031,0
DA:2032,0
DA:2033,0
DA:2034,0
DA:2036,0
DA:2037,0
DA:2039,0
DA:2044,0
DA:2046,0
DA:2052,0
DA:2053,0
DA:2054,0
DA:2056,0
DA:2057,0
DA:2059,0
DA:2060,0
DA:2062,0
DA:2063,0
DA:2064,0
DA:2065,0
DA:2066,0
DA:2067,0
DA:2068,0
DA:2069,0
DA:2071,0
DA:2072,0
DA:2073,0
DA:2074,0
DA:2076,0
DA:2078,0
DA:2079,0
DA:2080,0
DA:2081,0
DA:2083,0
DA:2084,0
DA:2085,0
DA:2086,0
DA:2088,0
DA:2090,0
DA:2092,0
DA:2093,0
DA:2094,0
DA:2095,0
DA:2096,0
DA:2097,0
DA:2099,0
DA:2100,0
DA:2102,0
DA:2104,0
DA:2105,0
DA:2106,0
DA:2107,0
DA:2108,0
DA:2109,0
DA:2110,0
DA:2112,0
DA:2113,0
DA:2115,0
DA:2117,0
DA:2118,0
DA:2119,0
DA:2120,0
DA:2121,0
DA:2122,0
DA:2123,0
DA:2125,0
DA:2126,0
DA:2128,0
DA:2130,0
DA:2131,0
DA:2132,0
DA:2133,0
DA:2134,0
DA:2135,0
DA:2136,0
DA:2138,0
DA:2139,0
DA:2141,0
DA:2144,0
DA:2145,0
DA:2146,0
DA:2147,0
DA:2148,0
DA:2149,0
DA:2151,0
DA:2153,0
DA:2155,0
DA:2156,0
DA:2157,0
DA:2158,0
DA:2159,0
DA:2160,0
DA:2162,0
DA:2163,0
DA:2165,0
DA:2167,0
DA:2168,0
DA:2169,0
DA:2170,0
DA:2171,0
DA:2172,0
DA:2173,0
DA:2175,0
DA:2176,0
DA:2178,0
DA:2180,0
DA:2181,0
DA:2182,0
DA:2183,0
DA:2184,0
DA:2185,0
DA:2186,0
DA:2188,0
DA:2189,0
DA:2191,0
DA:2193,0
DA:2194,0
DA:2195,0
DA:2196,0
DA:2197,0
DA:2198,0
DA:2199,0
DA:2201,0
DA:2202,0
DA:2204,0
DA:2209,0
DA:2211,0
DA:2217,0
DA:2218,0
DA:2219,0
DA:2221,0
DA:2222,0
DA:2224,0
DA:2225,0
DA:2227,0
DA:2228,0
DA:2229,0
DA:2231,0
DA:2232,0
DA:2233,0
DA:2234,0
DA:2236,0
DA:2238,0
DA:2239,0
DA:2240,0
DA:2241,0
DA:2243,0
DA:2244,0
DA:2245,0
DA:2246,0
DA:2248,0
DA:2250,0
DA:2252,0
DA:2253,0
DA:2254,0
DA:2255,0
DA:2256,0
DA:2257,0
DA:2258,0
DA:2260,0
DA:2261,0
DA:2263,0
DA:2266,0
DA:2267,0
DA:2268,0
DA:2269,0
DA:2271,0
DA:2272,0
DA:2273,0
DA:2274,0
DA:2276,0
DA:2278,0
DA:2280,0
DA:2281,0
DA:2282,0
DA:2283,0
DA:2284,0
DA:2285,0
DA:2286,0
DA:2288,0
DA:2289,0
DA:2291,0
DA:2296,0
DA:2298,0
DA:2304,0
DA:2305,0
DA:2306,0
DA:2308,0
DA:2309,0
DA:2311,0
DA:2312,0
DA:2314,0
DA:2315,0
DA:2316,0
DA:2318,0
DA:2319,0
DA:2320,0
DA:2321,0
DA:2323,0
DA:2325,0
DA:2326,0
DA:2327,0
DA:2328,0
DA:2330,0
DA:2331,0
DA:2332,0
DA:2333,0
DA:2335,0
DA:2337,0
DA:2339,0
DA:2340,0
DA:2341,0
DA:2342,0
DA:2343,0
DA:2344,0
DA:2345,0
DA:2347,0
DA:2348,0
DA:2350,0
DA:2353,0
DA:2354,0
DA:2355,0
DA:2356,0
DA:2357,0
DA:2358,0
DA:2360,0
DA:2362,0
DA:2364,0
DA:2365,0
DA:2366,0
DA:2367,0
DA:2368,0
DA:2369,0
DA:2370,0
DA:2372,0
DA:2373,0
DA:2375,0
DA:2380,0
DA:2382,0
DA:2388,0
DA:2389,0
DA:2390,0
DA:2392,0
DA:2393,0
DA:2395,0
DA:2396,0
DA:2398,0
DA:2399,0
DA:2400,0
DA:2401,0
DA:2403,0
DA:2404,0
DA:2405,0
DA:2406,0
DA:2408,0
DA:2410,0
DA:2411,0
DA:2413,0
DA:2415,0
DA:2416,0
DA:2418,0
DA:2419,0
DA:2421,0
DA:2422,0
DA:2423,0
DA:2424,0
DA:2426,0
DA:2428,0
DA:2430,0
DA:2431,0
DA:2432,0
DA:2433,0
DA:2434,0
DA:2435,0
DA:2437,0
DA:2438,0
DA:2440,0
DA:2442,0
DA:2443,0
DA:2444,0
DA:2445,0
DA:2446,0
DA:2447,0
DA:2448,0
DA:2450,0
DA:2451,0
DA:2453,0
DA:2457,0
DA:2458,0
DA:2459,0
DA:2460,0
DA:2462,0
DA:2463,0
DA:2464,0
DA:2465,0
DA:2467,0
DA:2469,0
DA:2471,0
DA:2472,0
DA:2473,0
DA:2474,0
DA:2475,0
DA:2476,0
DA:2478,0
DA:2479,0
DA:2481,0
DA:2483,0
DA:2484,0
DA:2485,0
DA:2486,0
DA:2487,0
DA:2488,0
DA:2489,0
DA:2491,0
DA:2492,0
DA:2494,0
DA:2499,0
DA:2501,0
DA:2507,0
DA:2508,0
DA:2509,0
DA:2511,0
DA:2512,0
DA:2514,0
DA:2515,0
DA:2517,0
DA:2518,0
DA:2519,0
DA:2521,0
DA:2522,0
DA:2523,0
DA:2524,0
DA:2526,0
DA:2528,0
DA:2529,0
DA:2530,0
DA:2531,0
DA:2532,0
DA:2533,0
DA:2535,0
DA:2537,0
DA:2539,0
DA:2540,0
DA:2541,0
DA:2542,0
DA:2543,0
DA:2544,0
DA:2545,0
DA:2547,0
DA:2548,0
DA:2550,0
DA:2553,0
DA:2554,0
DA:2555,0
DA:2556,0
DA:2558,0
DA:2559,0
DA:2560,0
DA:2561,0
DA:2563,0
DA:2565,0
DA:2567,0
DA:2568,0
DA:2569,0
DA:2570,0
DA:2571,0
DA:2572,0
DA:2573,0
DA:2575,0
DA:2576,0
DA:2578,0
DA:2583,0
DA:2585,0
DA:2591,0
DA:2592,0
DA:2593,0
DA:2595,0
DA:2596,0
DA:2597,0
DA:2599,0
DA:2600,0
DA:2602,0
DA:2603,0
DA:2605,0
DA:2606,0
DA:2607,0
DA:2608,0
DA:2610,0
DA:2612,0
DA:2613,0
DA:2614,0
DA:2615,0
DA:2617,0
DA:2618,0
DA:2619,0
DA:2620,0
DA:2622,0
DA:2624,0
DA:2626,0
DA:2628,0
DA:2629,0
DA:2630,0
DA:2631,0
DA:2632,0
DA:2633,0
DA:2634,0
DA:2636,0
DA:2637,0
DA:2639,0
DA:2641,0
DA:2642,0
DA:2643,0
DA:2644,0
DA:2645,0
DA:2647,0
DA:2648,0
DA:2650,0
DA:2652,0
DA:2653,0
DA:2656,0
DA:2657,0
DA:2658,0
DA:2659,0
DA:2661,0
DA:2662,0
DA:2663,0
DA:2664,0
DA:2666,0
DA:2668,0
DA:2670,0
DA:2672,0
DA:2673,0
DA:2674,0
DA:2675,0
DA:2676,0
DA:2677,0
DA:2678,0
DA:2680,0
DA:2681,0
DA:2683,0
DA:2685,0
DA:2686,0
DA:2687,0
DA:2688,0
DA:2689,0
DA:2691,0
DA:2692,0
DA:2694,0
DA:2696,0
DA:2697,0
DA:2701,0
DA:2702,0
DA:2704,0
DA:2708,0
DA:2709,0
DA:2711,0
DA:2712,0
DA:2714,0
DA:2716,0
DA:2718,0
DA:2719,0
DA:2720,0
DA:2722,0
DA:2723,0
DA:2724,0
DA:2725,0
DA:2727,0
DA:2729,0
DA:2731,0
DA:2733,0
DA:2734,0
DA:2735,0
DA:2736,0
DA:2737,0
DA:2738,0
DA:2739,0
DA:2741,0
DA:2742,0
DA:2744,0
DA:2746,0
DA:2747,0
DA:2748,0
DA:2749,0
DA:2750,0
DA:2752,0
DA:2753,0
DA:2755,0
DA:2757,0
DA:2758,0
DA:2761,0
DA:2763,0
DA:2764,0
DA:2765,0
DA:2767,0
DA:2768,0
DA:2769,0
DA:2770,0
DA:2772,0
DA:2774,0
DA:2776,0
DA:2778,0
DA:2779,0
DA:2780,0
DA:2781,0
DA:2782,0
DA:2783,0
DA:2784,0
DA:2786,0
DA:2787,0
DA:2789,0
DA:2791,0
DA:2792,0
DA:2793,0
DA:2794,0
DA:2795,0
DA:2797,0
DA:2798,0
DA:2800,0
DA:2802,0
DA:2803,0
DA:2809,0
DA:2811,0
DA:2817,0
DA:2818,0
DA:2819,0
DA:2821,0
DA:2822,0
DA:2823,0
DA:2825,0
DA:2826,0
DA:2828,0
DA:2829,0
DA:2831,0
DA:2832,0
DA:2833,0
DA:2834,0
DA:2836,0
DA:2838,0
DA:2839,0
DA:2840,0
DA:2841,0
DA:2843,0
DA:2844,0
DA:2845,0
DA:2846,0
DA:2848,0
DA:2850,0
DA:2852,0
DA:2854,0
DA:2855,0
DA:2856,0
DA:2857,0
DA:2858,0
DA:2859,0
DA:2860,0
DA:2862,0
DA:2863,0
DA:2866,0
DA:2868,0
DA:2869,0
DA:2870,0
DA:2871,0
DA:2872,0
DA:2874,0
DA:2875,0
DA:2877,0
DA:2879,0
DA:2880,0
DA:2883,0
DA:2884,0
DA:2885,0
DA:2886,0
DA:2888,0
DA:2889,0
DA:2890,0
DA:2891,0
DA:2893,0
DA:2895,0
DA:2897,0
DA:2899,0
DA:2900,0
DA:2901,0
DA:2902,0
DA:2903,0
DA:2904,0
DA:2905,0
DA:2907,0
DA:2908,0
DA:2910,0
DA:2912,0
DA:2913,0
DA:2914,0
DA:2915,0
DA:2916,0
DA:2918,0
DA:2919,0
DA:2921,0
DA:2923,0
DA:2924,0
DA:2928,0
DA:2929,0
DA:2930,0
DA:2931,0
DA:2933,0
DA:2935,0
DA:2936,0
DA:2937,0
DA:2938,0
DA:2940,0
DA:2941,0
DA:2942,0
DA:2943,0
DA:2945,0
DA:2947,0
DA:2949,0
DA:2951,0
DA:2952,0
DA:2953,0
DA:2954,0
DA:2955,0
DA:2956,0
DA:2957,0
DA:2959,0
DA:2960,0
DA:2962,0
DA:2964,0
DA:2965,0
DA:2966,0
DA:2967,0
DA:2968,0
DA:2970,0
DA:2971,0
DA:2973,0
DA:2975,0
DA:2976,0
DA:2979,0
DA:2980,0
DA:2981,0
DA:2982,0
DA:2984,0
DA:2985,0
DA:2986,0
DA:2987,0
DA:2989,0
DA:2991,0
DA:2993,0
DA:2995,0
DA:2996,0
DA:2997,0
DA:2998,0
DA:2999,0
DA:3000,0
DA:3001,0
DA:3003,0
DA:3004,0
DA:3007,0
DA:3009,0
DA:3010,0
DA:3011,0
DA:3012,0
DA:3013,0
DA:3015,0
DA:3016,0
DA:3018,0
DA:3020,0
DA:3021,0
DA:3026,0
DA:3028,0
DA:3034,0
DA:3035,0
DA:3036,0
DA:3038,0
DA:3039,0
DA:3040,0
DA:3042,0
DA:3043,0
DA:3045,0
DA:3046,0
DA:3048,0
DA:3049,0
DA:3050,0
DA:3051,0
DA:3053,0
DA:3055,0
DA:3056,0
DA:3057,0
DA:3058,0
DA:3060,0
DA:3061,0
DA:3062,0
DA:3063,0
DA:3065,0
DA:3067,0
DA:3069,0
DA:3070,0
DA:3071,0
DA:3072,0
DA:3073,0
DA:3074,0
DA:3075,0
DA:3077,0
DA:3078,0
DA:3080,0
DA:3083,0
DA:3084,0
DA:3086,0
DA:3088,0
DA:3089,0
DA:3091,0
DA:3092,0
DA:3094,0
DA:3095,0
DA:3096,0
DA:3097,0
DA:3099,0
DA:3101,0
DA:3103,0
DA:3104,0
DA:3105,0
DA:3106,0
DA:3107,0
DA:3108,0
DA:3109,0
DA:3111,0
DA:3112,0
DA:3114,0
DA:3119,0
DA:3120,0
DA:3121,0
DA:3122,0
DA:3124,0
DA:3126,0
DA:3127,0
DA:3128,0
DA:3129,0
DA:3131,0
DA:3132,0
DA:3133,0
DA:3134,0
DA:3136,0
DA:3138,0
DA:3140,0
DA:3141,0
DA:3142,0
DA:3143,0
DA:3144,0
DA:3145,0
DA:3146,0
DA:3148,0
DA:3149,0
DA:3151,0
DA:3154,0
DA:3155,0
DA:3157,0
DA:3159,0
DA:3160,0
DA:3162,0
DA:3163,0
DA:3165,0
DA:3166,0
DA:3167,0
DA:3168,0
DA:3170,0
DA:3172,0
DA:3174,0
DA:3175,0
DA:3176,0
DA:3177,0
DA:3178,0
DA:3179,0
DA:3180,0
DA:3182,0
DA:3183,0
DA:3185,0
DA:3191,0
DA:3193,0
DA:3199,0
DA:3200,0
DA:3201,0
DA:3203,0
DA:3204,0
DA:3205,0
DA:3207,0
DA:3208,0
DA:3210,0
DA:3211,0
DA:3213,0
DA:3214,0
DA:3215,0
DA:3216,0
DA:3218,0
DA:3220,0
DA:3221,0
DA:3222,0
DA:3223,0
DA:3224,0
DA:3225,0
DA:3227,0
DA:3229,0
DA:3231,0
DA:3232,0
DA:3233,0
DA:3234,0
DA:3235,0
DA:3236,0
DA:3237,0
DA:3239,0
DA:3240,0
DA:3242,0
DA:3245,0
DA:3246,0
DA:3248,0
DA:3250,0
DA:3251,0
DA:3253,0
DA:3254,0
DA:3256,0
DA:3257,0
DA:3258,0
DA:3259,0
DA:3261,0
DA:3263,0
DA:3265,0
DA:3266,0
DA:3267,0
DA:3268,0
DA:3269,0
DA:3270,0
DA:3271,0
DA:3273,0
DA:3274,0
DA:3276,0
DA:3282,0
DA:3284,0
DA:3292,0
DA:3293,0
DA:3294,0
DA:3296,0
DA:3297,0
DA:3298,0
DA:3299,0
DA:3300,0
DA:3302,0
DA:3303,0
DA:3305,0
DA:3306,0
DA:3308,0
DA:3309,0
DA:3310,0
DA:3311,0
DA:3313,0
DA:3315,0
DA:3316,0
DA:3317,0
DA:3318,0
DA:3320,0
DA:3321,0
DA:3322,0
DA:3323,0
DA:3325,0
DA:3327,0
DA:3329,0
DA:3330,0
DA:3331,0
DA:3332,0
DA:3333,0
DA:3334,0
DA:3335,0
DA:3337,0
DA:3338,0
DA:3339,0
DA:3340,0
DA:3341,0
DA:3343,0
DA:3344,0
DA:3346,0
DA:3348,0
DA:3349,0
DA:3351,0
DA:3352,0
DA:3353,0
DA:3354,0
DA:3356,0
DA:3357,0
DA:3359,0
DA:3361,0
DA:3362,0
DA:3363,0
DA:3364,0
DA:3365,0
DA:3366,0
DA:3367,0
DA:3369,0
DA:3370,0
DA:3371,0
DA:3372,0
DA:3373,0
DA:3375,0
DA:3376,0
DA:3378,0
DA:3380,0
DA:3381,0
DA:3383,0
DA:3384,0
DA:3385,0
DA:3386,0
DA:3388,0
DA:3389,0
DA:3391,0
DA:3395,0
DA:3396,0
DA:3398,0
DA:3402,0
DA:3403,0
DA:3405,0
DA:3406,0
DA:3408,0
DA:3410,0
DA:3412,0
DA:3413,0
DA:3414,0
DA:3416,0
DA:3417,0
DA:3418,0
DA:3419,0
DA:3421,0
DA:3423,0
DA:3425,0
DA:3426,0
DA:3427,0
DA:3428,0
DA:3429,0
DA:3430,0
DA:3431,0
DA:3433,0
DA:3434,0
DA:3435,0
DA:3436,0
DA:3437,0
DA:3439,0
DA:3440,0
DA:3442,0
DA:3444,0
DA:3445,0
DA:3447,0
DA:3448,0
DA:3449,0
DA:3450,0
DA:3452,0
DA:3453,0
DA:3455,0
DA:3457,0
DA:3458,0
DA:3459,0
DA:3460,0
DA:3461,0
DA:3462,0
DA:3463,0
DA:3465,0
DA:3466,0
DA:3467,0
DA:3468,0
DA:3469,0
DA:3471,0
DA:3472,0
DA:3474,0
DA:3476,0
DA:3477,0
DA:3479,0
DA:3480,0
DA:3481,0
DA:3482,0
DA:3484,0
DA:3485,0
DA:3487,0
DA:3493,0
DA:3495,0
DA:3501,0
DA:3502,0
DA:3503,0
DA:3505,0
DA:3506,0
DA:3507,0
DA:3508,0
DA:3510,0
DA:3511,0
DA:3513,0
DA:3514,0
DA:3516,0
DA:3517,0
DA:3518,0
DA:3519,0
DA:3521,0
DA:3523,0
DA:3524,0
DA:3525,0
DA:3526,0
DA:3528,0
DA:3529,0
DA:3530,0
DA:3531,0
DA:3533,0
DA:3535,0
DA:3537,0
DA:3538,0
DA:3539,0
DA:3540,0
DA:3541,0
DA:3542,0
DA:3543,0
DA:3545,0
DA:3546,0
DA:3547,0
DA:3548,0
DA:3549,0
DA:3551,0
DA:3552,0
DA:3554,0
DA:3556,0
DA:3557,0
DA:3559,0
DA:3560,0
DA:3561,0
DA:3562,0
DA:3564,0
DA:3565,0
DA:3567,0
DA:3571,0
DA:3572,0
DA:3574,0
DA:3578,0
DA:3579,0
DA:3581,0
DA:3582,0
DA:3584,0
DA:3586,0
DA:3588,0
DA:3589,0
DA:3590,0
DA:3592,0
DA:3593,0
DA:3594,0
DA:3595,0
DA:3597,0
DA:3599,0
DA:3601,0
DA:3602,0
DA:3603,0
DA:3604,0
DA:3605,0
DA:3606,0
DA:3607,0
DA:3609,0
DA:3610,0
DA:3611,0
DA:3612,0
DA:3613,0
DA:3615,0
DA:3616,0
DA:3618,0
DA:3620,0
DA:3621,0
DA:3623,0
DA:3624,0
DA:3625,0
DA:3626,0
DA:3628,0
DA:3629,0
DA:3631,0
DA:3637,0
DA:3639,0
DA:3647,0
DA:3648,0
DA:3649,0
DA:3651,0
DA:3652,0
DA:3653,0
DA:3654,0
DA:3655,0
DA:3656,0
DA:3657,0
DA:3658,0
DA:3659,0
DA:3660,0
DA:3661,0
DA:3662,0
DA:3664,0
DA:3665,0
DA:3667,0
DA:3668,0
DA:3670,0
DA:3671,0
DA:3672,0
DA:3673,0
DA:3675,0
DA:3677,0
DA:3678,0
DA:3679,0
DA:3680,0
DA:3682,0
DA:3683,0
DA:3684,0
DA:3685,0
DA:3687,0
DA:3689,0
DA:3691,0
DA:3692,0
DA:3693,0
DA:3694,0
DA:3695,0
DA:3696,0
DA:3697,0
DA:3699,0
DA:3700,0
DA:3701,0
DA:3702,0
DA:3703,0
DA:3705,0
DA:3706,0
DA:3708,0
DA:3710,0
DA:3711,0
DA:3713,0
DA:3714,0
DA:3715,0
DA:3716,0
DA:3718,0
DA:3719,0
DA:3721,0
DA:3723,0
DA:3724,0
DA:3725,0
DA:3726,0
DA:3727,0
DA:3728,0
DA:3729,0
DA:3731,0
DA:3732,0
DA:3733,0
DA:3734,0
DA:3735,0
DA:3737,0
DA:3738,0
DA:3740,0
DA:3742,0
DA:3743,0
DA:3745,0
DA:3746,0
DA:3747,0
DA:3748,0
DA:3750,0
DA:3751,0
DA:3753,0
DA:3755,0
DA:3756,0
DA:3757,0
DA:3758,0
DA:3759,0
DA:3760,0
DA:3761,0
DA:3763,0
DA:3764,0
DA:3765,0
DA:3766,0
DA:3767,0
DA:3769,0
DA:3770,0
DA:3772,0
DA:3774,0
DA:3775,0
DA:3777,0
DA:3778,0
DA:3779,0
DA:3780,0
DA:3782,0
DA:3783,0
DA:3785,0
DA:3787,0
DA:3788,0
DA:3789,0
DA:3790,0
DA:3791,0
DA:3792,0
DA:3793,0
DA:3795,0
DA:3796,0
DA:3797,0
DA:3798,0
DA:3799,0
DA:3801,0
DA:3802,0
DA:3804,0
DA:3806,0
DA:3807,0
DA:3809,0
DA:3810,0
DA:3811,0
DA:3812,0
DA:3814,0
DA:3815,0
DA:3817,0
DA:3821,0
DA:3822,0
DA:3823,0
DA:3824,0
DA:3826,0
DA:3828,0
DA:3829,0
DA:3830,0
DA:3831,0
DA:3833,0
DA:3834,0
DA:3835,0
DA:3836,0
DA:3838,0
DA:3840,0
DA:3842,0
DA:3843,0
DA:3844,0
DA:3845,0
DA:3846,0
DA:3847,0
DA:3848,0
DA:3850,0
DA:3851,0
DA:3852,0
DA:3853,0
DA:3854,0
DA:3856,0
DA:3857,0
DA:3859,0
DA:3861,0
DA:3862,0
DA:3864,0
DA:3865,0
DA:3866,0
DA:3867,0
DA:3869,0
DA:3870,0
DA:3872,0
DA:3874,0
DA:3875,0
DA:3876,0
DA:3877,0
DA:3878,0
DA:3879,0
DA:3880,0
DA:3882,0
DA:3883,0
DA:3884,0
DA:3885,0
DA:3886,0
DA:3888,0
DA:3889,0
DA:3891,0
DA:3893,0
DA:3894,0
DA:3896,0
DA:3897,0
DA:3898,0
DA:3899,0
DA:3901,0
DA:3902,0
DA:3904,0
DA:3906,0
DA:3907,0
DA:3908,0
DA:3909,0
DA:3910,0
DA:3911,0
DA:3912,0
DA:3914,0
DA:3915,0
DA:3916,0
DA:3917,0
DA:3918,0
DA:3920,0
DA:3921,0
DA:3923,0
DA:3925,0
DA:3926,0
DA:3928,0
DA:3929,0
DA:3930,0
DA:3931,0
DA:3933,0
DA:3934,0
DA:3936,0
DA:3938,0
DA:3939,0
DA:3940,0
DA:3941,0
DA:3942,0
DA:3943,0
DA:3944,0
DA:3946,0
DA:3947,0
DA:3948,0
DA:3949,0
DA:3950,0
DA:3952,0
DA:3953,0
DA:3955,0
DA:3957,0
DA:3958,0
DA:3960,0
DA:3961,0
DA:3962,0
DA:3963,0
DA:3965,0
DA:3966,0
DA:3968,0
DA:3973,0
DA:3975,0
DA:3983,0
DA:3984,0
DA:3985,0
DA:3987,0
DA:3988,0
DA:3989,0
DA:3990,0
DA:3991,0
DA:3992,0
DA:3993,0
DA:3994,0
DA:3995,0
DA:3996,0
DA:3997,0
DA:3998,0
DA:4000,0
DA:4001,0
DA:4003,0
DA:4004,0
DA:4006,0
DA:4007,0
DA:4008,0
DA:4009,0
DA:4011,0
DA:4013,0
DA:4014,0
DA:4015,0
DA:4016,0
DA:4017,0
DA:4018,0
DA:4020,0
DA:4022,0
DA:4024,0
DA:4025,0
DA:4026,0
DA:4027,0
DA:4028,0
DA:4029,0
DA:4030,0
DA:4032,0
DA:4033,0
DA:4034,0
DA:4035,0
DA:4036,0
DA:4038,0
DA:4039,0
DA:4041,0
DA:4043,0
DA:4044,0
DA:4046,0
DA:4047,0
DA:4048,0
DA:4049,0
DA:4051,0
DA:4052,0
DA:4054,0
DA:4056,0
DA:4057,0
DA:4058,0
DA:4059,0
DA:4060,0
DA:4061,0
DA:4062,0
DA:4064,0
DA:4065,0
DA:4066,0
DA:4067,0
DA:4068,0
DA:4070,0
DA:4071,0
DA:4073,0
DA:4075,0
DA:4076,0
DA:4078,0
DA:4079,0
DA:4080,0
DA:4081,0
DA:4083,0
DA:4084,0
DA:4086,0
DA:4088,0
DA:4089,0
DA:4090,0
DA:4091,0
DA:4092,0
DA:4093,0
DA:4094,0
DA:4096,0
DA:4097,0
DA:4098,0
DA:4099,0
DA:4100,0
DA:4102,0
DA:4103,0
DA:4105,0
DA:4107,0
DA:4108,0
DA:4110,0
DA:4111,0
DA:4112,0
DA:4113,0
DA:4115,0
DA:4116,0
DA:4118,0
DA:4120,0
DA:4121,0
DA:4122,0
DA:4123,0
DA:4124,0
DA:4125,0
DA:4126,0
DA:4128,0
DA:4129,0
DA:4130,0
DA:4131,0
DA:4132,0
DA:4134,0
DA:4135,0
DA:4137,0
DA:4139,0
DA:4140,0
DA:4142,0
DA:4143,0
DA:4144,0
DA:4145,0
DA:4147,0
DA:4148,0
DA:4150,0
DA:4154,0
DA:4155,0
DA:4156,0
DA:4157,0
DA:4159,0
DA:4161,0
DA:4162,0
DA:4163,0
DA:4164,0
DA:4166,0
DA:4167,0
DA:4168,0
DA:4169,0
DA:4171,0
DA:4173,0
DA:4175,0
DA:4176,0
DA:4177,0
DA:4178,0
DA:4179,0
DA:4180,0
DA:4181,0
DA:4183,0
DA:4184,0
DA:4185,0
DA:4186,0
DA:4187,0
DA:4189,0
DA:4190,0
DA:4192,0
DA:4194,0
DA:4195,0
DA:4197,0
DA:4198,0
DA:4199,0
DA:4200,0
DA:4202,0
DA:4203,0
DA:4205,0
DA:4207,0
DA:4208,0
DA:4209,0
DA:4210,0
DA:4211,0
DA:4212,0
DA:4213,0
DA:4215,0
DA:4216,0
DA:4217,0
DA:4218,0
DA:4219,0
DA:4221,0
DA:4222,0
DA:4224,0
DA:4226,0
DA:4227,0
DA:4229,0
DA:4230,0
DA:4231,0
DA:4232,0
DA:4234,0
DA:4235,0
DA:4237,0
DA:4239,0
DA:4240,0
DA:4241,0
DA:4242,0
DA:4243,0
DA:4244,0
DA:4245,0
DA:4247,0
DA:4248,0
DA:4249,0
DA:4250,0
DA:4251,0
DA:4253,0
DA:4254,0
DA:4256,0
DA:4258,0
DA:4259,0
DA:4261,0
DA:4262,0
DA:4263,0
DA:4264,0
DA:4266,0
DA:4267,0
DA:4269,0
DA:4271,0
DA:4272,0
DA:4273,0
DA:4274,0
DA:4275,0
DA:4276,0
DA:4277,0
DA:4279,0
DA:4280,0
DA:4281,0
DA:4282,0
DA:4283,0
DA:4285,0
DA:4286,0
DA:4288,0
DA:4290,0
DA:4291,0
DA:4293,0
DA:4294,0
DA:4295,0
DA:4296,0
DA:4298,0
DA:4299,0
DA:4301,0
DA:4306,0
DA:4308,0
DA:4314,0
DA:4315,0
DA:4316,0
DA:4318,0
DA:4319,0
DA:4320,0
DA:4321,0
DA:4323,0
DA:4324,0
DA:4326,0
DA:4327,0
DA:4329,0
DA:4330,0
DA:4331,0
DA:4332,0
DA:4334,0
DA:4336,0
DA:4337,0
DA:4338,0
DA:4339,0
DA:4341,0
DA:4342,0
DA:4343,0
DA:4344,0
DA:4346,0
DA:4348,0
DA:4350,0
DA:4351,0
DA:4352,0
DA:4353,0
DA:4354,0
DA:4355,0
DA:4356,0
DA:4358,0
DA:4359,0
DA:4360,0
DA:4361,0
DA:4362,0
DA:4364,0
DA:4365,0
DA:4367,0
DA:4369,0
DA:4370,0
DA:4372,0
DA:4373,0
DA:4374,0
DA:4375,0
DA:4377,0
DA:4378,0
DA:4380,0
DA:4384,0
DA:4385,0
DA:4386,0
DA:4387,0
DA:4389,0
DA:4391,0
DA:4392,0
DA:4393,0
DA:4394,0
DA:4396,0
DA:4397,0
DA:4398,0
DA:4399,0
DA:4401,0
DA:4403,0
DA:4405,0
DA:4406,0
DA:4407,0
DA:4408,0
DA:4409,0
DA:4410,0
DA:4411,0
DA:4413,0
DA:4414,0
DA:4415,0
DA:4416,0
DA:4417,0
DA:4419,0
DA:4420,0
DA:4422,0
DA:4424,0
DA:4425,0
DA:4427,0
DA:4428,0
DA:4429,0
DA:4430,0
DA:4432,0
DA:4433,0
DA:4435,0
DA:4440,0
DA:4442,0
DA:4450,0
DA:4451,0
DA:4452,0
DA:4454,0
DA:4455,0
DA:4456,0
DA:4457,0
DA:4459,0
DA:4460,0
DA:4462,0
DA:4463,0
DA:4465,0
DA:4466,0
DA:4467,0
DA:4468,0
DA:4470,0
DA:4472,0
DA:4473,0
DA:4474,0
DA:4475,0
DA:4476,0
DA:4477,0
DA:4479,0
DA:4481,0
DA:4483,0
DA:4484,0
DA:4485,0
DA:4486,0
DA:4487,0
DA:4488,0
DA:4489,0
DA:4491,0
DA:4492,0
DA:4493,0
DA:4494,0
DA:4495,0
DA:4497,0
DA:4498,0
DA:4500,0
DA:4502,0
DA:4503,0
DA:4505,0
DA:4506,0
DA:4507,0
DA:4508,0
DA:4510,0
DA:4511,0
DA:4513,0
DA:4517,0
DA:4518,0
DA:4519,0
DA:4520,0
DA:4522,0
DA:4524,0
DA:4525,0
DA:4526,0
DA:4527,0
DA:4529,0
DA:4530,0
DA:4531,0
DA:4532,0
DA:4534,0
DA:4536,0
DA:4538,0
DA:4539,0
DA:4540,0
DA:4541,0
DA:4542,0
DA:4543,0
DA:4544,0
DA:4546,0
DA:4547,0
DA:4548,0
DA:4549,0
DA:4550,0
DA:4552,0
DA:4553,0
DA:4555,0
DA:4557,0
DA:4558,0
DA:4560,0
DA:4561,0
DA:4562,0
DA:4563,0
DA:4565,0
DA:4566,0
DA:4568,0
DA:4573,0
DA:4575,0
DA:4583,0
DA:4584,0
DA:4585,0
DA:4587,0
DA:4588,0
DA:4589,0
DA:4590,0
DA:4592,0
DA:4593,0
DA:4595,0
DA:4596,0
DA:4598,0
DA:4599,0
DA:4600,0
DA:4601,0
DA:4603,0
DA:4605,0
DA:4606,0
DA:4607,0
DA:4608,0
DA:4610,0
DA:4611,0
DA:4612,0
DA:4613,0
DA:4615,0
DA:4617,0
DA:4619,0
DA:4620,0
DA:4621,0
DA:4622,0
DA:4623,0
DA:4624,0
DA:4625,0
DA:4627,0
DA:4628,0
DA:4629,0
DA:4630,0
DA:4631,0
DA:4633,0
DA:4634,0
DA:4636,0
DA:4638,0
DA:4639,0
DA:4641,0
DA:4642,0
DA:4643,0
DA:4644,0
DA:4646,0
DA:4647,0
DA:4649,0
DA:4653,0
DA:4654,0
DA:4655,0
DA:4656,0
DA:4658,0
DA:4660,0
DA:4661,0
DA:4662,0
DA:4663,0
DA:4664,0
DA:4665,0
DA:4667,0
DA:4669,0
DA:4671,0
DA:4672,0
DA:4673,0
DA:4674,0
DA:4675,0
DA:4676,0
DA:4677,0
DA:4679,0
DA:4680,0
DA:4681,0
DA:4682,0
DA:4683,0
DA:4685,0
DA:4686,0
DA:4688,0
DA:4690,0
DA:4691,0
DA:4693,0
DA:4694,0
DA:4695,0
DA:4696,0
DA:4698,0
DA:4699,0
DA:4701,0
DA:4706,0
DA:4708,0
DA:4718,0
DA:4719,0
DA:4720,0
DA:4722,0
DA:4723,0
DA:4724,0
DA:4725,0
DA:4726,0
DA:4727,0
DA:4728,0
DA:4730,0
DA:4731,0
DA:4733,0
DA:4734,0
DA:4736,0
DA:4737,0
DA:4738,0
DA:4739,0
DA:4741,0
DA:4743,0
DA:4744,0
DA:4745,0
DA:4746,0
DA:4748,0
DA:4749,0
DA:4750,0
DA:4751,0
DA:4753,0
DA:4755,0
DA:4757,0
DA:4758,0
DA:4759,0
DA:4760,0
DA:4761,0
DA:4762,0
DA:4763,0
DA:4765,0
DA:4766,0
DA:4767,0
DA:4768,0
DA:4769,0
DA:4771,0
DA:4772,0
DA:4774,0
DA:4776,0
DA:4777,0
DA:4779,0
DA:4780,0
DA:4781,0
DA:4782,0
DA:4784,0
DA:4785,0
DA:4787,0
DA:4791,0
DA:4792,0
DA:4793,0
DA:4794,0
DA:4796,0
DA:4798,0
DA:4799,0
DA:4800,0
DA:4801,0
DA:4803,0
DA:4804,0
DA:4805,0
DA:4806,0
DA:4808,0
DA:4810,0
DA:4812,0
DA:4813,0
DA:4814,0
DA:4815,0
DA:4816,0
DA:4817,0
DA:4818,0
DA:4820,0
DA:4821,0
DA:4822,0
DA:4823,0
DA:4825,0
DA:4826,0
DA:4828,0
DA:4833,0
DA:4835,0
DA:4842,0
DA:4843,0
DA:4844,0
DA:4846,0
DA:4847,0
DA:4848,0
DA:4849,0
DA:4850,0
DA:4851,0
DA:4852,0
DA:4853,0
DA:4854,0
DA:4855,0
DA:4857,0
DA:4858,0
DA:4860,0
DA:4861,0
DA:4863,0
DA:4864,0
DA:4865,0
DA:4866,0
DA:4868,0
DA:4870,0
DA:4871,0
DA:4872,0
DA:4873,0
DA:4874,0
DA:4875,0
DA:4877,0
DA:4879,0
DA:4881,0
DA:4882,0
DA:4883,0
DA:4884,0
DA:4885,0
DA:4886,0
DA:4888,0
DA:4889,0
DA:4891,0
DA:4893,0
DA:4894,0
DA:4896,0
DA:4897,0
DA:4898,0
DA:4899,0
DA:4901,0
DA:4902,0
DA:4904,0
DA:4906,0
DA:4907,0
DA:4908,0
DA:4909,0
DA:4910,0
DA:4911,0
DA:4913,0
DA:4914,0
DA:4916,0
DA:4918,0
DA:4919,0
DA:4921,0
DA:4922,0
DA:4923,0
DA:4924,0
DA:4926,0
DA:4927,0
DA:4928,0
DA:4930,0
DA:4932,0
DA:4933,0
DA:4934,0
DA:4935,0
DA:4936,0
DA:4937,0
DA:4939,0
DA:4940,0
DA:4941,0
DA:4942,0
DA:4944,0
DA:4945,0
DA:4947,0
DA:4949,0
DA:4950,0
DA:4952,0
DA:4953,0
DA:4954,0
DA:4955,0
DA:4957,0
DA:4958,0
DA:4959,0
DA:4961,0
DA:4966,0
DA:4968,0
DA:4976,0
DA:4977,0
DA:4978,0
DA:4980,0
DA:4981,0
DA:4982,0
DA:4983,0
DA:4984,0
DA:4985,0
DA:4986,0
DA:4987,0
DA:4988,0
DA:4989,0
DA:4990,0
DA:4991,0
DA:4992,0
DA:4994,0
DA:4995,0
DA:4997,0
DA:4998,0
DA:5000,0
DA:5001,0
DA:5002,0
DA:5003,0
DA:5005,0
DA:5007,0
DA:5008,0
DA:5009,0
DA:5010,0
DA:5011,0
DA:5012,0
DA:5014,0
DA:5016,0
DA:5018,0
DA:5019,0
DA:5020,0
DA:5021,0
DA:5022,0
DA:5023,0
DA:5024,0
DA:5026,0
DA:5027,0
DA:5029,0
DA:5031,0
DA:5032,0
DA:5034,0
DA:5035,0
DA:5036,0
DA:5037,0
DA:5039,0
DA:5040,0
DA:5042,0
DA:5044,0
DA:5045,0
DA:5046,0
DA:5047,0
DA:5048,0
DA:5049,0
DA:5050,0
DA:5052,0
DA:5053,0
DA:5055,0
DA:5057,0
DA:5058,0
DA:5060,0
DA:5061,0
DA:5062,0
DA:5063,0
DA:5065,0
DA:5066,0
DA:5067,0
DA:5069,0
DA:5071,0
DA:5072,0
DA:5073,0
DA:5074,0
DA:5075,0
DA:5076,0
DA:5077,0
DA:5079,0
DA:5080,0
DA:5082,0
DA:5084,0
DA:5085,0
DA:5087,0
DA:5088,0
DA:5089,0
DA:5090,0
DA:5092,0
DA:5093,0
DA:5094,0
DA:5096,0
DA:5098,0
DA:5099,0
DA:5100,0
DA:5101,0
DA:5102,0
DA:5103,0
DA:5104,0
DA:5106,0
DA:5107,0
DA:5108,0
DA:5109,0
DA:5110,0
DA:5112,0
DA:5113,0
DA:5115,0
DA:5117,0
DA:5118,0
DA:5120,0
DA:5121,0
DA:5122,0
DA:5123,0
DA:5125,0
DA:5126,0
DA:5127,0
DA:5129,0
DA:5134,0
DA:5136,0
DA:5144,0
DA:5145,0
DA:5146,0
DA:5148,0
DA:5149,0
DA:5150,0
DA:5151,0
DA:5153,0
DA:5154,0
DA:5156,0
DA:5157,0
DA:5159,0
DA:5160,0
DA:5161,0
DA:5162,0
DA:5164,0
DA:5166,0
DA:5167,0
DA:5168,0
DA:5169,0
DA:5170,0
DA:5171,0
DA:5173,0
DA:5175,0
DA:5177,0
DA:5178,0
DA:5179,0
DA:5180,0
DA:5181,0
DA:5182,0
DA:5183,0
DA:5185,0
DA:5186,0
DA:5188,0
DA:5190,0
DA:5191,0
DA:5193,0
DA:5194,0
DA:5195,0
DA:5196,0
DA:5198,0
DA:5199,0
DA:5200,0
DA:5202,0
DA:5207,0
DA:5209,0
DA:5217,0
DA:5218,0
DA:5219,0
DA:5221,0
DA:5222,0
DA:5223,0
DA:5224,0
DA:5226,0
DA:5227,0
DA:5229,0
DA:5230,0
DA:5232,0
DA:5233,0
DA:5234,0
DA:5235,0
DA:5237,0
DA:5239,0
DA:5240,0
DA:5241,0
DA:5242,0
DA:5244,0
DA:5245,0
DA:5246,0
DA:5247,0
DA:5249,0
DA:5251,0
DA:5253,0
DA:5254,0
DA:5255,0
DA:5256,0
DA:5257,0
DA:5258,0
DA:5259,0
DA:5261,0
DA:5262,0
DA:5263,0
DA:5264,0
DA:5265,0
DA:5267,0
DA:5268,0
DA:5270,0
DA:5272,0
DA:5273,0
DA:5275,0
DA:5276,0
DA:5277,0
DA:5278,0
DA:5280,0
DA:5281,0
DA:5282,0
DA:5284,0
DA:5289,0
DA:5291,0
DA:5298,0
DA:5299,0
DA:5300,0
DA:5302,0
DA:5303,0
DA:5304,0
DA:5305,0
DA:5306,0
DA:5307,0
DA:5308,0
DA:5310,0
DA:5311,0
DA:5313,0
DA:5314,0
DA:5316,0
DA:5317,0
DA:5318,0
DA:5319,0
DA:5321,0
DA:5323,0
DA:5324,0
DA:5325,0
DA:5326,0
DA:5327,0
DA:5328,0
DA:5330,0
DA:5332,0
DA:5334,0
DA:5335,0
DA:5336,0
DA:5337,0
DA:5338,0
DA:5339,0
DA:5341,0
DA:5342,0
DA:5344,0
DA:5346,0
DA:5347,0
DA:5349,0
DA:5350,0
DA:5351,0
DA:5352,0
DA:5354,0
DA:5355,0
DA:5357,0
DA:5359,0
DA:5360,0
DA:5361,0
DA:5362,0
DA:5363,0
DA:5364,0
DA:5366,0
DA:5367,0
DA:5369,0
DA:5371,0
DA:5372,0
DA:5374,0
DA:5375,0
DA:5376,0
DA:5377,0
DA:5379,0
DA:5380,0
DA:5382,0
DA:5387,0
DA:5389,0
DA:5397,0
DA:5398,0
DA:5399,0
DA:5401,0
DA:5402,0
DA:5403,0
DA:5404,0
DA:5405,0
DA:5406,0
DA:5407,0
DA:5408,0
DA:5409,0
DA:5410,0
DA:5411,0
DA:5412,0
DA:5413,0
DA:5414,0
DA:5416,0
DA:5417,0
DA:5419,0
DA:5420,0
DA:5422,0
DA:5423,0
DA:5424,0
DA:5425,0
DA:5427,0
DA:5429,0
DA:5430,0
DA:5431,0
DA:5432,0
DA:5433,0
DA:5434,0
DA:5436,0
DA:5438,0
DA:5440,0
DA:5441,0
DA:5442,0
DA:5443,0
DA:5444,0
DA:5445,0
DA:5446,0
DA:5448,0
DA:5449,0
DA:5451,0
DA:5453,0
DA:5454,0
DA:5456,0
DA:5457,0
DA:5458,0
DA:5459,0
DA:5461,0
DA:5462,0
DA:5464,0
DA:5466,0
DA:5467,0
DA:5468,0
DA:5469,0
DA:5470,0
DA:5471,0
DA:5472,0
DA:5474,0
DA:5475,0
DA:5477,0
DA:5479,0
DA:5480,0
DA:5482,0
DA:5483,0
DA:5484,0
DA:5485,0
DA:5487,0
DA:5488,0
DA:5490,0
DA:5492,0
DA:5493,0
DA:5494,0
DA:5495,0
DA:5496,0
DA:5497,0
DA:5498,0
DA:5500,0
DA:5501,0
DA:5503,0
DA:5505,0
DA:5506,0
DA:5508,0
DA:5509,0
DA:5510,0
DA:5511,0
DA:5513,0
DA:5514,0
DA:5516,0
DA:5518,0
DA:5519,0
DA:5520,0
DA:5521,0
DA:5522,0
DA:5523,0
DA:5524,0
DA:5526,0
DA:5527,0
DA:5528,0
DA:5529,0
DA:5530,0
DA:5532,0
DA:5533,0
DA:5535,0
DA:5537,0
DA:5538,0
DA:5540,0
DA:5541,0
DA:5542,0
DA:5543,0
DA:5545,0
DA:5546,0
DA:5548,0
DA:5553,0
DA:5555,0
DA:5563,0
DA:5564,0
DA:5565,0
DA:5567,0
DA:5568,0
DA:5569,0
DA:5570,0
DA:5571,0
DA:5573,0
DA:5574,0
DA:5576,0
DA:5577,0
DA:5579,0
DA:5580,0
DA:5581,0
DA:5582,0
DA:5584,0
DA:5586,0
DA:5587,0
DA:5588,0
DA:5589,0
DA:5590,0
DA:5591,0
DA:5593,0
DA:5595,0
DA:5597,0
DA:5598,0
DA:5599,0
DA:5600,0
DA:5601,0
DA:5602,0
DA:5603,0
DA:5605,0
DA:5606,0
DA:5608,0
DA:5610,0
DA:5611,0
DA:5613,0
DA:5614,0
DA:5615,0
DA:5616,0
DA:5618,0
DA:5619,0
DA:5621,0
DA:5626,0
DA:5628,0
DA:5636,0
DA:5637,0
DA:5638,0
DA:5640,0
DA:5641,0
DA:5642,0
DA:5643,0
DA:5645,0
DA:5646,0
DA:5648,0
DA:5649,0
DA:5651,0
DA:5652,0
DA:5653,0
DA:5654,0
DA:5656,0
DA:5658,0
DA:5659,0
DA:5660,0
DA:5661,0
DA:5663,0
DA:5664,0
DA:5665,0
DA:5666,0
DA:5668,0
DA:5670,0
DA:5672,0
DA:5673,0
DA:5674,0
DA:5675,0
DA:5676,0
DA:5677,0
DA:5678,0
DA:5680,0
DA:5681,0
DA:5682,0
DA:5683,0
DA:5684,0
DA:5686,0
DA:5687,0
DA:5689,0
DA:5691,0
DA:5692,0
DA:5694,0
DA:5695,0
DA:5696,0
DA:5697,0
DA:5699,0
DA:5700,0
DA:5702,0
DA:5707,0
DA:5709,0
DA:5716,0
DA:5717,0
DA:5718,0
DA:5720,0
DA:5721,0
DA:5722,0
DA:5723,0
DA:5724,0
DA:5725,0
DA:5726,0
DA:5727,0
DA:5728,0
DA:5729,0
DA:5731,0
DA:5732,0
DA:5734,0
DA:5735,0
DA:5737,0
DA:5738,0
DA:5739,0
DA:5740,0
DA:5742,0
DA:5744,0
DA:5745,0
DA:5746,0
DA:5747,0
DA:5748,0
DA:5749,0
DA:5751,0
DA:5753,0
DA:5755,0
DA:5756,0
DA:5757,0
DA:5758,0
DA:5759,0
DA:5760,0
DA:5762,0
DA:5763,0
DA:5765,0
DA:5767,0
DA:5768,0
DA:5770,0
DA:5771,0
DA:5772,0
DA:5773,0
DA:5775,0
DA:5776,0
DA:5778,0
DA:5780,0
DA:5781,0
DA:5782,0
DA:5783,0
DA:5784,0
DA:5785,0
DA:5787,0
DA:5788,0
DA:5790,0
DA:5792,0
DA:5793,0
DA:5795,0
DA:5796,0
DA:5797,0
DA:5798,0
DA:5800,0
DA:5801,0
DA:5802,0
DA:5804,0
DA:5809,0
LF:3982
LH:0
end_of_record
TN:
SF:/root/mfem/tests/unit/fem/test_assemblediagonalpa.cpp
FN:22,_ZN18assemblediagonalpa13coeffFunctionERKN4mfem6VectorE
FN:36,_ZN18assemblediagonalpa19vectorCoeffFunctionERKN4mfem6VectorERS1_
FN:50,_ZN18assemblediagonalpa29asymmetricMatrixCoeffFunctionERKN4mfem6VectorERNS0_11DenseMatrixE
FN:74,_ZN18assemblediagonalpa32fullSymmetricMatrixCoeffFunctionERKN4mfem6VectorERNS0_11DenseMatrixE
FN:98,_ZN18assemblediagonalpa28symmetricMatrixCoeffFunctionERKN4mfem6VectorERNS0_20DenseSymmetricMatrixE
FN:118,_ZN18assemblediagonalpaL29____C_A_T_C_H____T_E_S_T____0Ev
FN:167,_ZN18assemblediagonalpaL29____C_A_T_C_H____T_E_S_T____2Ev
FN:276,_ZN18assemblediagonalpa12test_vdiagpaIN4mfem20VectorMassIntegratorEEEdii
FN:276,_ZN18assemblediagonalpa12test_vdiagpaIN4mfem25VectorDiffusionIntegratorEEEdii
FN:312,_ZN18assemblediagonalpaL29____C_A_T_C_H____T_E_S_T____4Ev
FN:333,_ZN18assemblediagonalpaL29____C_A_T_C_H____T_E_S_T____8Ev
FN:356,_ZN18assemblediagonalpaL30____C_A_T_C_H____T_E_S_T____12Ev
FNDA:0,_ZN18assemblediagonalpa12test_vdiagpaIN4mfem20VectorMassIntegratorEEEdii
FNDA:0,_ZN18assemblediagonalpa12test_vdiagpaIN4mfem25VectorDiffusionIntegratorEEEdii
FNDA:0,_ZN18assemblediagonalpa13coeffFunctionERKN4mfem6VectorE
FNDA:0,_ZN18assemblediagonalpa19vectorCoeffFunctionERKN4mfem6VectorERS1_
FNDA:0,_ZN18assemblediagonalpa28symmetricMatrixCoeffFunctionERKN4mfem6VectorERNS0_20DenseSymmetricMatrixE
FNDA:0,_ZN18assemblediagonalpa29asymmetricMatrixCoeffFunctionERKN4mfem6VectorERNS0_11DenseMatrixE
FNDA:0,_ZN18assemblediagonalpa32fullSymmetricMatrixCoeffFunctionERKN4mfem6VectorERNS0_11DenseMatrixE
FNDA:0,_ZN18assemblediagonalpaL29____C_A_T_C_H____T_E_S_T____0Ev
FNDA:0,_ZN18assemblediagonalpaL29____C_A_T_C_H____T_E_S_T____2Ev
FNDA:0,_ZN18assemblediagonalpaL29____C_A_T_C_H____T_E_S_T____4Ev
FNDA:0,_ZN18assemblediagonalpaL29____C_A_T_C_H____T_E_S_T____8Ev
FNDA:0,_ZN18assemblediagonalpaL30____C_A_T_C_H____T_E_S_T____12Ev
FNF:12
FNH:0
DA:22,0
DA:24,0
DA:26,0
DA:30,0
DA:31,0
DA:32,0
DA:36,0
DA:38,0
DA:39,0
DA:41,0
DA:42,0
DA:44,0
DA:46,0
DA:48,0
DA:50,0
DA:52,0
DA:53,0
DA:55,0
DA:56,0
DA:57,0
DA:58,0
DA:60,0
DA:62,0
DA:63,0
DA:64,0
DA:65,0
DA:66,0
DA:67,0
DA:68,0
DA:69,0
DA:70,0
DA:72,0
DA:74,0
DA:76,0
DA:77,0
DA:79,0
DA:80,0
DA:81,0
DA:82,0
DA:84,0
DA:86,0
DA:87,0
DA:88,0
DA:89,0
DA:90,0
DA:91,0
DA:92,0
DA:93,0
DA:94,0
DA:96,0
DA:98,0
DA:100,0
DA:101,0
DA:103,0
DA:104,0
DA:105,0
DA:107,0
DA:109,0
DA:110,0
DA:111,0
DA:112,0
DA:113,0
DA:114,0
DA:116,0
DA:118,0
DA:120,0
DA:122,0
DA:124,0
DA:125,0
DA:126,0
DA:128,0
DA:129,0
DA:131,0
DA:132,0
DA:136,0
DA:137,0
DA:139,0
DA:140,0
DA:141,0
DA:142,0
DA:143,0
DA:144,0
DA:145,0
DA:146,0
DA:147,0
DA:149,0
DA:150,0
DA:151,0
DA:152,0
DA:153,0
DA:154,0
DA:156,0
DA:157,0
DA:158,0
DA:159,0
DA:161,0
DA:165,0
DA:167,0
DA:169,0
DA:171,0
DA:173,0
DA:174,0
DA:175,0
DA:176,0
DA:178,0
DA:179,0
DA:181,0
DA:182,0
DA:186,0
DA:187,0
DA:189,0
DA:190,0
DA:192,0
DA:194,0
DA:195,0
DA:196,0
DA:197,0
DA:198,0
DA:200,0
DA:202,0
DA:204,0
DA:206,0
DA:208,0
DA:210,0
DA:212,0
DA:213,0
DA:214,0
DA:215,0
DA:217,0
DA:219,0
DA:220,0
DA:223,0
DA:224,0
DA:225,0
DA:227,0
DA:229,0
DA:230,0
DA:232,0
DA:234,0
DA:235,0
DA:237,0
DA:239,0
DA:240,0
DA:244,0
DA:245,0
DA:248,0
DA:249,0
DA:250,0
DA:252,0
DA:253,0
DA:254,0
DA:255,0
DA:257,0
DA:258,0
DA:259,0
DA:260,0
DA:261,0
DA:263,0
DA:264,0
DA:265,0
DA:266,0
DA:269,0
DA:273,0
DA:276,0
DA:278,0
DA:279,0
DA:281,0
DA:283,0
DA:285,0
DA:288,0
DA:289,0
DA:291,0
DA:292,0
DA:293,0
DA:294,0
DA:296,0
DA:297,0
DA:299,0
DA:300,0
DA:301,0
DA:302,0
DA:304,0
DA:305,0
DA:307,0
DA:309,0
DA:312,0
DA:314,0
DA:315,0
DA:316,0
DA:319,0
DA:323,0
DA:324,0
DA:325,0
DA:328,0
DA:331,0
DA:333,0
DA:336,0
DA:337,0
DA:338,0
DA:342,0
DA:346,0
DA:347,0
DA:348,0
DA:351,0
DA:354,0
DA:356,0
DA:359,0
DA:361,0
DA:363,0
DA:365,0
DA:366,0
DA:367,0
DA:368,0
DA:369,0
DA:371,0
DA:373,0
DA:375,0
DA:377,0
DA:379,0
DA:381,0
DA:383,0
DA:384,0
DA:385,0
DA:386,0
DA:388,0
DA:390,0
DA:391,0
DA:394,0
DA:396,0
DA:398,0
DA:399,0
DA:401,0
DA:403,0
DA:404,0
DA:405,0
DA:406,0
DA:407,0
DA:409,0
DA:410,0
DA:411,0
DA:412,0
DA:414,0
DA:416,0
DA:418,0
DA:419,0
DA:421,0
DA:422,0
DA:426,0
DA:427,0
DA:430,0
DA:431,0
DA:432,0
DA:434,0
DA:435,0
DA:436,0
DA:437,0
DA:438,0
DA:440,0
DA:442,0
DA:443,0
DA:445,0
DA:447,0
DA:448,0
DA:450,0
DA:452,0
DA:453,0
DA:457,0
DA:458,0
DA:463,0
DA:465,0
DA:466,0
DA:467,0
DA:469,0
DA:471,0
DA:472,0
DA:474,0
DA:476,0
DA:477,0
DA:479,0
DA:481,0
DA:482,0
DA:486,0
DA:487,0
DA:492,0
DA:493,0
DA:496,0
DA:497,0
DA:498,0
DA:500,0
DA:501,0
DA:502,0
DA:503,0
DA:505,0
DA:506,0
DA:507,0
DA:508,0
DA:510,0
DA:516,0
DA:517,0
DA:518,0
DA:519,0
DA:522,0
LF:302
LH:0
end_of_record
TN:
SF:/root/mfem/tests/unit/fem/test_assembly_levels.cpp
FN:22,_ZN10ea_kernels17velocity_functionERKN4mfem6VectorERS1_
FN:33,_ZN10ea_kernels24AddConvectionIntegratorsERN4mfem12BilinearFormERNS0_17VectorCoefficientEb
FN:47,_ZN10ea_kernels19test_assembly_levelEPKcibiN4mfem13AssemblyLevelE
FN:110,_ZN10ea_kernelsL29____C_A_T_C_H____T_E_S_T____1Ev
FNDA:0,_ZN10ea_kernels17velocity_functionERKN4mfem6VectorERS1_
FNDA:0,_ZN10ea_kernels19test_assembly_levelEPKcibiN4mfem13AssemblyLevelE
FNDA:0,_ZN10ea_kernels24AddConvectionIntegratorsERN4mfem12BilinearFormERNS0_17VectorCoefficientEb
FNDA:0,_ZN10ea_kernelsL29____C_A_T_C_H____T_E_S_T____1Ev
FNF:4
FNH:0
DA:22,0
DA:24,0
DA:25,0
DA:27,0
DA:28,0
DA:29,0
DA:31,0
DA:33,0
DA:36,0
DA:38,0
DA:40,0
DA:41,0
DA:42,0
DA:43,0
DA:45,0
DA:47,0
DA:50,0
DA:51,0
DA:52,0
DA:53,0
DA:54,0
DA:56,0
DA:57,0
DA:59,0
DA:63,0
DA:66,0
DA:68,0
DA:69,0
DA:71,0
DA:72,0
DA:74,0
DA:76,0
DA:77,0
DA:79,0
DA:81,0
DA:82,0
DA:84,0
DA:86,0
DA:87,0
DA:90,0
DA:91,0
DA:93,0
DA:94,0
DA:96,0
DA:98,0
DA:100,0
DA:101,0
DA:103,0
DA:105,0
DA:107,0
DA:108,0
DA:110,0
DA:112,0
DA:115,0
DA:116,0
DA:117,0
DA:118,0
DA:119,0
DA:120,0
DA:122,0
DA:124,0
DA:128,0
DA:129,0
DA:130,0
DA:131,0
DA:132,0
DA:133,0
DA:135,0
DA:140,0
DA:141,0
DA:142,0
DA:143,0
DA:146,0
DA:147,0
DA:148,0
DA:149,0
DA:152,0
LF:77
LH:0
end_of_record
TN:
SF:/root/mfem/tests/unit/fem/test_bilinearform.cpp
FN:19,_ZL29____C_A_T_C_H____T_E_S_T____0v
FN:70,_ZL29____C_A_T_C_H____T_E_S_T____3v
FN:85,_ZZL29____C_A_T_C_H____T_E_S_T____3vENKUlN4mfem13AssemblyLevelERNS_12GridFunctionEE_clES0_S2_
FNDA:0,_ZL29____C_A_T_C_H____T_E_S_T____0v
FNDA:0,_ZL29____C_A_T_C_H____T_E_S_T____3v
FNDA:0,_ZZL29____C_A_T_C_H____T_E_S_T____3vENKUlN4mfem13AssemblyLevelERNS_12GridFunctionEE_clES0_S2_
FNF:3
FNH:0
DA:19,0
DA:23,0
DA:24,0
DA:25,0
DA:27,0
DA:28,0
DA:30,0
DA:31,0
DA:32,0
DA:33,0
DA:34,0
DA:35,0
DA:37,0
DA:38,0
DA:39,0
DA:40,0
DA:42,0
DA:43,0
DA:44,0
DA:45,0
DA:46,0
DA:47,0
DA:48,0
DA:50,0
DA:51,0
DA:52,0
DA:53,0
DA:54,0
DA:55,0
DA:56,0
DA:58,0
DA:59,0
DA:61,0
DA:63,0
DA:65,0
DA:67,0
DA:70,0
DA:75,0
DA:76,0
DA:77,0
DA:79,0
DA:80,0
DA:81,0
DA:85,0
DA:88,0
DA:89,0
DA:90,0
DA:91,0
DA:93,0
DA:94,0
DA:95,0
DA:96,0
DA:98,0
DA:99,0
DA:100,0
DA:101,0
DA:102,0
DA:103,0
DA:105,0
DA:106,0
DA:108,0
DA:109,0
DA:110,0
DA:111,0
DA:113,0
DA:114,0
DA:115,0
DA:116,0
DA:117,0
DA:118,0
DA:119,0
DA:121,0
DA:123,0
DA:124,0
DA:125,0
DA:128,0
DA:129,0
DA:130,0
DA:132,0
DA:133,0
DA:137,0
DA:138,0
DA:139,0
DA:141,0
DA:142,0
DA:144,0
LF:86
LH:0
end_of_record
TN:
SF:/root/mfem/tests/unit/fem/test_blocknonlinearform.cpp
FN:19,_ZN18blocknonlinearform3rf0ERKN4mfem6VectorE
FN:34,_ZN18blocknonlinearform3uf0ERKN4mfem6VectorE
FNDA:0,_ZN18blocknonlinearform3rf0ERKN4mfem6VectorE
FNDA:0,_ZN18blocknonlinearform3uf0ERKN4mfem6VectorE
FNF:2
FNH:0
DA:19,0
DA:21,0
DA:22,0
DA:23,0
DA:25,0
DA:26,0
DA:27,0
DA:29,0
DA:31,0
DA:34,0
DA:36,0
DA:37,0
DA:38,0
DA:40,0
DA:41,0
DA:42,0
DA:44,0
DA:46,0
LF:18
LH:0
end_of_record
TN:
SF:/root/mfem/tests/unit/fem/test_build_dof_to_arrays.cpp
FN:53,_ZN4mfem19build_dof_to_arraysL29____C_A_T_C_H____T_E_S_T____0Ev
FN:241,_ZN4mfem19build_dof_to_arrays7GetMeshENS0_8MeshTypeE
FNDA:0,_ZN4mfem19build_dof_to_arrays7GetMeshENS0_8MeshTypeE
FNDA:0,_ZN4mfem19build_dof_to_arraysL29____C_A_T_C_H____T_E_S_T____0Ev
FNF:2
FNH:0
DA:53,0
DA:57,0
DA:59,0
DA:61,0
DA:62,0
DA:64,0
DA:65,0
DA:66,0
DA:67,0
DA:68,0
DA:70,0
DA:71,0
DA:73,0
DA:76,0
DA:78,0
DA:79,0
DA:81,0
DA:82,0
DA:83,0
DA:84,0
DA:86,0
DA:87,0
DA:88,0
DA:90,0
DA:92,0
DA:93,0
DA:94,0
DA:96,0
DA:98,0
DA:100,0
DA:102,0
DA:104,0
DA:108,0
DA:110,0
DA:111,0
DA:113,0
DA:115,0
DA:117,0
DA:118,0
DA:120,0
DA:122,0
DA:124,0
DA:126,0
DA:128,0
DA:130,0
DA:132,0
DA:133,0
DA:134,0
DA:137,0
DA:241,0
DA:243,0
DA:245,0
DA:247,0
DA:248,0
DA:249,0
DA:250,0
DA:252,0
DA:254,0
DA:255,0
DA:256,0
DA:257,0
DA:258,0
DA:259,0
DA:260,0
DA:261,0
DA:262,0
DA:264,0
DA:265,0
DA:266,0
DA:267,0
DA:268,0
DA:269,0
DA:270,0
DA:271,0
DA:273,0
DA:274,0
DA:275,0
DA:276,0
DA:277,0
DA:278,0
DA:279,0
DA:280,0
DA:281,0
DA:283,0
DA:284,0
DA:285,0
DA:286,0
DA:287,0
DA:288,0
DA:289,0
DA:290,0
DA:291,0
DA:293,0
DA:294,0
DA:295,0
DA:296,0
DA:297,0
DA:298,0
DA:299,0
DA:300,0
DA:301,0
DA:302,0
DA:304,0
DA:305,0
DA:306,0
DA:307,0
DA:308,0
DA:309,0
DA:310,0
DA:311,0
DA:312,0
DA:313,0
DA:314,0
DA:315,0
DA:316,0
DA:318,0
DA:319,0
DA:320,0
DA:321,0
DA:322,0
DA:323,0
DA:324,0
DA:325,0
DA:326,0
DA:327,0
DA:328,0
DA:329,0
DA:330,0
DA:331,0
DA:332,0
DA:334,0
DA:335,0
DA:336,0
DA:337,0
DA:338,0
DA:339,0
DA:340,0
DA:341,0
DA:342,0
DA:343,0
DA:344,0
DA:345,0
DA:346,0
DA:347,0
DA:348,0
DA:349,0
DA:350,0
DA:351,0
DA:352,0
DA:354,0
DA:356,0
DA:358,0
DA:359,0
DA:360,0
DA:361,0
DA:362,0
DA:363,0
DA:364,0
DA:365,0
DA:366,0
DA:367,0
DA:368,0
DA:369,0
DA:375,0
DA:376,0
DA:377,0
DA:378,0
DA:379,0
DA:380,0
DA:381,0
DA:382,0
DA:383,0
DA:384,0
DA:386,0
DA:387,0
DA:388,0
DA:389,0
DA:390,0
DA:391,0
DA:392,0
DA:393,0
DA:394,0
DA:395,0
DA:396,0
DA:397,0
DA:398,0
DA:400,0
DA:401,0
DA:402,0
DA:403,0
DA:404,0
DA:405,0
DA:406,0
DA:407,0
DA:408,0
DA:409,0
DA:410,0
DA:411,0
DA:412,0
DA:413,0
DA:414,0
DA:415,0
DA:416,0
DA:417,0
DA:419,0
DA:420,0
DA:421,0
DA:422,0
DA:423,0
DA:424,0
DA:425,0
DA:426,0
DA:427,0
DA:428,0
DA:429,0
DA:430,0
DA:431,0
DA:432,0
DA:433,0
DA:434,0
DA:435,0
DA:436,0
DA:437,0
DA:439,0
DA:440,0
DA:441,0
DA:442,0
DA:443,0
DA:444,0
DA:445,0
DA:446,0
DA:447,0
DA:448,0
DA:449,0
DA:450,0
DA:451,0
DA:452,0
DA:453,0
DA:454,0
DA:455,0
DA:456,0
DA:457,0
DA:459,0
DA:460,0
DA:461,0
DA:462,0
DA:463,0
DA:464,0
DA:465,0
DA:466,0
DA:467,0
DA:469,0
DA:471,0
LF:253
LH:0
end_of_record
TN:
SF:/root/mfem/tests/unit/fem/test_calccurlshape.cpp
FN:42,_Z14test_curl_funcRKN4mfem6VectorERS0_
FN:61,_Z17TestCalcCurlShapePN4mfem13FiniteElementEPNS_21ElementTransformationEi
FN:108,_ZL29____C_A_T_C_H____T_E_S_T____0v
FNDA:0,_Z14test_curl_funcRKN4mfem6VectorERS0_
FNDA:0,_Z17TestCalcCurlShapePN4mfem13FiniteElementEPNS_21ElementTransformationEi
FNDA:0,_ZL29____C_A_T_C_H____T_E_S_T____0v
FNF:3
FNH:0
DA:42,0
DA:44,0
DA:45,0
DA:46,0
DA:47,0
DA:48,0
DA:50,0
DA:51,0
DA:52,0
DA:54,0
DA:61,0
DA:63,0
DA:64,0
DA:65,0
DA:67,0
DA:68,0
DA:69,0
DA:71,0
DA:73,0
DA:76,0
DA:77,0
DA:79,0
DA:80,0
DA:83,0
DA:87,0
DA:88,0
DA:92,0
DA:94,0
DA:95,0
DA:97,0
DA:98,0
DA:99,0
DA:101,0
DA:102,0
DA:106,0
DA:108,0
DA:115,0
DA:116,0
DA:118,0
DA:119,0
DA:120,0
DA:121,0
DA:123,0
DA:125,0
DA:126,0
DA:127,0
DA:128,0
DA:132,0
DA:133,0
DA:134,0
DA:135,0
DA:137,0
DA:139,0
DA:140,0
DA:141,0
DA:142,0
DA:146,0
DA:147,0
DA:148,0
DA:149,0
DA:151,0
DA:153,0
DA:154,0
DA:155,0
DA:156,0
DA:160,0
DA:161,0
DA:162,0
DA:163,0
DA:165,0
DA:167,0
DA:168,0
DA:169,0
DA:170,0
DA:174,0
DA:175,0
DA:176,0
DA:177,0
DA:179,0
DA:181,0
DA:182,0
DA:183,0
DA:184,0
DA:187,0
LF:84
LH:0
end_of_record
TN:
SF:/root/mfem/tests/unit/fem/test_calcdivshape.cpp
FN:42,_Z13test_div_funcRKN4mfem6VectorERS0_
FN:59,_Z16TestCalcDivShapePN4mfem13FiniteElementEPNS_21ElementTransformationEi
FN:98,_ZL29____C_A_T_C_H____T_E_S_T____0v
FNDA:0,_Z13test_div_funcRKN4mfem6VectorERS0_
FNDA:0,_Z16TestCalcDivShapePN4mfem13FiniteElementEPNS_21ElementTransformationEi
FNDA:0,_ZL29____C_A_T_C_H____T_E_S_T____0v
FNF:3
FNH:0
DA:42,0
DA:44,0
DA:45,0
DA:46,0
DA:47,0
DA:48,0
DA:50,0
DA:52,0
DA:59,0
DA:61,0
DA:62,0
DA:64,0
DA:65,0
DA:67,0
DA:69,0
DA:72,0
DA:73,0
DA:75,0
DA:76,0
DA:79,0
DA:83,0
DA:84,0
DA:88,0
DA:90,0
DA:91,0
DA:93,0
DA:96,0
DA:98,0
DA:105,0
DA:106,0
DA:108,0
DA:109,0
DA:110,0
DA:111,0
DA:113,0
DA:115,0
DA:116,0
DA:117,0
DA:118,0
DA:122,0
DA:123,0
DA:124,0
DA:125,0
DA:127,0
DA:129,0
DA:130,0
DA:131,0
DA:132,0
DA:136,0
DA:137,0
DA:138,0
DA:139,0
DA:141,0
DA:143,0
DA:144,0
DA:145,0
DA:146,0
DA:150,0
DA:151,0
DA:152,0
DA:153,0
DA:155,0
DA:157,0
DA:158,0
DA:159,0
DA:160,0
DA:164,0
DA:165,0
DA:166,0
DA:167,0
DA:169,0
DA:171,0
DA:172,0
DA:173,0
DA:174,0
DA:177,0
LF:76
LH:0
end_of_record
TN:
SF:/root/mfem/tests/unit/fem/test_calcdshape.cpp
FN:43,_Z14test_grad_funcRKN4mfem6VectorE
FN:63,_Z14TestCalcDShapePN4mfem13FiniteElementEPNS_21ElementTransformationEi
FN:112,_ZL29____C_A_T_C_H____T_E_S_T____0v
FNDA:0,_Z14TestCalcDShapePN4mfem13FiniteElementEPNS_21ElementTransformationEi
FNDA:0,_Z14test_grad_funcRKN4mfem6VectorE
FNDA:0,_ZL29____C_A_T_C_H____T_E_S_T____0v
FNF:3
FNH:0
DA:43,0
DA:45,0
DA:46,0
DA:47,0
DA:49,0
DA:51,0
DA:53,0
DA:55,0
DA:63,0
DA:65,0
DA:66,0
DA:68,0
DA:69,0
DA:70,0
DA:72,0
DA:74,0
DA:77,0
DA:78,0
DA:80,0
DA:81,0
DA:84,0
DA:88,0
DA:89,0
DA:93,0
DA:95,0
DA:96,0
DA:98,0
DA:99,0
DA:100,0
DA:102,0
DA:104,0
DA:106,0
DA:110,0
DA:112,0
DA:120,0
DA:121,0
DA:123,0
DA:124,0
DA:125,0
DA:126,0
DA:128,0
DA:130,0
DA:131,0
DA:132,0
DA:133,0
DA:137,0
DA:138,0
DA:139,0
DA:140,0
DA:142,0
DA:144,0
DA:145,0
DA:146,0
DA:147,0
DA:151,0
DA:152,0
DA:153,0
DA:154,0
DA:156,0
DA:158,0
DA:159,0
DA:160,0
DA:161,0
DA:165,0
DA:166,0
DA:167,0
DA:168,0
DA:170,0
DA:172,0
DA:173,0
DA:174,0
DA:175,0
DA:179,0
DA:180,0
DA:181,0
DA:182,0
DA:184,0
DA:186,0
DA:187,0
DA:188,0
DA:189,0
DA:193,0
DA:194,0
DA:195,0
DA:196,0
DA:198,0
DA:200,0
DA:201,0
DA:202,0
DA:203,0
DA:206,0
LF:91
LH:0
end_of_record
TN:
SF:/root/mfem/tests/unit/fem/test_calcshape.cpp
FN:25,_Z27GetRelatedIntegrationPointsRKN4mfem16IntegrationPointEiRNS_5ArrayIS0_EE
FN:78,_Z13TestCalcShapePN4mfem13FiniteElementEid
FN:111,_ZL29____C_A_T_C_H____T_E_S_T____0v
FN:158,_ZL29____C_A_T_C_H____T_E_S_T____6v
FNDA:0,_Z13TestCalcShapePN4mfem13FiniteElementEid
FNDA:0,_Z27GetRelatedIntegrationPointsRKN4mfem16IntegrationPointEiRNS_5ArrayIS0_EE
FNDA:0,_ZL29____C_A_T_C_H____T_E_S_T____0v
FNDA:0,_ZL29____C_A_T_C_H____T_E_S_T____6v
FNF:4
FNH:0
DA:25,0
DA:28,0
DA:29,0
DA:31,0
DA:33,0
DA:34,0
DA:36,0
DA:37,0
DA:38,0
DA:39,0
DA:40,0
DA:41,0
DA:43,0
DA:44,0
DA:45,0
DA:46,0
DA:47,0
DA:48,0
DA:49,0
DA:50,0
DA:51,0
DA:52,0
DA:54,0
DA:55,0
DA:56,0
DA:57,0
DA:58,0
DA:59,0
DA:60,0
DA:61,0
DA:62,0
DA:63,0
DA:64,0
DA:65,0
DA:66,0
DA:67,0
DA:68,0
DA:69,0
DA:71,0
DA:78,0
DA:80,0
DA:82,0
DA:85,0
DA:86,0
DA:88,0
DA:89,0
DA:92,0
DA:96,0
DA:97,0
DA:101,0
DA:103,0
DA:104,0
DA:105,0
DA:108,0
DA:111,0
DA:117,0
DA:118,0
DA:120,0
DA:122,0
DA:124,0
DA:125,0
DA:126,0
DA:127,0
DA:131,0
DA:132,0
DA:133,0
DA:134,0
DA:135,0
DA:138,0
DA:139,0
DA:140,0
DA:141,0
DA:142,0
DA:146,0
DA:147,0
DA:148,0
DA:149,0
DA:153,0
DA:154,0
DA:156,0
DA:158,0
DA:166,0
DA:167,0
DA:169,0
DA:171,0
DA:173,0
DA:174,0
DA:175,0
DA:176,0
DA:180,0
DA:182,0
DA:184,0
DA:185,0
DA:186,0
DA:187,0
DA:191,0
DA:193,0
DA:195,0
DA:196,0
DA:197,0
DA:198,0
DA:202,0
DA:204,0
DA:206,0
DA:207,0
DA:208,0
DA:209,0
DA:213,0
DA:215,0
DA:217,0
DA:218,0
DA:219,0
DA:220,0
DA:224,0
DA:226,0
DA:228,0
DA:229,0
DA:230,0
DA:231,0
DA:235,0
LF:120
LH:0
end_of_record
TN:
SF:/root/mfem/tests/unit/fem/test_calcvshape.cpp
FN:34,_Z26GetReferenceTransformationN4mfem7Element4TypeERNS_27IsoparametricTransformationE
FN:152,_Z14TestCalcVShapePN4mfem13FiniteElementEPNS_21ElementTransformationEi
FN:214,_ZL29____C_A_T_C_H____T_E_S_T____0v
FN:310,_ZL29____C_A_T_C_H____T_E_S_T____8v
FNDA:0,_Z14TestCalcVShapePN4mfem13FiniteElementEPNS_21ElementTransformationEi
FNDA:0,_Z26GetReferenceTransformationN4mfem7Element4TypeERNS_27IsoparametricTransformationE
FNDA:0,_ZL29____C_A_T_C_H____T_E_S_T____0v
FNDA:0,_ZL29____C_A_T_C_H____T_E_S_T____8v
FNF:4
FNH:0
DA:34,0
DA:37,0
DA:38,0
DA:40,0
DA:42,0
DA:43,0
DA:44,0
DA:45,0
DA:47,0
DA:48,0
DA:49,0
DA:50,0
DA:51,0
DA:53,0
DA:54,0
DA:55,0
DA:56,0
DA:57,0
DA:58,0
DA:59,0
DA:60,0
DA:61,0
DA:63,0
DA:64,0
DA:65,0
DA:66,0
DA:67,0
DA:68,0
DA:69,0
DA:70,0
DA:71,0
DA:72,0
DA:73,0
DA:75,0
DA:76,0
DA:77,0
DA:78,0
DA:79,0
DA:80,0
DA:81,0
DA:82,0
DA:83,0
DA:84,0
DA:85,0
DA:86,0
DA:87,0
DA:88,0
DA:89,0
DA:91,0
DA:92,0
DA:93,0
DA:94,0
DA:95,0
DA:96,0
DA:97,0
DA:98,0
DA:99,0
DA:100,0
DA:101,0
DA:102,0
DA:103,0
DA:104,0
DA:105,0
DA:106,0
DA:107,0
DA:108,0
DA:109,0
DA:110,0
DA:111,0
DA:112,0
DA:113,0
DA:114,0
DA:115,0
DA:116,0
DA:117,0
DA:119,0
DA:120,0
DA:121,0
DA:122,0
DA:123,0
DA:124,0
DA:125,0
DA:126,0
DA:127,0
DA:128,0
DA:129,0
DA:130,0
DA:131,0
DA:132,0
DA:133,0
DA:134,0
DA:135,0
DA:136,0
DA:137,0
DA:138,0
DA:139,0
DA:141,0
DA:142,0
DA:143,0
DA:145,0
DA:152,0
DA:154,0
DA:155,0
DA:157,0
DA:158,0
DA:159,0
DA:160,0
DA:161,0
DA:162,0
DA:163,0
DA:164,0
DA:165,0
DA:166,0
DA:168,0
DA:169,0
DA:170,0
DA:172,0
DA:173,0
DA:174,0
DA:177,0
DA:178,0
DA:180,0
DA:181,0
DA:184,0
DA:188,0
DA:189,0
DA:193,0
DA:195,0
DA:196,0
DA:198,0
DA:199,0
DA:200,0
DA:202,0
DA:203,0
DA:205,0
DA:207,0
DA:208,0
DA:212,0
DA:214,0
DA:222,0
DA:223,0
DA:225,0
DA:226,0
DA:227,0
DA:228,0
DA:230,0
DA:232,0
DA:233,0
DA:234,0
DA:235,0
DA:239,0
DA:240,0
DA:241,0
DA:242,0
DA:244,0
DA:246,0
DA:247,0
DA:248,0
DA:249,0
DA:253,0
DA:254,0
DA:255,0
DA:256,0
DA:258,0
DA:260,0
DA:261,0
DA:262,0
DA:263,0
DA:267,0
DA:268,0
DA:269,0
DA:270,0
DA:272,0
DA:274,0
DA:275,0
DA:276,0
DA:277,0
DA:281,0
DA:282,0
DA:283,0
DA:284,0
DA:286,0
DA:288,0
DA:289,0
DA:290,0
DA:291,0
DA:295,0
DA:296,0
DA:297,0
DA:298,0
DA:300,0
DA:302,0
DA:303,0
DA:304,0
DA:305,0
DA:308,0
DA:310,0
DA:317,0
DA:318,0
DA:320,0
DA:321,0
DA:322,0
DA:323,0
DA:325,0
DA:327,0
DA:328,0
DA:329,0
DA:330,0
DA:334,0
DA:335,0
DA:336,0
DA:337,0
DA:339,0
DA:341,0
DA:342,0
DA:343,0
DA:344,0
DA:348,0
DA:349,0
DA:350,0
DA:351,0
DA:353,0
DA:355,0
DA:356,0
DA:357,0
DA:358,0
DA:362,0
DA:363,0
DA:364,0
DA:365,0
DA:367,0
DA:369,0
DA:370,0
DA:371,0
DA:372,0
DA:376,0
DA:377,0
DA:378,0
DA:379,0
DA:381,0
DA:383,0
DA:384,0
DA:385,0
DA:386,0
DA:389,0
LF:245
LH:0
end_of_record
TN:
SF:/root/mfem/tests/unit/fem/test_coefficient.cpp
FN:17,_ZL29____C_A_T_C_H____T_E_S_T____0v
FN:98,_ZL29____C_A_T_C_H____T_E_S_T____4v
FN:204,_ZL29____C_A_T_C_H____T_E_S_T____8v
FNDA:0,_ZL29____C_A_T_C_H____T_E_S_T____0v
FNDA:0,_ZL29____C_A_T_C_H____T_E_S_T____4v
FNDA:0,_ZL29____C_A_T_C_H____T_E_S_T____8v
FNF:3
FNH:0
DA:17,0
DA:20,0
DA:21,0
DA:22,0
DA:23,0
DA:25,0
DA:26,0
DA:28,0
DA:29,0
DA:31,0
DA:32,0
DA:33,0
DA:34,0
DA:36,0
DA:37,0
DA:38,0
DA:41,0
DA:42,0
DA:44,0
DA:45,0
DA:48,0
DA:51,0
DA:52,0
DA:53,0
DA:56,0
DA:58,0
DA:59,0
DA:61,0
DA:62,0
DA:64,0
DA:65,0
DA:68,0
DA:69,0
DA:70,0
DA:73,0
DA:74,0
DA:75,0
DA:77,0
DA:78,0
DA:79,0
DA:82,0
DA:83,0
DA:85,0
DA:86,0
DA:88,0
DA:89,0
DA:92,0
DA:93,0
DA:94,0
DA:96,0
DA:98,0
DA:101,0
DA:103,0
DA:104,0
DA:105,0
DA:106,0
DA:107,0
DA:109,0
DA:110,0
DA:111,0
DA:112,0
DA:114,0
DA:115,0
DA:116,0
DA:117,0
DA:119,0
DA:120,0
DA:122,0
DA:123,0
DA:125,0
DA:126,0
DA:127,0
DA:128,0
DA:130,0
DA:131,0
DA:132,0
DA:135,0
DA:136,0
DA:137,0
DA:139,0
DA:140,0
DA:141,0
DA:144,0
DA:147,0
DA:148,0
DA:149,0
DA:150,0
DA:153,0
DA:155,0
DA:156,0
DA:157,0
DA:159,0
DA:160,0
DA:161,0
DA:163,0
DA:164,0
DA:165,0
DA:168,0
DA:169,0
DA:170,0
DA:171,0
DA:174,0
DA:175,0
DA:176,0
DA:177,0
DA:179,0
DA:180,0
DA:181,0
DA:184,0
DA:185,0
DA:186,0
DA:188,0
DA:189,0
DA:190,0
DA:192,0
DA:193,0
DA:194,0
DA:197,0
DA:198,0
DA:199,0
DA:200,0
DA:202,0
DA:204,0
DA:207,0
DA:209,0
DA:210,0
DA:211,0
DA:212,0
DA:213,0
DA:215,0
DA:216,0
DA:217,0
DA:218,0
DA:220,0
DA:221,0
DA:222,0
DA:223,0
DA:225,0
DA:226,0
DA:228,0
DA:229,0
DA:231,0
DA:232,0
DA:233,0
DA:234,0
DA:236,0
DA:237,0
DA:238,0
DA:241,0
DA:242,0
DA:243,0
DA:245,0
DA:246,0
DA:247,0
DA:250,0
DA:253,0
DA:254,0
DA:255,0
DA:256,0
DA:259,0
DA:261,0
DA:262,0
DA:263,0
DA:265,0
DA:266,0
DA:267,0
DA:269,0
DA:270,0
DA:271,0
DA:274,0
DA:275,0
DA:276,0
DA:277,0
DA:280,0
DA:281,0
DA:282,0
DA:283,0
DA:285,0
DA:286,0
DA:287,0
DA:290,0
DA:291,0
DA:292,0
DA:294,0
DA:295,0
DA:296,0
DA:298,0
DA:299,0
DA:300,0
DA:303,0
DA:304,0
DA:305,0
DA:306,0
DA:308,0
LF:194
LH:0
end_of_record
TN:
SF:/root/mfem/tests/unit/fem/test_datacollection.cpp
FN:26,_ZL29____C_A_T_C_H____T_E_S_T____0v
FN:240,_Z18SaveDataCollectionRN4mfem14DataCollectionEid
FN:247,_ZL29____C_A_T_C_H____T_E_S_T____4v
FN:282,_ZZL29____C_A_T_C_H____T_E_S_T____4vENKUlPKN8tinyxml210XMLElementEdE0_clES2_d
FNDA:0,_Z18SaveDataCollectionRN4mfem14DataCollectionEid
FNDA:0,_ZL29____C_A_T_C_H____T_E_S_T____0v
FNDA:0,_ZL29____C_A_T_C_H____T_E_S_T____4v
FNDA:0,_ZZL29____C_A_T_C_H____T_E_S_T____4vENKUlPKN8tinyxml210XMLElementEdE0_clES2_d
FNF:4
FNH:0
DA:26,0
DA:28,0
DA:29,0
DA:30,0
DA:32,0
DA:33,0
DA:34,0
DA:35,0
DA:36,0
DA:38,0
DA:39,0
DA:41,0
DA:42,0
DA:45,0
DA:47,0
DA:48,0
DA:49,0
DA:51,0
DA:52,0
DA:54,0
DA:55,0
DA:56,0
DA:60,0
DA:61,0
DA:62,0
DA:65,0
DA:66,0
DA:67,0
DA:68,0
DA:69,0
DA:70,0
DA:71,0
DA:72,0
DA:73,0
DA:74,0
DA:75,0
DA:76,0
DA:77,0
DA:78,0
DA:79,0
DA:80,0
DA:81,0
DA:82,0
DA:85,0
DA:86,0
DA:88,0
DA:89,0
DA:90,0
DA:91,0
DA:92,0
DA:93,0
DA:94,0
DA:95,0
DA:96,0
DA:97,0
DA:98,0
DA:99,0
DA:100,0
DA:103,0
DA:104,0
DA:105,0
DA:106,0
DA:107,0
DA:108,0
DA:112,0
DA:113,0
DA:115,0
DA:116,0
DA:117,0
DA:118,0
DA:119,0
DA:123,0
DA:124,0
DA:125,0
DA:126,0
DA:127,0
DA:131,0
DA:132,0
DA:133,0
DA:134,0
DA:135,0
DA:138,0
DA:139,0
DA:140,0
DA:141,0
DA:142,0
DA:143,0
DA:144,0
DA:238,0
DA:240,0
DA:242,0
DA:243,0
DA:244,0
DA:245,0
DA:247,0
DA:249,0
DA:250,0
DA:251,0
DA:252,0
DA:253,0
DA:256,0
DA:257,0
DA:258,0
DA:259,0
DA:260,0
DA:261,0
DA:266,0
DA:267,0
DA:268,0
DA:269,0
DA:270,0
DA:271,0
DA:276,0
DA:277,0
DA:279,0
DA:280,0
DA:282,0
DA:284,0
DA:285,0
DA:286,0
DA:287,0
DA:288,0
DA:289,0
DA:290,0
DA:292,0
DA:293,0
DA:294,0
DA:296,0
DA:297,0
DA:298,0
DA:299,0
DA:300,0
DA:301,0
DA:303,0
DA:304,0
DA:305,0
DA:306,0
DA:307,0
DA:308,0
DA:309,0
DA:312,0
DA:314,0
DA:315,0
DA:316,0
DA:317,0
DA:319,0
DA:320,0
DA:321,0
LF:148
LH:0
end_of_record
TN:
SF:/root/mfem/tests/unit/fem/test_derefine.cpp
FN:21,_ZN8derefine5coeffERKN4mfem6VectorE
FN:33,_ZN8derefineL29____C_A_T_C_H____T_E_S_T____0Ev
FNDA:0,_ZN8derefine5coeffERKN4mfem6VectorE
FNDA:0,_ZN8derefineL29____C_A_T_C_H____T_E_S_T____0Ev
FNF:2
FNH:0
DA:21,0
DA:23,0
DA:25,0
DA:29,0
DA:33,0
DA:35,0
DA:37,0
DA:39,0
DA:42,0
DA:43,0
DA:44,0
DA:46,0
DA:47,0
DA:51,0
DA:52,0
DA:55,0
DA:56,0
DA:58,0
DA:60,0
DA:62,0
DA:64,0
DA:65,0
DA:67,0
DA:68,0
DA:70,0
DA:71,0
DA:72,0
DA:74,0
DA:77,0
DA:79,0
DA:80,0
DA:83,0
DA:85,0
DA:86,0
DA:87,0
DA:89,0
DA:90,0
DA:93,0
DA:94,0
DA:95,0
DA:96,0
DA:98,0
DA:99,0
DA:100,0
DA:101,0
DA:102,0
DA:103,0
DA:105,0
DA:106,0
DA:108,0
DA:109,0
DA:113,0
LF:52
LH:0
end_of_record
TN:
SF:/root/mfem/tests/unit/fem/test_doftrans.cpp
FN:20,_ZN8doftransL29____C_A_T_C_H____T_E_S_T____0Ev
FN:139,_ZN8doftransL29____C_A_T_C_H____T_E_S_T____8Ev
FN:238,_ZN8doftransL30____C_A_T_C_H____T_E_S_T____12Ev
FNDA:0,_ZN8doftransL29____C_A_T_C_H____T_E_S_T____0Ev
FNDA:0,_ZN8doftransL29____C_A_T_C_H____T_E_S_T____8Ev
FNDA:0,_ZN8doftransL30____C_A_T_C_H____T_E_S_T____12Ev
FNF:3
FNH:0
DA:20,0
DA:24,0
DA:25,0
DA:27,0
DA:29,0
DA:30,0
DA:31,0
DA:33,0
DA:34,0
DA:35,0
DA:36,0
DA:37,0
DA:39,0
DA:41,0
DA:42,0
DA:43,0
DA:44,0
DA:45,0
DA:46,0
DA:48,0
DA:49,0
DA:50,0
DA:52,0
DA:53,0
DA:54,0
DA:56,0
DA:57,0
DA:59,0
DA:61,0
DA:63,0
DA:64,0
DA:65,0
DA:67,0
DA:68,0
DA:70,0
DA:72,0
DA:75,0
DA:76,0
DA:77,0
DA:78,0
DA:80,0
DA:82,0
DA:85,0
DA:86,0
DA:87,0
DA:88,0
DA:90,0
DA:91,0
DA:95,0
DA:96,0
DA:98,0
DA:99,0
DA:100,0
DA:102,0
DA:103,0
DA:105,0
DA:106,0
DA:107,0
DA:109,0
DA:111,0
DA:112,0
DA:113,0
DA:115,0
DA:116,0
DA:119,0
DA:120,0
DA:121,0
DA:123,0
DA:124,0
DA:126,0
DA:127,0
DA:128,0
DA:130,0
DA:132,0
DA:133,0
DA:134,0
DA:137,0
DA:139,0
DA:144,0
DA:145,0
DA:147,0
DA:149,0
DA:150,0
DA:152,0
DA:153,0
DA:154,0
DA:155,0
DA:156,0
DA:158,0
DA:159,0
DA:161,0
DA:162,0
DA:163,0
DA:164,0
DA:166,0
DA:167,0
DA:171,0
DA:172,0
DA:176,0
DA:177,0
DA:178,0
DA:179,0
DA:181,0
DA:182,0
DA:184,0
DA:185,0
DA:187,0
DA:188,0
DA:189,0
DA:190,0
DA:192,0
DA:193,0
DA:194,0
DA:195,0
DA:197,0
DA:199,0
DA:200,0
DA:201,0
DA:202,0
DA:204,0
DA:205,0
DA:208,0
DA:209,0
DA:210,0
DA:211,0
DA:213,0
DA:214,0
DA:216,0
DA:217,0
DA:219,0
DA:220,0
DA:221,0
DA:222,0
DA:224,0
DA:225,0
DA:226,0
DA:227,0
DA:229,0
DA:231,0
DA:232,0
DA:233,0
DA:234,0
DA:236,0
DA:238,0
DA:242,0
DA:243,0
DA:244,0
DA:246,0
DA:248,0
DA:250,0
DA:251,0
DA:252,0
DA:253,0
DA:254,0
DA:256,0
DA:258,0
DA:259,0
DA:260,0
DA:262,0
DA:263,0
DA:264,0
DA:265,0
DA:267,0
DA:268,0
DA:270,0
DA:271,0
DA:272,0
DA:274,0
DA:275,0
DA:277,0
DA:279,0
DA:281,0
DA:282,0
DA:283,0
DA:285,0
DA:286,0
DA:288,0
DA:290,0
DA:292,0
DA:293,0
DA:294,0
DA:295,0
DA:297,0
DA:299,0
DA:302,0
DA:303,0
DA:304,0
DA:305,0
DA:306,0
DA:307,0
DA:309,0
DA:310,0
DA:312,0
DA:313,0
DA:314,0
DA:316,0
DA:317,0
DA:318,0
DA:320,0
DA:321,0
DA:323,0
DA:325,0
DA:327,0
DA:328,0
DA:329,0
DA:331,0
DA:332,0
DA:334,0
DA:336,0
DA:338,0
DA:339,0
DA:340,0
DA:341,0
DA:343,0
DA:345,0
DA:348,0
DA:349,0
DA:350,0
DA:352,0
DA:353,0
DA:354,0
DA:356,0
DA:357,0
DA:359,0
DA:361,0
DA:363,0
DA:364,0
DA:365,0
DA:367,0
DA:368,0
DA:370,0
DA:372,0
DA:374,0
DA:375,0
DA:376,0
DA:377,0
DA:379,0
DA:381,0
DA:385,0
LF:239
LH:0
end_of_record
TN:
SF:/root/mfem/tests/unit/fem/test_domain_int.cpp
FN:24,_ZN10domain_int8integralEi
FN:72,_ZN10domain_intL29____C_A_T_C_H____T_E_S_T____0Ev
FN:147,_ZN10domain_intL29____C_A_T_C_H____T_E_S_T____3Ev
FN:430,_ZN10domain_int7GetMeshENS_8MeshTypeE
FNDA:0,_ZN10domain_int7GetMeshENS_8MeshTypeE
FNDA:0,_ZN10domain_int8integralEi
FNDA:0,_ZN10domain_intL29____C_A_T_C_H____T_E_S_T____0Ev
FNDA:0,_ZN10domain_intL29____C_A_T_C_H____T_E_S_T____3Ev
FNF:4
FNH:0
DA:24,0
DA:26,0
DA:28,0
DA:30,0
DA:32,0
DA:36,0
DA:72,0
DA:78,0
DA:80,0
DA:81,0
DA:83,0
DA:84,0
DA:85,0
DA:87,0
DA:89,0
DA:91,0
DA:92,0
DA:94,0
DA:96,0
DA:98,0
DA:99,0
DA:101,0
DA:102,0
DA:104,0
DA:105,0
DA:107,0
DA:108,0
DA:110,0
DA:112,0
DA:113,0
DA:115,0
DA:117,0
DA:118,0
DA:120,0
DA:121,0
DA:122,0
DA:124,0
DA:126,0
DA:128,0
DA:130,0
DA:132,0
DA:136,0
DA:139,0
DA:143,0
DA:145,0
DA:147,0
DA:153,0
DA:155,0
DA:156,0
DA:158,0
DA:159,0
DA:160,0
DA:161,0
DA:163,0
DA:164,0
DA:165,0
DA:166,0
DA:167,0
DA:168,0
DA:170,0
DA:171,0
DA:172,0
DA:173,0
DA:175,0
DA:177,0
DA:178,0
DA:179,0
DA:180,0
DA:182,0
DA:184,0
DA:186,0
DA:187,0
DA:189,0
DA:190,0
DA:192,0
DA:193,0
DA:196,0
DA:198,0
DA:200,0
DA:201,0
DA:203,0
DA:204,0
DA:205,0
DA:206,0
DA:207,0
DA:208,0
DA:209,0
DA:210,0
DA:211,0
DA:213,0
DA:214,0
DA:215,0
DA:217,0
DA:219,0
DA:221,0
DA:223,0
DA:224,0
DA:228,0
DA:229,0
DA:230,0
DA:233,0
DA:237,0
DA:239,0
DA:430,0
DA:432,0
DA:434,0
DA:436,0
DA:437,0
DA:438,0
DA:439,0
DA:441,0
DA:443,0
DA:444,0
DA:445,0
DA:446,0
DA:447,0
DA:448,0
DA:449,0
DA:450,0
DA:451,0
DA:453,0
DA:454,0
DA:455,0
DA:456,0
DA:457,0
DA:458,0
DA:459,0
DA:460,0
DA:462,0
DA:463,0
DA:464,0
DA:465,0
DA:466,0
DA:467,0
DA:468,0
DA:469,0
DA:470,0
DA:472,0
DA:473,0
DA:474,0
DA:475,0
DA:476,0
DA:477,0
DA:478,0
DA:479,0
DA:480,0
DA:482,0
DA:483,0
DA:484,0
DA:485,0
DA:486,0
DA:487,0
DA:488,0
DA:489,0
DA:490,0
DA:491,0
DA:493,0
DA:494,0
DA:495,0
DA:496,0
DA:497,0
DA:498,0
DA:499,0
DA:500,0
DA:501,0
DA:502,0
DA:503,0
DA:504,0
DA:505,0
DA:507,0
DA:508,0
DA:509,0
DA:510,0
DA:511,0
DA:512,0
DA:513,0
DA:514,0
DA:515,0
DA:516,0
DA:517,0
DA:518,0
DA:519,0
DA:520,0
DA:521,0
DA:523,0
DA:524,0
DA:525,0
DA:526,0
DA:527,0
DA:528,0
DA:529,0
DA:530,0
DA:531,0
DA:532,0
DA:533,0
DA:534,0
DA:535,0
DA:536,0
DA:537,0
DA:538,0
DA:539,0
DA:540,0
DA:541,0
DA:543,0
DA:545,0
DA:547,0
DA:548,0
DA:549,0
DA:550,0
DA:551,0
DA:552,0
DA:553,0
DA:554,0
DA:555,0
DA:556,0
DA:557,0
DA:558,0
DA:564,0
DA:565,0
DA:566,0
DA:567,0
DA:568,0
DA:569,0
DA:570,0
DA:571,0
DA:572,0
DA:573,0
DA:575,0
DA:576,0
DA:577,0
DA:578,0
DA:579,0
DA:580,0
DA:581,0
DA:582,0
DA:583,0
DA:584,0
DA:585,0
DA:586,0
DA:587,0
DA:589,0
DA:590,0
DA:591,0
DA:592,0
DA:593,0
DA:594,0
DA:595,0
DA:596,0
DA:597,0
DA:598,0
DA:599,0
DA:600,0
DA:601,0
DA:602,0
DA:603,0
DA:604,0
DA:605,0
DA:606,0
DA:608,0
DA:609,0
DA:610,0
DA:611,0
DA:612,0
DA:613,0
DA:614,0
DA:615,0
DA:616,0
DA:617,0
DA:618,0
DA:619,0
DA:620,0
DA:621,0
DA:622,0
DA:623,0
DA:624,0
DA:625,0
DA:626,0
DA:628,0
DA:629,0
DA:630,0
DA:631,0
DA:632,0
DA:633,0
DA:634,0
DA:635,0
DA:636,0
DA:637,0
DA:638,0
DA:639,0
DA:640,0
DA:641,0
DA:642,0
DA:643,0
DA:644,0
DA:645,0
DA:646,0
DA:648,0
DA:649,0
DA:650,0
DA:651,0
DA:652,0
DA:653,0
DA:654,0
DA:655,0
DA:656,0
DA:658,0
DA:660,0
LF:307
LH:0
end_of_record
TN:
SF:/root/mfem/tests/unit/fem/test_eigs.cpp
FN:276,_ZN4eigs7GetMeshENS_8MeshTypeE
FNDA:0,_ZN4eigs7GetMeshENS_8MeshTypeE
FNF:1
FNH:0
DA:276,0
DA:278,0
DA:279,0
DA:280,0
DA:282,0
DA:284,0
DA:285,0
DA:286,0
DA:287,0
DA:288,0
DA:289,0
DA:290,0
DA:291,0
DA:292,0
DA:293,0
DA:294,0
DA:295,0
DA:296,0
DA:298,0
DA:299,0
DA:300,0
DA:301,0
DA:302,0
DA:305,0
DA:306,0
DA:307,0
DA:308,0
DA:309,0
DA:310,0
DA:311,0
DA:312,0
DA:313,0
DA:314,0
DA:316,0
DA:317,0
DA:319,0
DA:320,0
DA:321,0
DA:322,0
DA:323,0
DA:324,0
DA:325,0
DA:326,0
DA:327,0
DA:328,0
DA:330,0
DA:331,0
DA:332,0
DA:333,0
DA:335,0
DA:336,0
DA:337,0
DA:338,0
DA:339,0
DA:340,0
DA:341,0
DA:342,0
DA:343,0
DA:344,0
DA:346,0
DA:347,0
DA:348,0
DA:349,0
DA:351,0
DA:352,0
DA:353,0
DA:354,0
DA:355,0
DA:356,0
DA:357,0
DA:358,0
DA:359,0
DA:360,0
DA:362,0
DA:363,0
DA:364,0
DA:365,0
DA:367,0
DA:368,0
DA:369,0
DA:370,0
DA:371,0
DA:372,0
DA:373,0
DA:374,0
DA:375,0
DA:376,0
DA:377,0
DA:378,0
DA:380,0
DA:381,0
DA:382,0
DA:383,0
DA:384,0
DA:385,0
DA:386,0
DA:387,0
DA:389,0
DA:390,0
DA:391,0
DA:392,0
DA:393,0
DA:394,0
DA:395,0
DA:396,0
DA:397,0
DA:398,0
DA:399,0
DA:400,0
DA:401,0
DA:402,0
DA:404,0
DA:405,0
DA:406,0
DA:407,0
DA:408,0
DA:409,0
DA:410,0
DA:411,0
DA:413,0
DA:414,0
DA:415,0
DA:416,0
DA:417,0
DA:418,0
DA:419,0
DA:420,0
DA:421,0
DA:422,0
DA:423,0
DA:424,0
DA:425,0
DA:426,0
DA:427,0
DA:428,0
DA:429,0
DA:430,0
DA:432,0
DA:433,0
DA:434,0
DA:436,0
DA:437,0
DA:438,0
DA:439,0
DA:440,0
DA:441,0
DA:442,0
DA:443,0
DA:444,0
DA:445,0
DA:446,0
DA:447,0
DA:448,0
DA:449,0
DA:450,0
DA:451,0
DA:452,0
DA:453,0
DA:454,0
DA:455,0
DA:456,0
DA:457,0
DA:458,0
DA:459,0
DA:460,0
DA:461,0
DA:462,0
DA:463,0
DA:464,0
DA:466,0
DA:467,0
DA:468,0
DA:470,0
DA:472,0
DA:473,0
DA:474,0
DA:475,0
DA:477,0
DA:478,0
DA:479,0
DA:480,0
DA:482,0
DA:483,0
DA:484,0
DA:485,0
DA:487,0
DA:488,0
DA:489,0
DA:490,0
DA:497,0
DA:498,0
DA:499,0
DA:500,0
DA:501,0
DA:502,0
DA:503,0
DA:504,0
DA:505,0
DA:506,0
DA:507,0
DA:508,0
DA:509,0
DA:510,0
DA:511,0
DA:512,0
DA:513,0
DA:514,0
DA:516,0
DA:517,0
DA:518,0
DA:519,0
DA:521,0
DA:522,0
DA:523,0
DA:524,0
DA:525,0
DA:526,0
DA:527,0
DA:528,0
DA:529,0
DA:530,0
DA:531,0
DA:532,0
DA:533,0
DA:534,0
DA:535,0
DA:536,0
DA:537,0
DA:538,0
DA:540,0
DA:541,0
DA:542,0
DA:543,0
DA:544,0
DA:545,0
DA:546,0
DA:547,0
DA:548,0
DA:549,0
DA:551,0
DA:552,0
DA:553,0
DA:554,0
DA:555,0
DA:556,0
DA:557,0
DA:558,0
DA:559,0
DA:560,0
DA:561,0
DA:562,0
DA:563,0
DA:564,0
DA:565,0
DA:566,0
DA:567,0
DA:568,0
DA:569,0
DA:570,0
DA:571,0
DA:572,0
DA:574,0
DA:575,0
DA:576,0
DA:577,0
DA:578,0
DA:579,0
DA:580,0
DA:581,0
DA:583,0
DA:584,0
DA:585,0
DA:586,0
DA:587,0
DA:588,0
DA:589,0
DA:590,0
DA:591,0
DA:592,0
DA:593,0
DA:594,0
DA:595,0
DA:596,0
DA:597,0
DA:598,0
DA:599,0
DA:600,0
DA:601,0
DA:602,0
DA:603,0
DA:604,0
DA:605,0
DA:606,0
DA:607,0
DA:608,0
DA:610,0
DA:611,0
DA:612,0
DA:613,0
DA:614,0
DA:615,0
DA:616,0
DA:617,0
DA:618,0
DA:619,0
DA:620,0
DA:621,0
DA:622,0
DA:623,0
DA:625,0
DA:626,0
DA:627,0
DA:628,0
DA:629,0
DA:630,0
DA:631,0
DA:632,0
DA:633,0
DA:634,0
DA:636,0
DA:637,0
DA:638,0
DA:639,0
DA:641,0
DA:642,0
DA:643,0
DA:644,0
DA:645,0
DA:646,0
DA:647,0
DA:648,0
DA:650,0
DA:651,0
DA:652,0
DA:653,0
DA:654,0
DA:655,0
DA:656,0
DA:657,0
DA:658,0
DA:659,0
DA:660,0
DA:661,0
DA:662,0
DA:663,0
DA:664,0
DA:665,0
DA:668,0
DA:670,0
LF:349
LH:0
end_of_record
TN:
SF:/root/mfem/tests/unit/fem/test_estimator.cpp
FNF:0
FNH:0
LF:0
LH:0
end_of_record
TN:
SF:/root/mfem/tests/unit/fem/test_face_elem_trans.cpp
FN:20,_ZN15face_elem_transL29____C_A_T_C_H____T_E_S_T____0Ev
FNDA:0,_ZN15face_elem_transL29____C_A_T_C_H____T_E_S_T____0Ev
FNF:1
FNH:0
DA:20,0
DA:23,0
DA:24,0
DA:25,0
DA:27,0
DA:28,0
DA:30,0
DA:33,0
DA:35,0
DA:37,0
DA:39,0
DA:40,0
DA:42,0
DA:44,0
DA:45,0
DA:46,0
DA:49,0
DA:52,0
DA:53,0
DA:54,0
DA:55,0
DA:56,0
DA:57,0
DA:59,0
DA:61,0
DA:62,0
DA:63,0
DA:65,0
DA:66,0
DA:68,0
DA:69,0
DA:71,0
DA:73,0
DA:75,0
DA:77,0
DA:78,0
DA:80,0
DA:82,0
DA:86,0
DA:89,0
DA:93,0
LF:41
LH:0
end_of_record
TN:
SF:/root/mfem/tests/unit/fem/test_face_permutation.cpp
FN:17,_Z19mesh_2d_orientationii
FN:58,_Z18rotate_3d_verticesPiii
FN:94,_Z19mesh_3d_orientationii
FN:156,_Z4x_fnRKN4mfem6VectorE
FN:157,_Z4y_fnRKN4mfem6VectorE
FN:158,_Z4z_fnRKN4mfem6VectorE
FN:160,_Z19TestFaceRestrictionRN4mfem4MeshEi
FN:208,_ZL29____C_A_T_C_H____T_E_S_T____0v
FN:226,_ZL29____C_A_T_C_H____T_E_S_T____2v
FNDA:0,_Z18rotate_3d_verticesPiii
FNDA:0,_Z19TestFaceRestrictionRN4mfem4MeshEi
FNDA:0,_Z19mesh_2d_orientationii
FNDA:0,_Z19mesh_3d_orientationii
FNDA:0,_Z4x_fnRKN4mfem6VectorE
FNDA:0,_Z4y_fnRKN4mfem6VectorE
FNDA:0,_Z4z_fnRKN4mfem6VectorE
FNDA:0,_ZL29____C_A_T_C_H____T_E_S_T____0v
FNDA:0,_ZL29____C_A_T_C_H____T_E_S_T____2v
FNF:9
FNH:0
DA:17,0
DA:19,0
DA:20,0
DA:21,0
DA:22,0
DA:23,0
DA:24,0
DA:25,0
DA:26,0
DA:27,0
DA:28,0
DA:29,0
DA:30,0
DA:31,0
DA:32,0
DA:33,0
DA:34,0
DA:35,0
DA:36,0
DA:37,0
DA:38,0
DA:39,0
DA:40,0
DA:41,0
DA:43,0
DA:45,0
DA:46,0
DA:47,0
DA:48,0
DA:49,0
DA:50,0
DA:52,0
DA:53,0
DA:54,0
DA:55,0
DA:58,0
DA:60,0
DA:62,0
DA:64,0
DA:65,0
DA:66,0
DA:67,0
DA:68,0
DA:69,0
DA:70,0
DA:71,0
DA:72,0
DA:73,0
DA:74,0
DA:75,0
DA:77,0
DA:79,0
DA:80,0
DA:81,0
DA:84,0
DA:85,0
DA:87,0
DA:89,0
DA:90,0
DA:92,0
DA:94,0
DA:96,0
DA:97,0
DA:98,0
DA:99,0
DA:100,0
DA:101,0
DA:102,0
DA:103,0
DA:104,0
DA:105,0
DA:106,0
DA:107,0
DA:108,0
DA:109,0
DA:110,0
DA:111,0
DA:112,0
DA:113,0
DA:114,0
DA:115,0
DA:116,0
DA:117,0
DA:118,0
DA:119,0
DA:120,0
DA:121,0
DA:122,0
DA:123,0
DA:124,0
DA:126,0
DA:128,0
DA:129,0
DA:130,0
DA:131,0
DA:132,0
DA:133,0
DA:134,0
DA:135,0
DA:136,0
DA:137,0
DA:139,0
DA:140,0
DA:141,0
DA:142,0
DA:143,0
DA:144,0
DA:145,0
DA:146,0
DA:147,0
DA:148,0
DA:150,0
DA:151,0
DA:152,0
DA:153,0
DA:156,0
DA:157,0
DA:158,0
DA:160,0
DA:162,0
DA:163,0
DA:164,0
DA:165,0
DA:167,0
DA:168,0
DA:170,0
DA:172,0
DA:174,0
DA:175,0
DA:177,0
DA:178,0
DA:182,0
DA:186,0
DA:192,0
DA:193,0
DA:195,0
DA:196,0
DA:197,0
DA:199,0
DA:201,0
DA:202,0
DA:205,0
DA:208,0
DA:210,0
DA:211,0
DA:212,0
DA:214,0
DA:216,0
DA:217,0
DA:218,0
DA:219,0
DA:222,0
DA:223,0
DA:224,0
DA:226,0
DA:228,0
DA:229,0
DA:230,0
DA:232,0
DA:234,0
DA:235,0
DA:236,0
DA:237,0
DA:240,0
DA:241,0
DA:242,0
LF:166
LH:0
end_of_record
TN:
SF:/root/mfem/tests/unit/fem/test_fe.cpp
FN:17,_ZL29____C_A_T_C_H____T_E_S_T____0v
FN:49,_ZL29____C_A_T_C_H____T_E_S_T____4v
FN:81,_ZL29____C_A_T_C_H____T_E_S_T____8v
FN:113,_ZL30____C_A_T_C_H____T_E_S_T____12v
FN:145,_ZL30____C_A_T_C_H____T_E_S_T____16v
FN:177,_ZL30____C_A_T_C_H____T_E_S_T____20v
FN:209,_ZL30____C_A_T_C_H____T_E_S_T____24v
FN:240,_ZL30____C_A_T_C_H____T_E_S_T____28v
FN:271,_ZL30____C_A_T_C_H____T_E_S_T____32v
FN:302,_ZL30____C_A_T_C_H____T_E_S_T____36v
FN:333,_ZL30____C_A_T_C_H____T_E_S_T____40v
FN:364,_ZL30____C_A_T_C_H____T_E_S_T____44v
FN:395,_ZL30____C_A_T_C_H____T_E_S_T____48v
FN:426,_ZL30____C_A_T_C_H____T_E_S_T____52v
FN:457,_ZL30____C_A_T_C_H____T_E_S_T____56v
FN:488,_ZL30____C_A_T_C_H____T_E_S_T____60v
FN:520,_ZL30____C_A_T_C_H____T_E_S_T____64v
FN:552,_ZL30____C_A_T_C_H____T_E_S_T____68v
FN:584,_ZL30____C_A_T_C_H____T_E_S_T____72v
FN:616,_ZL30____C_A_T_C_H____T_E_S_T____76v
FN:648,_ZL30____C_A_T_C_H____T_E_S_T____80v
FN:680,_ZL30____C_A_T_C_H____T_E_S_T____84v
FN:704,_ZL30____C_A_T_C_H____T_E_S_T____87v
FNDA:0,_ZL29____C_A_T_C_H____T_E_S_T____0v
FNDA:0,_ZL29____C_A_T_C_H____T_E_S_T____4v
FNDA:0,_ZL29____C_A_T_C_H____T_E_S_T____8v
FNDA:0,_ZL30____C_A_T_C_H____T_E_S_T____12v
FNDA:0,_ZL30____C_A_T_C_H____T_E_S_T____16v
FNDA:0,_ZL30____C_A_T_C_H____T_E_S_T____20v
FNDA:0,_ZL30____C_A_T_C_H____T_E_S_T____24v
FNDA:0,_ZL30____C_A_T_C_H____T_E_S_T____28v
FNDA:0,_ZL30____C_A_T_C_H____T_E_S_T____32v
FNDA:0,_ZL30____C_A_T_C_H____T_E_S_T____36v
FNDA:0,_ZL30____C_A_T_C_H____T_E_S_T____40v
FNDA:0,_ZL30____C_A_T_C_H____T_E_S_T____44v
FNDA:0,_ZL30____C_A_T_C_H____T_E_S_T____48v
FNDA:0,_ZL30____C_A_T_C_H____T_E_S_T____52v
FNDA:0,_ZL30____C_A_T_C_H____T_E_S_T____56v
FNDA:0,_ZL30____C_A_T_C_H____T_E_S_T____60v
FNDA:0,_ZL30____C_A_T_C_H____T_E_S_T____64v
FNDA:0,_ZL30____C_A_T_C_H____T_E_S_T____68v
FNDA:0,_ZL30____C_A_T_C_H____T_E_S_T____72v
FNDA:0,_ZL30____C_A_T_C_H____T_E_S_T____76v
FNDA:0,_ZL30____C_A_T_C_H____T_E_S_T____80v
FNDA:0,_ZL30____C_A_T_C_H____T_E_S_T____84v
FNDA:0,_ZL30____C_A_T_C_H____T_E_S_T____87v
FNF:23
FNH:0
DA:17,0
DA:23,0
DA:25,0
DA:27,0
DA:29,0
DA:30,0
DA:31,0
DA:32,0
DA:33,0
DA:34,0
DA:35,0
DA:36,0
DA:37,0
DA:38,0
DA:41,0
DA:42,0
DA:43,0
DA:44,0
DA:47,0
DA:49,0
DA:55,0
DA:57,0
DA:59,0
DA:61,0
DA:62,0
DA:63,0
DA:64,0
DA:65,0
DA:66,0
DA:67,0
DA:68,0
DA:69,0
DA:70,0
DA:73,0
DA:74,0
DA:75,0
DA:76,0
DA:79,0
DA:81,0
DA:87,0
DA:89,0
DA:91,0
DA:93,0
DA:94,0
DA:95,0
DA:96,0
DA:97,0
DA:98,0
DA:99,0
DA:100,0
DA:101,0
DA:102,0
DA:105,0
DA:106,0
DA:107,0
DA:108,0
DA:111,0
DA:113,0
DA:119,0
DA:121,0
DA:123,0
DA:125,0
DA:126,0
DA:127,0
DA:128,0
DA:129,0
DA:130,0
DA:131,0
DA:132,0
DA:133,0
DA:134,0
DA:137,0
DA:138,0
DA:139,0
DA:140,0
DA:143,0
DA:145,0
DA:151,0
DA:153,0
DA:155,0
DA:157,0
DA:158,0
DA:159,0
DA:160,0
DA:161,0
DA:162,0
DA:163,0
DA:164,0
DA:165,0
DA:166,0
DA:169,0
DA:170,0
DA:171,0
DA:172,0
DA:175,0
DA:177,0
DA:183,0
DA:185,0
DA:187,0
DA:189,0
DA:190,0
DA:191,0
DA:192,0
DA:193,0
DA:194,0
DA:195,0
DA:196,0
DA:197,0
DA:198,0
DA:201,0
DA:202,0
DA:203,0
DA:204,0
DA:207,0
DA:209,0
DA:214,0
DA:216,0
DA:218,0
DA:220,0
DA:221,0
DA:222,0
DA:223,0
DA:224,0
DA:225,0
DA:226,0
DA:227,0
DA:228,0
DA:229,0
DA:232,0
DA:233,0
DA:234,0
DA:235,0
DA:238,0
DA:240,0
DA:245,0
DA:247,0
DA:249,0
DA:251,0
DA:252,0
DA:253,0
DA:254,0
DA:255,0
DA:256,0
DA:257,0
DA:258,0
DA:259,0
DA:260,0
DA:263,0
DA:264,0
DA:265,0
DA:266,0
DA:269,0
DA:271,0
DA:276,0
DA:278,0
DA:280,0
DA:282,0
DA:283,0
DA:284,0
DA:285,0
DA:286,0
DA:287,0
DA:288,0
DA:289,0
DA:290,0
DA:291,0
DA:294,0
DA:295,0
DA:296,0
DA:297,0
DA:300,0
DA:302,0
DA:307,0
DA:309,0
DA:311,0
DA:313,0
DA:314,0
DA:315,0
DA:316,0
DA:317,0
DA:318,0
DA:319,0
DA:320,0
DA:321,0
DA:322,0
DA:325,0
DA:326,0
DA:327,0
DA:328,0
DA:331,0
DA:333,0
DA:338,0
DA:340,0
DA:342,0
DA:344,0
DA:345,0
DA:346,0
DA:347,0
DA:348,0
DA:349,0
DA:350,0
DA:351,0
DA:352,0
DA:353,0
DA:356,0
DA:357,0
DA:358,0
DA:359,0
DA:362,0
DA:364,0
DA:369,0
DA:371,0
DA:373,0
DA:375,0
DA:376,0
DA:377,0
DA:378,0
DA:379,0
DA:380,0
DA:381,0
DA:382,0
DA:383,0
DA:384,0
DA:387,0
DA:388,0
DA:389,0
DA:390,0
DA:393,0
DA:395,0
DA:400,0
DA:402,0
DA:404,0
DA:406,0
DA:407,0
DA:408,0
DA:409,0
DA:410,0
DA:411,0
DA:412,0
DA:413,0
DA:414,0
DA:415,0
DA:418,0
DA:419,0
DA:420,0
DA:421,0
DA:424,0
DA:426,0
DA:431,0
DA:433,0
DA:435,0
DA:437,0
DA:438,0
DA:439,0
DA:440,0
DA:441,0
DA:442,0
DA:443,0
DA:444,0
DA:445,0
DA:446,0
DA:449,0
DA:450,0
DA:451,0
DA:452,0
DA:455,0
DA:457,0
DA:462,0
DA:464,0
DA:466,0
DA:468,0
DA:469,0
DA:470,0
DA:471,0
DA:472,0
DA:473,0
DA:474,0
DA:475,0
DA:476,0
DA:477,0
DA:480,0
DA:481,0
DA:482,0
DA:483,0
DA:486,0
DA:488,0
DA:494,0
DA:496,0
DA:498,0
DA:500,0
DA:501,0
DA:502,0
DA:503,0
DA:504,0
DA:505,0
DA:506,0
DA:507,0
DA:508,0
DA:509,0
DA:512,0
DA:513,0
DA:514,0
DA:515,0
DA:518,0
DA:520,0
DA:526,0
DA:528,0
DA:530,0
DA:532,0
DA:533,0
DA:534,0
DA:535,0
DA:536,0
DA:537,0
DA:538,0
DA:539,0
DA:540,0
DA:541,0
DA:544,0
DA:545,0
DA:546,0
DA:547,0
DA:550,0
DA:552,0
DA:558,0
DA:560,0
DA:562,0
DA:564,0
DA:565,0
DA:566,0
DA:567,0
DA:568,0
DA:569,0
DA:570,0
DA:571,0
DA:572,0
DA:573,0
DA:576,0
DA:577,0
DA:578,0
DA:579,0
DA:582,0
DA:584,0
DA:590,0
DA:592,0
DA:594,0
DA:596,0
DA:597,0
DA:598,0
DA:599,0
DA:600,0
DA:601,0
DA:602,0
DA:603,0
DA:604,0
DA:605,0
DA:608,0
DA:609,0
DA:610,0
DA:611,0
DA:614,0
DA:616,0
DA:622,0
DA:624,0
DA:626,0
DA:628,0
DA:629,0
DA:630,0
DA:631,0
DA:632,0
DA:633,0
DA:634,0
DA:635,0
DA:636,0
DA:637,0
DA:640,0
DA:641,0
DA:642,0
DA:643,0
DA:646,0
DA:648,0
DA:654,0
DA:656,0
DA:658,0
DA:660,0
DA:661,0
DA:662,0
DA:663,0
DA:664,0
DA:665,0
DA:666,0
DA:667,0
DA:668,0
DA:669,0
DA:672,0
DA:673,0
DA:674,0
DA:675,0
DA:678,0
DA:680,0
DA:685,0
DA:687,0
DA:689,0
DA:690,0
DA:691,0
DA:692,0
DA:693,0
DA:694,0
DA:695,0
DA:696,0
DA:697,0
DA:698,0
DA:699,0
DA:700,0
DA:702,0
DA:704,0
DA:709,0
DA:711,0
DA:713,0
DA:714,0
DA:715,0
DA:716,0
DA:717,0
DA:719,0
DA:720,0
DA:721,0
DA:722,0
DA:723,0
DA:724,0
DA:725,0
DA:727,0
LF:431
LH:0
end_of_record
TN:
SF:/root/mfem/tests/unit/fem/test_get_value.cpp
FN:20,_ZN9get_value11func_1D_linERKN4mfem6VectorE
FN:25,_ZN9get_value11func_2D_linERKN4mfem6VectorE
FN:30,_ZN9get_value11func_3D_linERKN4mfem6VectorE
FN:35,_ZN9get_value11Func_2D_linERKN4mfem6VectorERS1_
FN:42,_ZN9get_value11Func_3D_linERKN4mfem6VectorERS1_
FN:50,_ZN9get_value12func_1D_quadERKN4mfem6VectorE
FN:55,_ZN9get_value13dfunc_1D_quadERKN4mfem6VectorERS1_
FN:61,_ZN9get_value12func_2D_quadERKN4mfem6VectorE
FN:66,_ZN9get_value13dfunc_2D_quadERKN4mfem6VectorERS1_
FN:73,_ZN9get_value12Func_2D_quadERKN4mfem6VectorERS1_
FN:80,_ZN9get_value15RotFunc_2D_quadERKN4mfem6VectorERS1_
FN:86,_ZN9get_value15DivFunc_2D_quadERKN4mfem6VectorE
FN:91,_ZN9get_value12func_3D_quadERKN4mfem6VectorE
FN:96,_ZN9get_value13dfunc_3D_quadERKN4mfem6VectorERS1_
FN:104,_ZN9get_value12Func_3D_quadERKN4mfem6VectorERS1_
FN:112,_ZN9get_value16CurlFunc_3D_quadERKN4mfem6VectorERS1_
FN:120,_ZN9get_value15DivFunc_3D_quadERKN4mfem6VectorE
FN:125,_ZN9get_valueL29____C_A_T_C_H____T_E_S_T____0Ev
FN:572,_ZN9get_valueL29____C_A_T_C_H____T_E_S_T____6Ev
FN:1054,_ZN9get_valueL30____C_A_T_C_H____T_E_S_T____13Ev
FN:1581,_ZN9get_valueL30____C_A_T_C_H____T_E_S_T____21Ev
FN:2422,_ZN9get_valueL30____C_A_T_C_H____T_E_S_T____28Ev
FN:3415,_ZN9get_valueL30____C_A_T_C_H____T_E_S_T____36Ev
FN:3619,_ZN9get_valueL30____C_A_T_C_H____T_E_S_T____42Ev
FN:3829,_ZN9get_valueL30____C_A_T_C_H____T_E_S_T____48Ev
FN:4046,_ZN9get_valueL30____C_A_T_C_H____T_E_S_T____54Ev
FN:4296,_ZN9get_valueL30____C_A_T_C_H____T_E_S_T____60Ev
FN:4565,_ZN9get_valueL30____C_A_T_C_H____T_E_S_T____66Ev
FN:4797,_ZN9get_valueL30____C_A_T_C_H____T_E_S_T____72Ev
FNDA:0,_ZN9get_value11Func_2D_linERKN4mfem6VectorERS1_
FNDA:0,_ZN9get_value11Func_3D_linERKN4mfem6VectorERS1_
FNDA:0,_ZN9get_value11func_1D_linERKN4mfem6VectorE
FNDA:0,_ZN9get_value11func_2D_linERKN4mfem6VectorE
FNDA:0,_ZN9get_value11func_3D_linERKN4mfem6VectorE
FNDA:0,_ZN9get_value12Func_2D_quadERKN4mfem6VectorERS1_
FNDA:0,_ZN9get_value12Func_3D_quadERKN4mfem6VectorERS1_
FNDA:0,_ZN9get_value12func_1D_quadERKN4mfem6VectorE
FNDA:0,_ZN9get_value12func_2D_quadERKN4mfem6VectorE
FNDA:0,_ZN9get_value12func_3D_quadERKN4mfem6VectorE
FNDA:0,_ZN9get_value13dfunc_1D_quadERKN4mfem6VectorERS1_
FNDA:0,_ZN9get_value13dfunc_2D_quadERKN4mfem6VectorERS1_
FNDA:0,_ZN9get_value13dfunc_3D_quadERKN4mfem6VectorERS1_
FNDA:0,_ZN9get_value15DivFunc_2D_quadERKN4mfem6VectorE
FNDA:0,_ZN9get_value15DivFunc_3D_quadERKN4mfem6VectorE
FNDA:0,_ZN9get_value15RotFunc_2D_quadERKN4mfem6VectorERS1_
FNDA:0,_ZN9get_value16CurlFunc_3D_quadERKN4mfem6VectorERS1_
FNDA:0,_ZN9get_valueL29____C_A_T_C_H____T_E_S_T____0Ev
FNDA:0,_ZN9get_valueL29____C_A_T_C_H____T_E_S_T____6Ev
FNDA:0,_ZN9get_valueL30____C_A_T_C_H____T_E_S_T____13Ev
FNDA:0,_ZN9get_valueL30____C_A_T_C_H____T_E_S_T____21Ev
FNDA:0,_ZN9get_valueL30____C_A_T_C_H____T_E_S_T____28Ev
FNDA:0,_ZN9get_valueL30____C_A_T_C_H____T_E_S_T____36Ev
FNDA:0,_ZN9get_valueL30____C_A_T_C_H____T_E_S_T____42Ev
FNDA:0,_ZN9get_valueL30____C_A_T_C_H____T_E_S_T____48Ev
FNDA:0,_ZN9get_valueL30____C_A_T_C_H____T_E_S_T____54Ev
FNDA:0,_ZN9get_valueL30____C_A_T_C_H____T_E_S_T____60Ev
FNDA:0,_ZN9get_valueL30____C_A_T_C_H____T_E_S_T____66Ev
FNDA:0,_ZN9get_valueL30____C_A_T_C_H____T_E_S_T____72Ev
FNF:29
FNH:0
DA:20,0
DA:22,0
DA:25,0
DA:27,0
DA:30,0
DA:32,0
DA:35,0
DA:37,0
DA:38,0
DA:39,0
DA:40,0
DA:42,0
DA:44,0
DA:45,0
DA:46,0
DA:47,0
DA:48,0
DA:50,0
DA:52,0
DA:55,0
DA:57,0
DA:58,0
DA:59,0
DA:61,0
DA:63,0
DA:66,0
DA:68,0
DA:69,0
DA:70,0
DA:71,0
DA:73,0
DA:75,0
DA:76,0
DA:77,0
DA:78,0
DA:80,0
DA:82,0
DA:83,0
DA:84,0
DA:86,0
DA:88,0
DA:91,0
DA:93,0
DA:96,0
DA:98,0
DA:99,0
DA:100,0
DA:101,0
DA:102,0
DA:104,0
DA:106,0
DA:107,0
DA:108,0
DA:109,0
DA:110,0
DA:112,0
DA:114,0
DA:115,0
DA:116,0
DA:117,0
DA:118,0
DA:120,0
DA:122,0
DA:125,0
DA:129,0
DA:130,0
DA:131,0
DA:132,0
DA:133,0
DA:135,0
DA:137,0
DA:138,0
DA:140,0
DA:142,0
DA:144,0
DA:145,0
DA:146,0
DA:147,0
DA:148,0
DA:149,0
DA:150,0
DA:152,0
DA:153,0
DA:154,0
DA:156,0
DA:157,0
DA:158,0
DA:160,0
DA:161,0
DA:162,0
DA:164,0
DA:165,0
DA:166,0
DA:168,0
DA:169,0
DA:170,0
DA:171,0
DA:173,0
DA:174,0
DA:175,0
DA:176,0
DA:178,0
DA:179,0
DA:180,0
DA:182,0
DA:183,0
DA:184,0
DA:186,0
DA:188,0
DA:189,0
DA:190,0
DA:192,0
DA:194,0
DA:195,0
DA:196,0
DA:198,0
DA:199,0
DA:200,0
DA:202,0
DA:203,0
DA:204,0
DA:206,0
DA:207,0
DA:208,0
DA:210,0
DA:212,0
DA:213,0
DA:214,0
DA:216,0
DA:218,0
DA:219,0
DA:220,0
DA:221,0
DA:223,0
DA:225,0
DA:226,0
DA:227,0
DA:228,0
DA:230,0
DA:232,0
DA:233,0
DA:234,0
DA:236,0
DA:238,0
DA:239,0
DA:240,0
DA:241,0
DA:243,0
DA:245,0
DA:246,0
DA:247,0
DA:248,0
DA:252,0
DA:253,0
DA:254,0
DA:256,0
DA:257,0
DA:258,0
DA:260,0
DA:261,0
DA:262,0
DA:264,0
DA:265,0
DA:266,0
DA:270,0
DA:271,0
DA:272,0
DA:273,0
DA:275,0
DA:276,0
DA:277,0
DA:278,0
DA:280,0
DA:281,0
DA:282,0
DA:284,0
DA:286,0
DA:287,0
DA:288,0
DA:290,0
DA:291,0
DA:292,0
DA:293,0
DA:295,0
DA:296,0
DA:297,0
DA:299,0
DA:301,0
DA:302,0
DA:303,0
DA:304,0
DA:306,0
DA:308,0
DA:309,0
DA:310,0
DA:311,0
DA:313,0
DA:315,0
DA:316,0
DA:317,0
DA:318,0
DA:321,0
DA:322,0
DA:323,0
DA:325,0
DA:326,0
DA:327,0
DA:331,0
DA:332,0
DA:333,0
DA:334,0
DA:336,0
DA:337,0
DA:338,0
DA:339,0
DA:341,0
DA:342,0
DA:343,0
DA:345,0
DA:347,0
DA:348,0
DA:350,0
DA:352,0
DA:353,0
DA:354,0
DA:355,0
DA:357,0
DA:358,0
DA:359,0
DA:361,0
DA:363,0
DA:364,0
DA:365,0
DA:366,0
DA:368,0
DA:370,0
DA:371,0
DA:372,0
DA:373,0
DA:375,0
DA:377,0
DA:378,0
DA:379,0
DA:380,0
DA:383,0
DA:384,0
DA:385,0
DA:387,0
DA:388,0
DA:389,0
DA:394,0
DA:395,0
DA:396,0
DA:572,0
DA:576,0
DA:577,0
DA:578,0
DA:579,0
DA:580,0
DA:582,0
DA:584,0
DA:585,0
DA:587,0
DA:589,0
DA:591,0
DA:592,0
DA:593,0
DA:594,0
DA:595,0
DA:596,0
DA:597,0
DA:599,0
DA:600,0
DA:601,0
DA:603,0
DA:604,0
DA:605,0
DA:607,0
DA:608,0
DA:609,0
DA:611,0
DA:612,0
DA:613,0
DA:615,0
DA:616,0
DA:617,0
DA:618,0
DA:620,0
DA:621,0
DA:622,0
DA:623,0
DA:625,0
DA:626,0
DA:627,0
DA:629,0
DA:630,0
DA:631,0
DA:633,0
DA:635,0
DA:636,0
DA:637,0
DA:639,0
DA:641,0
DA:642,0
DA:643,0
DA:645,0
DA:646,0
DA:647,0
DA:649,0
DA:650,0
DA:651,0
DA:653,0
DA:654,0
DA:655,0
DA:657,0
DA:659,0
DA:660,0
DA:661,0
DA:663,0
DA:665,0
DA:666,0
DA:667,0
DA:668,0
DA:670,0
DA:672,0
DA:673,0
DA:674,0
DA:675,0
DA:677,0
DA:679,0
DA:680,0
DA:681,0
DA:683,0
DA:685,0
DA:686,0
DA:687,0
DA:688,0
DA:690,0
DA:692,0
DA:693,0
DA:694,0
DA:695,0
DA:699,0
DA:700,0
DA:701,0
DA:703,0
DA:704,0
DA:705,0
DA:707,0
DA:708,0
DA:709,0
DA:711,0
DA:712,0
DA:713,0
DA:717,0
DA:718,0
DA:719,0
DA:720,0
DA:722,0
DA:723,0
DA:724,0
DA:725,0
DA:727,0
DA:728,0
DA:729,0
DA:731,0
DA:733,0
DA:734,0
DA:735,0
DA:737,0
DA:738,0
DA:739,0
DA:740,0
DA:742,0
DA:743,0
DA:744,0
DA:746,0
DA:748,0
DA:749,0
DA:750,0
DA:751,0
DA:753,0
DA:755,0
DA:756,0
DA:757,0
DA:758,0
DA:760,0
DA:762,0
DA:763,0
DA:764,0
DA:765,0
DA:768,0
DA:769,0
DA:770,0
DA:772,0
DA:773,0
DA:774,0
DA:778,0
DA:779,0
DA:780,0
DA:781,0
DA:783,0
DA:784,0
DA:785,0
DA:786,0
DA:788,0
DA:789,0
DA:790,0
DA:792,0
DA:794,0
DA:795,0
DA:797,0
DA:799,0
DA:800,0
DA:801,0
DA:802,0
DA:804,0
DA:805,0
DA:806,0
DA:808,0
DA:810,0
DA:811,0
DA:812,0
DA:813,0
DA:815,0
DA:817,0
DA:818,0
DA:819,0
DA:820,0
DA:822,0
DA:824,0
DA:825,0
DA:826,0
DA:827,0
DA:830,0
DA:831,0
DA:832,0
DA:834,0
DA:835,0
DA:836,0
DA:840,0
DA:841,0
DA:842,0
DA:843,0
DA:845,0
DA:846,0
DA:847,0
DA:848,0
DA:850,0
DA:852,0
DA:854,0
DA:855,0
DA:856,0
DA:858,0
DA:859,0
DA:861,0
DA:863,0
DA:865,0
DA:866,0
DA:867,0
DA:870,0
DA:872,0
DA:877,0
DA:878,0
DA:879,0
DA:1054,0
DA:1058,0
DA:1059,0
DA:1060,0
DA:1061,0
DA:1062,0
DA:1064,0
DA:1066,0
DA:1067,0
DA:1069,0
DA:1070,0
DA:1072,0
DA:1074,0
DA:1075,0
DA:1076,0
DA:1077,0
DA:1078,0
DA:1079,0
DA:1080,0
DA:1082,0
DA:1083,0
DA:1084,0
DA:1086,0
DA:1087,0
DA:1088,0
DA:1090,0
DA:1091,0
DA:1092,0
DA:1094,0
DA:1095,0
DA:1096,0
DA:1098,0
DA:1099,0
DA:1100,0
DA:1101,0
DA:1103,0
DA:1104,0
DA:1105,0
DA:1106,0
DA:1108,0
DA:1109,0
DA:1110,0
DA:1112,0
DA:1113,0
DA:1114,0
DA:1116,0
DA:1118,0
DA:1119,0
DA:1120,0
DA:1122,0
DA:1124,0
DA:1125,0
DA:1126,0
DA:1128,0
DA:1129,0
DA:1130,0
DA:1132,0
DA:1133,0
DA:1134,0
DA:1136,0
DA:1137,0
DA:1138,0
DA:1140,0
DA:1142,0
DA:1143,0
DA:1144,0
DA:1146,0
DA:1148,0
DA:1149,0
DA:1150,0
DA:1151,0
DA:1153,0
DA:1155,0
DA:1156,0
DA:1157,0
DA:1158,0
DA:1160,0
DA:1162,0
DA:1163,0
DA:1164,0
DA:1166,0
DA:1168,0
DA:1169,0
DA:1170,0
DA:1171,0
DA:1173,0
DA:1175,0
DA:1176,0
DA:1177,0
DA:1178,0
DA:1182,0
DA:1183,0
DA:1184,0
DA:1186,0
DA:1187,0
DA:1188,0
DA:1190,0
DA:1191,0
DA:1192,0
DA:1194,0
DA:1195,0
DA:1196,0
DA:1200,0
DA:1201,0
DA:1202,0
DA:1203,0
DA:1205,0
DA:1206,0
DA:1207,0
DA:1208,0
DA:1210,0
DA:1211,0
DA:1212,0
DA:1214,0
DA:1216,0
DA:1217,0
DA:1218,0
DA:1220,0
DA:1221,0
DA:1222,0
DA:1223,0
DA:1225,0
DA:1226,0
DA:1227,0
DA:1229,0
DA:1231,0
DA:1232,0
DA:1233,0
DA:1234,0
DA:1236,0
DA:1238,0
DA:1239,0
DA:1240,0
DA:1241,0
DA:1243,0
DA:1245,0
DA:1246,0
DA:1247,0
DA:1248,0
DA:1251,0
DA:1252,0
DA:1253,0
DA:1255,0
DA:1256,0
DA:1257,0
DA:1261,0
DA:1262,0
DA:1263,0
DA:1264,0
DA:1266,0
DA:1267,0
DA:1268,0
DA:1269,0
DA:1271,0
DA:1272,0
DA:1273,0
DA:1275,0
DA:1277,0
DA:1278,0
DA:1280,0
DA:1282,0
DA:1283,0
DA:1284,0
DA:1285,0
DA:1287,0
DA:1288,0
DA:1289,0
DA:1291,0
DA:1293,0
DA:1294,0
DA:1295,0
DA:1296,0
DA:1298,0
DA:1300,0
DA:1301,0
DA:1302,0
DA:1303,0
DA:1305,0
DA:1307,0
DA:1308,0
DA:1309,0
DA:1310,0
DA:1313,0
DA:1314,0
DA:1315,0
DA:1317,0
DA:1318,0
DA:1319,0
DA:1323,0
DA:1324,0
DA:1325,0
DA:1326,0
DA:1328,0
DA:1329,0
DA:1330,0
DA:1331,0
DA:1333,0
DA:1335,0
DA:1337,0
DA:1338,0
DA:1339,0
DA:1341,0
DA:1342,0
DA:1344,0
DA:1346,0
DA:1348,0
DA:1349,0
DA:1350,0
DA:1353,0
DA:1355,0
DA:1359,0
DA:1360,0
DA:1361,0
DA:1362,0
DA:1364,0
DA:1365,0
DA:1366,0
DA:1367,0
DA:1369,0
DA:1371,0
DA:1373,0
DA:1374,0
DA:1375,0
DA:1377,0
DA:1378,0
DA:1380,0
DA:1382,0
DA:1384,0
DA:1385,0
DA:1386,0
DA:1389,0
DA:1391,0
DA:1396,0
DA:1397,0
DA:1398,0
DA:1581,0
DA:1585,0
DA:1586,0
DA:1587,0
DA:1588,0
DA:1589,0
DA:1591,0
DA:1593,0
DA:1594,0
DA:1596,0
DA:1598,0
DA:1600,0
DA:1602,0
DA:1603,0
DA:1604,0
DA:1605,0
DA:1606,0
DA:1607,0
DA:1608,0
DA:1609,0
DA:1610,0
DA:1612,0
DA:1613,0
DA:1614,0
DA:1615,0
DA:1616,0
DA:1617,0
DA:1619,0
DA:1620,0
DA:1621,0
DA:1622,0
DA:1623,0
DA:1624,0
DA:1626,0
DA:1627,0
DA:1628,0
DA:1629,0
DA:1630,0
DA:1631,0
DA:1633,0
DA:1634,0
DA:1635,0
DA:1636,0
DA:1637,0
DA:1638,0
DA:1640,0
DA:1642,0
DA:1643,0
DA:1644,0
DA:1645,0
DA:1646,0
DA:1647,0
DA:1649,0
DA:1650,0
DA:1651,0
DA:1652,0
DA:1653,0
DA:1654,0
DA:1656,0
DA:1657,0
DA:1658,0
DA:1659,0
DA:1661,0
DA:1662,0
DA:1663,0
DA:1664,0
DA:1666,0
DA:1667,0
DA:1668,0
DA:1669,0
DA:1670,0
DA:1671,0
DA:1673,0
DA:1674,0
DA:1675,0
DA:1676,0
DA:1677,0
DA:1678,0
DA:1680,0
DA:1682,0
DA:1683,0
DA:1684,0
DA:1686,0
DA:1688,0
DA:1689,0
DA:1690,0
DA:1691,0
DA:1692,0
DA:1693,0
DA:1695,0
DA:1696,0
DA:1697,0
DA:1698,0
DA:1699,0
DA:1700,0
DA:1702,0
DA:1703,0
DA:1704,0
DA:1705,0
DA:1706,0
DA:1707,0
DA:1709,0
DA:1710,0
DA:1711,0
DA:1712,0
DA:1713,0
DA:1714,0
DA:1716,0
DA:1717,0
DA:1718,0
DA:1719,0
DA:1720,0
DA:1721,0
DA:1723,0
DA:1724,0
DA:1725,0
DA:1726,0
DA:1727,0
DA:1728,0
DA:1730,0
DA:1732,0
DA:1733,0
DA:1734,0
DA:1735,0
DA:1737,0
DA:1739,0
DA:1740,0
DA:1741,0
DA:1742,0
DA:1744,0
DA:1746,0
DA:1747,0
DA:1748,0
DA:1749,0
DA:1751,0
DA:1753,0
DA:1754,0
DA:1755,0
DA:1756,0
DA:1758,0
DA:1760,0
DA:1761,0
DA:1762,0
DA:1763,0
DA:1764,0
DA:1766,0
DA:1768,0
DA:1769,0
DA:1770,0
DA:1771,0
DA:1772,0
DA:1774,0
DA:1776,0
DA:1777,0
DA:1778,0
DA:1779,0
DA:1781,0
DA:1783,0
DA:1784,0
DA:1785,0
DA:1786,0
DA:1788,0
DA:1790,0
DA:1791,0
DA:1792,0
DA:1793,0
DA:1795,0
DA:1797,0
DA:1798,0
DA:1799,0
DA:1800,0
DA:1802,0
DA:1804,0
DA:1805,0
DA:1806,0
DA:1807,0
DA:1808,0
DA:1810,0
DA:1812,0
DA:1813,0
DA:1814,0
DA:1815,0
DA:1816,0
DA:1820,0
DA:1821,0
DA:1822,0
DA:1823,0
DA:1824,0
DA:1825,0
DA:1827,0
DA:1828,0
DA:1829,0
DA:1830,0
DA:1831,0
DA:1832,0
DA:1834,0
DA:1835,0
DA:1836,0
DA:1837,0
DA:1838,0
DA:1839,0
DA:1841,0
DA:1842,0
DA:1843,0
DA:1844,0
DA:1845,0
DA:1846,0
DA:1850,0
DA:1851,0
DA:1852,0
DA:1853,0
DA:1855,0
DA:1856,0
DA:1857,0
DA:1858,0
DA:1860,0
DA:1861,0
DA:1862,0
DA:1863,0
DA:1864,0
DA:1865,0
DA:1867,0
DA:1869,0
DA:1870,0
DA:1871,0
DA:1873,0
DA:1874,0
DA:1875,0
DA:1876,0
DA:1877,0
DA:1878,0
DA:1879,0
DA:1881,0
DA:1882,0
DA:1883,0
DA:1884,0
DA:1885,0
DA:1886,0
DA:1888,0
DA:1889,0
DA:1890,0
DA:1891,0
DA:1892,0
DA:1893,0
DA:1895,0
DA:1897,0
DA:1898,0
DA:1899,0
DA:1900,0
DA:1902,0
DA:1904,0
DA:1905,0
DA:1906,0
DA:1907,0
DA:1909,0
DA:1911,0
DA:1912,0
DA:1913,0
DA:1914,0
DA:1916,0
DA:1918,0
DA:1919,0
DA:1920,0
DA:1921,0
DA:1923,0
DA:1925,0
DA:1926,0
DA:1927,0
DA:1928,0
DA:1929,0
DA:1931,0
DA:1933,0
DA:1934,0
DA:1935,0
DA:1936,0
DA:1937,0
DA:1940,0
DA:1941,0
DA:1942,0
DA:1943,0
DA:1944,0
DA:1945,0
DA:1947,0
DA:1948,0
DA:1949,0
DA:1950,0
DA:1951,0
DA:1952,0
DA:1956,0
DA:1957,0
DA:1958,0
DA:1959,0
DA:1961,0
DA:1962,0
DA:1963,0
DA:1964,0
DA:1966,0
DA:1967,0
DA:1968,0
DA:1969,0
DA:1970,0
DA:1971,0
DA:1973,0
DA:1975,0
DA:1976,0
DA:1978,0
DA:1980,0
DA:1981,0
DA:1982,0
DA:1983,0
DA:1984,0
DA:1985,0
DA:1986,0
DA:1988,0
DA:1989,0
DA:1990,0
DA:1991,0
DA:1992,0
DA:1993,0
DA:1995,0
DA:1996,0
DA:1997,0
DA:1998,0
DA:1999,0
DA:2000,0
DA:2002,0
DA:2004,0
DA:2005,0
DA:2006,0
DA:2007,0
DA:2008,0
DA:2010,0
DA:2012,0
DA:2013,0
DA:2014,0
DA:2015,0
DA:2016,0
DA:2018,0
DA:2020,0
DA:2021,0
DA:2022,0
DA:2023,0
DA:2024,0
DA:2026,0
DA:2028,0
DA:2029,0
DA:2030,0
DA:2031,0
DA:2032,0
DA:2034,0
DA:2036,0
DA:2037,0
DA:2038,0
DA:2039,0
DA:2040,0
DA:2042,0
DA:2044,0
DA:2045,0
DA:2046,0
DA:2047,0
DA:2048,0
DA:2051,0
DA:2052,0
DA:2053,0
DA:2054,0
DA:2055,0
DA:2056,0
DA:2058,0
DA:2059,0
DA:2060,0
DA:2061,0
DA:2062,0
DA:2063,0
DA:2067,0
DA:2068,0
DA:2069,0
DA:2070,0
DA:2072,0
DA:2073,0
DA:2074,0
DA:2075,0
DA:2077,0
DA:2079,0
DA:2081,0
DA:2082,0
DA:2083,0
DA:2085,0
DA:2086,0
DA:2088,0
DA:2090,0
DA:2092,0
DA:2094,0
DA:2095,0
DA:2096,0
DA:2097,0
DA:2100,0
DA:2102,0
DA:2107,0
DA:2108,0
DA:2109,0
DA:2422,0
DA:2426,0
DA:2427,0
DA:2428,0
DA:2429,0
DA:2430,0
DA:2432,0
DA:2434,0
DA:2435,0
DA:2437,0
DA:2438,0
DA:2440,0
DA:2442,0
DA:2444,0
DA:2445,0
DA:2446,0
DA:2447,0
DA:2448,0
DA:2449,0
DA:2450,0
DA:2451,0
DA:2452,0
DA:2454,0
DA:2455,0
DA:2456,0
DA:2457,0
DA:2458,0
DA:2459,0
DA:2461,0
DA:2462,0
DA:2463,0
DA:2464,0
DA:2465,0
DA:2466,0
DA:2468,0
DA:2469,0
DA:2470,0
DA:2471,0
DA:2472,0
DA:2473,0
DA:2475,0
DA:2476,0
DA:2477,0
DA:2478,0
DA:2479,0
DA:2480,0
DA:2482,0
DA:2484,0
DA:2485,0
DA:2486,0
DA:2487,0
DA:2488,0
DA:2489,0
DA:2491,0
DA:2492,0
DA:2493,0
DA:2494,0
DA:2495,0
DA:2496,0
DA:2498,0
DA:2499,0
DA:2500,0
DA:2501,0
DA:2502,0
DA:2504,0
DA:2505,0
DA:2506,0
DA:2507,0
DA:2509,0
DA:2510,0
DA:2511,0
DA:2512,0
DA:2514,0
DA:2515,0
DA:2516,0
DA:2517,0
DA:2518,0
DA:2519,0
DA:2521,0
DA:2522,0
DA:2523,0
DA:2524,0
DA:2525,0
DA:2526,0
DA:2528,0
DA:2529,0
DA:2531,0
DA:2532,0
DA:2534,0
DA:2536,0
DA:2537,0
DA:2538,0
DA:2540,0
DA:2542,0
DA:2543,0
DA:2544,0
DA:2545,0
DA:2546,0
DA:2547,0
DA:2549,0
DA:2550,0
DA:2551,0
DA:2552,0
DA:2553,0
DA:2554,0
DA:2556,0
DA:2557,0
DA:2559,0
DA:2560,0
DA:2561,0
DA:2562,0
DA:2563,0
DA:2564,0
DA:2566,0
DA:2567,0
DA:2568,0
DA:2569,0
DA:2570,0
DA:2571,0
DA:2573,0
DA:2574,0
DA:2576,0
DA:2577,0
DA:2578,0
DA:2579,0
DA:2580,0
DA:2581,0
DA:2583,0
DA:2584,0
DA:2585,0
DA:2586,0
DA:2587,0
DA:2588,0
DA:2590,0
DA:2591,0
DA:2593,0
DA:2595,0
DA:2596,0
DA:2597,0
DA:2598,0
DA:2599,0
DA:2600,0
DA:2602,0
DA:2604,0
DA:2605,0
DA:2606,0
DA:2607,0
DA:2608,0
DA:2609,0
DA:2611,0
DA:2613,0
DA:2614,0
DA:2615,0
DA:2616,0
DA:2617,0
DA:2618,0
DA:2620,0
DA:2622,0
DA:2623,0
DA:2624,0
DA:2625,0
DA:2626,0
DA:2627,0
DA:2629,0
DA:2631,0
DA:2632,0
DA:2633,0
DA:2634,0
DA:2635,0
DA:2636,0
DA:2637,0
DA:2639,0
DA:2641,0
DA:2642,0
DA:2643,0
DA:2644,0
DA:2645,0
DA:2646,0
DA:2647,0
DA:2649,0
DA:2651,0
DA:2652,0
DA:2653,0
DA:2654,0
DA:2655,0
DA:2656,0
DA:2658,0
DA:2660,0
DA:2661,0
DA:2662,0
DA:2663,0
DA:2664,0
DA:2665,0
DA:2667,0
DA:2669,0
DA:2670,0
DA:2671,0
DA:2672,0
DA:2673,0
DA:2674,0
DA:2676,0
DA:2678,0
DA:2679,0
DA:2680,0
DA:2681,0
DA:2682,0
DA:2683,0
DA:2685,0
DA:2687,0
DA:2688,0
DA:2689,0
DA:2690,0
DA:2691,0
DA:2692,0
DA:2693,0
DA:2695,0
DA:2697,0
DA:2698,0
DA:2699,0
DA:2700,0
DA:2701,0
DA:2702,0
DA:2703,0
DA:2705,0
DA:2707,0
DA:2708,0
DA:2709,0
DA:2710,0
DA:2711,0
DA:2712,0
DA:2713,0
DA:2715,0
DA:2717,0
DA:2718,0
DA:2719,0
DA:2720,0
DA:2721,0
DA:2722,0
DA:2723,0
DA:2727,0
DA:2728,0
DA:2729,0
DA:2730,0
DA:2731,0
DA:2732,0
DA:2734,0
DA:2735,0
DA:2736,0
DA:2737,0
DA:2738,0
DA:2739,0
DA:2741,0
DA:2742,0
DA:2744,0
DA:2745,0
DA:2746,0
DA:2747,0
DA:2748,0
DA:2749,0
DA:2751,0
DA:2752,0
DA:2753,0
DA:2754,0
DA:2755,0
DA:2756,0
DA:2758,0
DA:2759,0
DA:2763,0
DA:2764,0
DA:2765,0
DA:2766,0
DA:2768,0
DA:2769,0
DA:2770,0
DA:2771,0
DA:2773,0
DA:2774,0
DA:2775,0
DA:2776,0
DA:2777,0
DA:2778,0
DA:2780,0
DA:2782,0
DA:2783,0
DA:2784,0
DA:2786,0
DA:2787,0
DA:2788,0
DA:2789,0
DA:2790,0
DA:2791,0
DA:2792,0
DA:2794,0
DA:2795,0
DA:2796,0
DA:2797,0
DA:2798,0
DA:2799,0
DA:2801,0
DA:2802,0
DA:2803,0
DA:2804,0
DA:2805,0
DA:2806,0
DA:2808,0
DA:2810,0
DA:2811,0
DA:2812,0
DA:2813,0
DA:2814,0
DA:2815,0
DA:2817,0
DA:2819,0
DA:2820,0
DA:2821,0
DA:2822,0
DA:2823,0
DA:2824,0
DA:2826,0
DA:2828,0
DA:2829,0
DA:2830,0
DA:2831,0
DA:2832,0
DA:2833,0
DA:2835,0
DA:2837,0
DA:2838,0
DA:2839,0
DA:2840,0
DA:2841,0
DA:2842,0
DA:2844,0
DA:2846,0
DA:2847,0
DA:2848,0
DA:2849,0
DA:2850,0
DA:2851,0
DA:2853,0
DA:2855,0
DA:2856,0
DA:2857,0
DA:2858,0
DA:2859,0
DA:2860,0
DA:2863,0
DA:2864,0
DA:2865,0
DA:2866,0
DA:2867,0
DA:2868,0
DA:2870,0
DA:2871,0
DA:2872,0
DA:2873,0
DA:2874,0
DA:2875,0
DA:2879,0
DA:2880,0
DA:2881,0
DA:2882,0
DA:2884,0
DA:2885,0
DA:2886,0
DA:2887,0
DA:2889,0
DA:2890,0
DA:2891,0
DA:2892,0
DA:2893,0
DA:2894,0
DA:2896,0
DA:2898,0
DA:2899,0
DA:2901,0
DA:2903,0
DA:2904,0
DA:2905,0
DA:2906,0
DA:2907,0
DA:2908,0
DA:2909,0
DA:2911,0
DA:2912,0
DA:2913,0
DA:2914,0
DA:2915,0
DA:2916,0
DA:2918,0
DA:2919,0
DA:2920,0
DA:2921,0
DA:2922,0
DA:2923,0
DA:2925,0
DA:2927,0
DA:2928,0
DA:2929,0
DA:2930,0
DA:2931,0
DA:2932,0
DA:2934,0
DA:2936,0
DA:2937,0
DA:2938,0
DA:2939,0
DA:2940,0
DA:2941,0
DA:2943,0
DA:2945,0
DA:2946,0
DA:2947,0
DA:2948,0
DA:2949,0
DA:2950,0
DA:2952,0
DA:2954,0
DA:2955,0
DA:2956,0
DA:2957,0
DA:2958,0
DA:2959,0
DA:2961,0
DA:2963,0
DA:2964,0
DA:2965,0
DA:2966,0
DA:2967,0
DA:2968,0
DA:2970,0
DA:2972,0
DA:2973,0
DA:2974,0
DA:2975,0
DA:2976,0
DA:2977,0
DA:2980,0
DA:2981,0
DA:2982,0
DA:2983,0
DA:2984,0
DA:2985,0
DA:2987,0
DA:2988,0
DA:2989,0
DA:2990,0
DA:2991,0
DA:2992,0
DA:2996,0
DA:2997,0
DA:2998,0
DA:2999,0
DA:3001,0
DA:3002,0
DA:3003,0
DA:3004,0
DA:3006,0
DA:3008,0
DA:3010,0
DA:3011,0
DA:3012,0
DA:3014,0
DA:3015,0
DA:3017,0
DA:3019,0
DA:3021,0
DA:3023,0
DA:3024,0
DA:3025,0
DA:3026,0
DA:3027,0
DA:3028,0
DA:3031,0
DA:3033,0
DA:3037,0
DA:3038,0
DA:3039,0
DA:3040,0
DA:3042,0
DA:3043,0
DA:3044,0
DA:3045,0
DA:3047,0
DA:3049,0
DA:3051,0
DA:3052,0
DA:3053,0
DA:3055,0
DA:3056,0
DA:3058,0
DA:3060,0
DA:3062,0
DA:3064,0
DA:3065,0
DA:3066,0
DA:3067,0
DA:3068,0
DA:3069,0
DA:3072,0
DA:3074,0
DA:3079,0
DA:3080,0
DA:3081,0
DA:3415,0
DA:3419,0
DA:3420,0
DA:3421,0
DA:3422,0
DA:3423,0
DA:3425,0
DA:3427,0
DA:3428,0
DA:3430,0
DA:3432,0
DA:3433,0
DA:3435,0
DA:3436,0
DA:3437,0
DA:3438,0
DA:3439,0
DA:3441,0
DA:3442,0
DA:3444,0
DA:3445,0
DA:3447,0
DA:3448,0
DA:3450,0
DA:3451,0
DA:3453,0
DA:3454,0
DA:3455,0
DA:3457,0
DA:3458,0
DA:3459,0
DA:3460,0
DA:3462,0
DA:3463,0
DA:3464,0
DA:3465,0
DA:3467,0
DA:3468,0
DA:3470,0
DA:3472,0
DA:3473,0
DA:3474,0
DA:3476,0
DA:3477,0
DA:3478,0
DA:3480,0
DA:3481,0
DA:3483,0
DA:3484,0
DA:3486,0
DA:3488,0
DA:3489,0
DA:3490,0
DA:3491,0
DA:3493,0
DA:3495,0
DA:3496,0
DA:3497,0
DA:3498,0
DA:3501,0
DA:3502,0
DA:3504,0
DA:3505,0
DA:3509,0
DA:3510,0
DA:3511,0
DA:3512,0
DA:3514,0
DA:3515,0
DA:3516,0
DA:3517,0
DA:3519,0
DA:3520,0
DA:3522,0
DA:3524,0
DA:3525,0
DA:3526,0
DA:3528,0
DA:3529,0
DA:3530,0
DA:3532,0
DA:3533,0
DA:3535,0
DA:3536,0
DA:3538,0
DA:3540,0
DA:3541,0
DA:3542,0
DA:3543,0
DA:3545,0
DA:3547,0
DA:3548,0
DA:3549,0
DA:3550,0
DA:3553,0
DA:3554,0
DA:3556,0
DA:3557,0
DA:3561,0
DA:3562,0
DA:3563,0
DA:3564,0
DA:3566,0
DA:3567,0
DA:3568,0
DA:3569,0
DA:3571,0
DA:3572,0
DA:3574,0
DA:3576,0
DA:3577,0
DA:3579,0
DA:3581,0
DA:3582,0
DA:3583,0
DA:3585,0
DA:3586,0
DA:3588,0
DA:3589,0
DA:3591,0
DA:3593,0
DA:3594,0
DA:3595,0
DA:3596,0
DA:3598,0
DA:3600,0
DA:3601,0
DA:3602,0
DA:3603,0
DA:3606,0
DA:3607,0
DA:3609,0
DA:3610,0
DA:3615,0
DA:3616,0
DA:3617,0
DA:3619,0
DA:3623,0
DA:3624,0
DA:3625,0
DA:3626,0
DA:3627,0
DA:3629,0
DA:3631,0
DA:3632,0
DA:3634,0
DA:3636,0
DA:3637,0
DA:3639,0
DA:3640,0
DA:3641,0
DA:3642,0
DA:3643,0
DA:3645,0
DA:3646,0
DA:3648,0
DA:3649,0
DA:3651,0
DA:3652,0
DA:3654,0
DA:3655,0
DA:3657,0
DA:3658,0
DA:3659,0
DA:3661,0
DA:3662,0
DA:3663,0
DA:3664,0
DA:3666,0
DA:3667,0
DA:3668,0
DA:3669,0
DA:3671,0
DA:3672,0
DA:3674,0
DA:3676,0
DA:3677,0
DA:3678,0
DA:3680,0
DA:3681,0
DA:3682,0
DA:3684,0
DA:3685,0
DA:3687,0
DA:3688,0
DA:3690,0
DA:3692,0
DA:3693,0
DA:3694,0
DA:3695,0
DA:3696,0
DA:3698,0
DA:3700,0
DA:3701,0
DA:3702,0
DA:3703,0
DA:3704,0
DA:3707,0
DA:3708,0
DA:3710,0
DA:3711,0
DA:3715,0
DA:3716,0
DA:3717,0
DA:3718,0
DA:3720,0
DA:3721,0
DA:3722,0
DA:3723,0
DA:3725,0
DA:3726,0
DA:3728,0
DA:3730,0
DA:3731,0
DA:3732,0
DA:3734,0
DA:3735,0
DA:3736,0
DA:3738,0
DA:3739,0
DA:3741,0
DA:3742,0
DA:3744,0
DA:3746,0
DA:3747,0
DA:3748,0
DA:3749,0
DA:3750,0
DA:3752,0
DA:3754,0
DA:3755,0
DA:3756,0
DA:3757,0
DA:3758,0
DA:3761,0
DA:3762,0
DA:3764,0
DA:3765,0
DA:3769,0
DA:3770,0
DA:3771,0
DA:3772,0
DA:3774,0
DA:3775,0
DA:3776,0
DA:3777,0
DA:3779,0
DA:3780,0
DA:3782,0
DA:3784,0
DA:3785,0
DA:3787,0
DA:3789,0
DA:3790,0
DA:3791,0
DA:3793,0
DA:3794,0
DA:3796,0
DA:3797,0
DA:3799,0
DA:3801,0
DA:3802,0
DA:3803,0
DA:3804,0
DA:3805,0
DA:3807,0
DA:3809,0
DA:3810,0
DA:3811,0
DA:3812,0
DA:3813,0
DA:3816,0
DA:3817,0
DA:3819,0
DA:3820,0
DA:3825,0
DA:3826,0
DA:3827,0
DA:3829,0
DA:3833,0
DA:3834,0
DA:3835,0
DA:3836,0
DA:3837,0
DA:3839,0
DA:3841,0
DA:3842,0
DA:3844,0
DA:3845,0
DA:3847,0
DA:3848,0
DA:3850,0
DA:3851,0
DA:3852,0
DA:3853,0
DA:3854,0
DA:3856,0
DA:3857,0
DA:3859,0
DA:3860,0
DA:3862,0
DA:3863,0
DA:3865,0
DA:3866,0
DA:3868,0
DA:3869,0
DA:3870,0
DA:3872,0
DA:3873,0
DA:3874,0
DA:3875,0
DA:3877,0
DA:3878,0
DA:3879,0
DA:3880,0
DA:3882,0
DA:3883,0
DA:3885,0
DA:3887,0
DA:3888,0
DA:3889,0
DA:3891,0
DA:3892,0
DA:3893,0
DA:3895,0
DA:3896,0
DA:3898,0
DA:3899,0
DA:3901,0
DA:3903,0
DA:3904,0
DA:3905,0
DA:3906,0
DA:3907,0
DA:3908,0
DA:3910,0
DA:3912,0
DA:3913,0
DA:3914,0
DA:3915,0
DA:3916,0
DA:3917,0
DA:3920,0
DA:3921,0
DA:3923,0
DA:3924,0
DA:3928,0
DA:3929,0
DA:3930,0
DA:3931,0
DA:3933,0
DA:3934,0
DA:3935,0
DA:3936,0
DA:3938,0
DA:3939,0
DA:3941,0
DA:3943,0
DA:3944,0
DA:3945,0
DA:3947,0
DA:3948,0
DA:3949,0
DA:3951,0
DA:3952,0
DA:3954,0
DA:3955,0
DA:3957,0
DA:3959,0
DA:3960,0
DA:3961,0
DA:3962,0
DA:3963,0
DA:3964,0
DA:3966,0
DA:3968,0
DA:3969,0
DA:3970,0
DA:3971,0
DA:3972,0
DA:3973,0
DA:3976,0
DA:3977,0
DA:3979,0
DA:3980,0
DA:3984,0
DA:3985,0
DA:3986,0
DA:3987,0
DA:3989,0
DA:3990,0
DA:3991,0
DA:3992,0
DA:3994,0
DA:3995,0
DA:3997,0
DA:3999,0
DA:4000,0
DA:4002,0
DA:4004,0
DA:4005,0
DA:4006,0
DA:4008,0
DA:4009,0
DA:4011,0
DA:4012,0
DA:4014,0
DA:4016,0
DA:4017,0
DA:4018,0
DA:4019,0
DA:4020,0
DA:4021,0
DA:4023,0
DA:4025,0
DA:4026,0
DA:4027,0
DA:4028,0
DA:4029,0
DA:4030,0
DA:4033,0
DA:4034,0
DA:4036,0
DA:4037,0
DA:4042,0
DA:4043,0
DA:4044,0
DA:4046,0
DA:4050,0
DA:4051,0
DA:4052,0
DA:4053,0
DA:4054,0
DA:4056,0
DA:4058,0
DA:4059,0
DA:4061,0
DA:4063,0
DA:4064,0
DA:4066,0
DA:4068,0
DA:4069,0
DA:4070,0
DA:4071,0
DA:4072,0
DA:4074,0
DA:4075,0
DA:4076,0
DA:4078,0
DA:4079,0
DA:4080,0
DA:4082,0
DA:4083,0
DA:4084,0
DA:4086,0
DA:4087,0
DA:4088,0
DA:4090,0
DA:4091,0
DA:4092,0
DA:4093,0
DA:4095,0
DA:4096,0
DA:4097,0
DA:4098,0
DA:4100,0
DA:4101,0
DA:4102,0
DA:4103,0
DA:4105,0
DA:4106,0
DA:4107,0
DA:4109,0
DA:4111,0
DA:4112,0
DA:4113,0
DA:4115,0
DA:4116,0
DA:4117,0
DA:4118,0
DA:4120,0
DA:4121,0
DA:4122,0
DA:4124,0
DA:4125,0
DA:4126,0
DA:4128,0
DA:4130,0
DA:4131,0
DA:4132,0
DA:4133,0
DA:4135,0
DA:4137,0
DA:4138,0
DA:4139,0
DA:4140,0
DA:4142,0
DA:4144,0
DA:4145,0
DA:4146,0
DA:4147,0
DA:4150,0
DA:4151,0
DA:4152,0
DA:4154,0
DA:4155,0
DA:4156,0
DA:4160,0
DA:4161,0
DA:4162,0
DA:4163,0
DA:4165,0
DA:4166,0
DA:4167,0
DA:4168,0
DA:4170,0
DA:4171,0
DA:4172,0
DA:4174,0
DA:4176,0
DA:4177,0
DA:4178,0
DA:4180,0
DA:4181,0
DA:4182,0
DA:4183,0
DA:4185,0
DA:4186,0
DA:4187,0
DA:4189,0
DA:4190,0
DA:4191,0
DA:4193,0
DA:4195,0
DA:4196,0
DA:4197,0
DA:4198,0
DA:4200,0
DA:4202,0
DA:4203,0
DA:4204,0
DA:4205,0
DA:4207,0
DA:4209,0
DA:4210,0
DA:4211,0
DA:4212,0
DA:4215,0
DA:4216,0
DA:4217,0
DA:4219,0
DA:4220,0
DA:4221,0
DA:4225,0
DA:4226,0
DA:4227,0
DA:4228,0
DA:4230,0
DA:4231,0
DA:4232,0
DA:4233,0
DA:4235,0
DA:4236,0
DA:4237,0
DA:4239,0
DA:4241,0
DA:4242,0
DA:4244,0
DA:4246,0
DA:4247,0
DA:4248,0
DA:4249,0
DA:4251,0
DA:4252,0
DA:4253,0
DA:4255,0
DA:4256,0
DA:4257,0
DA:4259,0
DA:4261,0
DA:4262,0
DA:4263,0
DA:4264,0
DA:4266,0
DA:4268,0
DA:4269,0
DA:4270,0
DA:4271,0
DA:4273,0
DA:4275,0
DA:4276,0
DA:4277,0
DA:4278,0
DA:4281,0
DA:4282,0
DA:4283,0
DA:4285,0
DA:4286,0
DA:4287,0
DA:4292,0
DA:4293,0
DA:4294,0
DA:4296,0
DA:4300,0
DA:4301,0
DA:4302,0
DA:4303,0
DA:4304,0
DA:4306,0
DA:4308,0
DA:4309,0
DA:4311,0
DA:4312,0
DA:4314,0
DA:4315,0
DA:4317,0
DA:4319,0
DA:4320,0
DA:4321,0
DA:4322,0
DA:4323,0
DA:4325,0
DA:4326,0
DA:4327,0
DA:4329,0
DA:4330,0
DA:4331,0
DA:4333,0
DA:4334,0
DA:4335,0
DA:4337,0
DA:4338,0
DA:4339,0
DA:4341,0
DA:4342,0
DA:4343,0
DA:4344,0
DA:4346,0
DA:4347,0
DA:4348,0
DA:4349,0
DA:4351,0
DA:4352,0
DA:4353,0
DA:4354,0
DA:4356,0
DA:4357,0
DA:4358,0
DA:4360,0
DA:4362,0
DA:4363,0
DA:4364,0
DA:4366,0
DA:4367,0
DA:4368,0
DA:4369,0
DA:4371,0
DA:4372,0
DA:4373,0
DA:4375,0
DA:4376,0
DA:4377,0
DA:4379,0
DA:4381,0
DA:4382,0
DA:4383,0
DA:4384,0
DA:4385,0
DA:4386,0
DA:4388,0
DA:4390,0
DA:4391,0
DA:4392,0
DA:4393,0
DA:4394,0
DA:4395,0
DA:4397,0
DA:4399,0
DA:4400,0
DA:4401,0
DA:4402,0
DA:4403,0
DA:4404,0
DA:4407,0
DA:4408,0
DA:4409,0
DA:4411,0
DA:4412,0
DA:4413,0
DA:4417,0
DA:4418,0
DA:4419,0
DA:4420,0
DA:4422,0
DA:4423,0
DA:4424,0
DA:4425,0
DA:4427,0
DA:4428,0
DA:4429,0
DA:4431,0
DA:4433,0
DA:4434,0
DA:4435,0
DA:4437,0
DA:4438,0
DA:4439,0
DA:4440,0
DA:4442,0
DA:4443,0
DA:4444,0
DA:4446,0
DA:4447,0
DA:4448,0
DA:4450,0
DA:4452,0
DA:4453,0
DA:4454,0
DA:4455,0
DA:4456,0
DA:4457,0
DA:4459,0
DA:4461,0
DA:4462,0
DA:4463,0
DA:4464,0
DA:4465,0
DA:4466,0
DA:4468,0
DA:4470,0
DA:4471,0
DA:4472,0
DA:4473,0
DA:4474,0
DA:4475,0
DA:4478,0
DA:4479,0
DA:4480,0
DA:4482,0
DA:4483,0
DA:4484,0
DA:4488,0
DA:4489,0
DA:4490,0
DA:4491,0
DA:4493,0
DA:4494,0
DA:4495,0
DA:4496,0
DA:4498,0
DA:4499,0
DA:4500,0
DA:4502,0
DA:4504,0
DA:4505,0
DA:4507,0
DA:4509,0
DA:4510,0
DA:4511,0
DA:4512,0
DA:4514,0
DA:4515,0
DA:4516,0
DA:4518,0
DA:4519,0
DA:4520,0
DA:4522,0
DA:4524,0
DA:4525,0
DA:4526,0
DA:4527,0
DA:4528,0
DA:4529,0
DA:4531,0
DA:4533,0
DA:4534,0
DA:4535,0
DA:4536,0
DA:4537,0
DA:4538,0
DA:4540,0
DA:4542,0
DA:4543,0
DA:4544,0
DA:4545,0
DA:4546,0
DA:4547,0
DA:4550,0
DA:4551,0
DA:4552,0
DA:4554,0
DA:4555,0
DA:4556,0
DA:4561,0
DA:4562,0
DA:4563,0
DA:4565,0
DA:4569,0
DA:4570,0
DA:4571,0
DA:4572,0
DA:4573,0
DA:4575,0
DA:4577,0
DA:4578,0
DA:4580,0
DA:4582,0
DA:4583,0
DA:4585,0
DA:4586,0
DA:4587,0
DA:4588,0
DA:4589,0
DA:4590,0
DA:4592,0
DA:4593,0
DA:4594,0
DA:4596,0
DA:4597,0
DA:4598,0
DA:4600,0
DA:4601,0
DA:4602,0
DA:4604,0
DA:4605,0
DA:4606,0
DA:4608,0
DA:4609,0
DA:4610,0
DA:4611,0
DA:4613,0
DA:4614,0
DA:4615,0
DA:4616,0
DA:4618,0
DA:4619,0
DA:4620,0
DA:4622,0
DA:4624,0
DA:4625,0
DA:4626,0
DA:4628,0
DA:4629,0
DA:4630,0
DA:4631,0
DA:4633,0
DA:4634,0
DA:4635,0
DA:4637,0
DA:4639,0
DA:4640,0
DA:4641,0
DA:4642,0
DA:4644,0
DA:4646,0
DA:4647,0
DA:4648,0
DA:4649,0
DA:4651,0
DA:4653,0
DA:4654,0
DA:4655,0
DA:4656,0
DA:4659,0
DA:4660,0
DA:4661,0
DA:4663,0
DA:4664,0
DA:4665,0
DA:4669,0
DA:4670,0
DA:4671,0
DA:4672,0
DA:4674,0
DA:4675,0
DA:4676,0
DA:4677,0
DA:4679,0
DA:4680,0
DA:4681,0
DA:4683,0
DA:4685,0
DA:4686,0
DA:4687,0
DA:4689,0
DA:4690,0
DA:4691,0
DA:4692,0
DA:4694,0
DA:4695,0
DA:4696,0
DA:4698,0
DA:4700,0
DA:4701,0
DA:4702,0
DA:4703,0
DA:4705,0
DA:4707,0
DA:4708,0
DA:4709,0
DA:4710,0
DA:4712,0
DA:4714,0
DA:4715,0
DA:4716,0
DA:4717,0
DA:4720,0
DA:4721,0
DA:4722,0
DA:4724,0
DA:4725,0
DA:4726,0
DA:4730,0
DA:4731,0
DA:4732,0
DA:4733,0
DA:4735,0
DA:4736,0
DA:4737,0
DA:4738,0
DA:4740,0
DA:4741,0
DA:4742,0
DA:4744,0
DA:4746,0
DA:4747,0
DA:4749,0
DA:4751,0
DA:4752,0
DA:4753,0
DA:4754,0
DA:4756,0
DA:4757,0
DA:4758,0
DA:4760,0
DA:4762,0
DA:4763,0
DA:4764,0
DA:4765,0
DA:4767,0
DA:4769,0
DA:4770,0
DA:4771,0
DA:4772,0
DA:4774,0
DA:4776,0
DA:4777,0
DA:4778,0
DA:4779,0
DA:4782,0
DA:4783,0
DA:4784,0
DA:4786,0
DA:4787,0
DA:4788,0
DA:4793,0
DA:4794,0
DA:4795,0
DA:4797,0
DA:4801,0
DA:4802,0
DA:4803,0
DA:4804,0
DA:4805,0
DA:4807,0
DA:4809,0
DA:4810,0
DA:4812,0
DA:4813,0
DA:4815,0
DA:4816,0
DA:4818,0
DA:4819,0
DA:4820,0
DA:4821,0
DA:4822,0
DA:4823,0
DA:4825,0
DA:4826,0
DA:4827,0
DA:4829,0
DA:4830,0
DA:4831,0
DA:4833,0
DA:4834,0
DA:4835,0
DA:4837,0
DA:4838,0
DA:4839,0
DA:4841,0
DA:4842,0
DA:4843,0
DA:4844,0
DA:4846,0
DA:4847,0
DA:4848,0
DA:4849,0
DA:4851,0
DA:4852,0
DA:4853,0
DA:4855,0
DA:4857,0
DA:4858,0
DA:4859,0
DA:4861,0
DA:4862,0
DA:4863,0
DA:4864,0
DA:4866,0
DA:4867,0
DA:4868,0
DA:4870,0
DA:4872,0
DA:4873,0
DA:4874,0
DA:4875,0
DA:4877,0
DA:4879,0
DA:4880,0
DA:4881,0
DA:4882,0
DA:4884,0
DA:4886,0
DA:4887,0
DA:4888,0
DA:4889,0
DA:4892,0
DA:4893,0
DA:4894,0
DA:4896,0
DA:4897,0
DA:4898,0
DA:4902,0
DA:4903,0
DA:4904,0
DA:4905,0
DA:4907,0
DA:4908,0
DA:4909,0
DA:4910,0
DA:4912,0
DA:4913,0
DA:4914,0
DA:4916,0
DA:4918,0
DA:4919,0
DA:4920,0
DA:4922,0
DA:4923,0
DA:4924,0
DA:4925,0
DA:4927,0
DA:4928,0
DA:4929,0
DA:4931,0
DA:4933,0
DA:4934,0
DA:4935,0
DA:4936,0
DA:4938,0
DA:4940,0
DA:4941,0
DA:4942,0
DA:4943,0
DA:4945,0
DA:4947,0
DA:4948,0
DA:4949,0
DA:4950,0
DA:4953,0
DA:4954,0
DA:4955,0
DA:4957,0
DA:4958,0
DA:4959,0
DA:4963,0
DA:4964,0
DA:4965,0
DA:4966,0
DA:4968,0
DA:4969,0
DA:4970,0
DA:4971,0
DA:4973,0
DA:4974,0
DA:4975,0
DA:4977,0
DA:4979,0
DA:4980,0
DA:4982,0
DA:4984,0
DA:4985,0
DA:4986,0
DA:4987,0
DA:4989,0
DA:4990,0
DA:4991,0
DA:4993,0
DA:4995,0
DA:4996,0
DA:4997,0
DA:4998,0
DA:5000,0
DA:5002,0
DA:5003,0
DA:5004,0
DA:5005,0
DA:5007,0
DA:5009,0
DA:5010,0
DA:5011,0
DA:5012,0
DA:5015,0
DA:5016,0
DA:5017,0
DA:5019,0
DA:5020,0
DA:5021,0
DA:5026,0
DA:5027,0
DA:5028,0
LF:2725
LH:0
end_of_record
TN:
SF:/root/mfem/tests/unit/fem/test_getderivative.cpp
FN:17,_Z4funcRKN4mfem6VectorE
FNDA:0,_Z4funcRKN4mfem6VectorE
FNF:1
FNH:0
DA:17,0
DA:19,0
DA:20,0
DA:21,0
LF:4
LH:0
end_of_record
TN:
SF:/root/mfem/tests/unit/fem/test_intrules.cpp
FN:18,_ZL29____C_A_T_C_H____T_E_S_T____0v
FN:100,_Z6poly2dRKN4mfem16IntegrationPointEii
FN:107,_Z7apoly2dRKN4mfem16IntegrationPointEiii
FN:114,_Z6poly3dRKN4mfem16IntegrationPointEiii
FN:121,_ZL29____C_A_T_C_H____T_E_S_T____8v
FNDA:0,_Z6poly2dRKN4mfem16IntegrationPointEii
FNDA:0,_Z6poly3dRKN4mfem16IntegrationPointEiii
FNDA:0,_Z7apoly2dRKN4mfem16IntegrationPointEiii
FNDA:0,_ZL29____C_A_T_C_H____T_E_S_T____0v
FNDA:0,_ZL29____C_A_T_C_H____T_E_S_T____8v
FNF:5
FNH:0
DA:18,0
DA:21,0
DA:22,0
DA:23,0
DA:28,0
DA:29,0
DA:30,0
DA:31,0
DA:33,0
DA:34,0
DA:36,0
DA:37,0
DA:40,0
DA:41,0
DA:43,0
DA:44,0
DA:45,0
DA:48,0
DA:51,0
DA:52,0
DA:55,0
DA:56,0
DA:57,0
DA:58,0
DA:60,0
DA:61,0
DA:67,0
DA:68,0
DA:69,0
DA:70,0
DA:73,0
DA:74,0
DA:75,0
DA:76,0
DA:78,0
DA:82,0
DA:84,0
DA:89,0
DA:90,0
DA:91,0
DA:92,0
DA:93,0
DA:95,0
DA:97,0
DA:100,0
DA:102,0
DA:107,0
DA:109,0
DA:114,0
DA:116,0
DA:121,0
DA:124,0
DA:125,0
DA:127,0
DA:129,0
DA:131,0
DA:132,0
DA:134,0
DA:138,0
DA:140,0
DA:142,0
DA:145,0
DA:147,0
DA:149,0
DA:151,0
DA:152,0
DA:154,0
DA:155,0
DA:158,0
DA:159,0
DA:162,0
DA:163,0
DA:169,0
DA:171,0
DA:173,0
DA:175,0
DA:177,0
DA:179,0
DA:181,0
DA:183,0
DA:184,0
DA:186,0
DA:187,0
DA:190,0
DA:191,0
DA:194,0
DA:195,0
DA:201,0
LF:88
LH:0
end_of_record
TN:
SF:/root/mfem/tests/unit/fem/test_intruletypes.cpp
FN:18,_ZL29____C_A_T_C_H____T_E_S_T____0v
FNDA:0,_ZL29____C_A_T_C_H____T_E_S_T____0v
FNF:1
FNH:0
DA:18,0
DA:21,0
DA:22,0
DA:23,0
DA:24,0
DA:31,0
DA:32,0
DA:34,0
DA:36,0
DA:38,0
DA:39,0
DA:40,0
DA:42,0
DA:43,0
DA:45,0
DA:47,0
DA:49,0
DA:50,0
DA:51,0
DA:53,0
LF:20
LH:0
end_of_record
TN:
SF:/root/mfem/tests/unit/fem/test_inversetransform.cpp
FN:52,_ZL29____C_A_T_C_H____T_E_S_T____0v
FNDA:0,_ZL29____C_A_T_C_H____T_E_S_T____0v
FNF:1
FNH:0
DA:52,0
DA:55,0
DA:57,0
DA:59,0
DA:60,0
DA:62,0
DA:63,0
DA:64,0
DA:66,0
DA:67,0
DA:70,0
DA:71,0
DA:78,0
DA:79,0
DA:82,0
DA:83,0
DA:84,0
DA:85,0
DA:88,0
DA:89,0
DA:90,0
DA:92,0
DA:93,0
DA:94,0
DA:95,0
DA:98,0
DA:99,0
DA:102,0
DA:104,0
DA:107,0
DA:109,0
DA:112,0
DA:113,0
DA:116,0
DA:117,0
DA:118,0
DA:119,0
DA:122,0
DA:123,0
DA:125,0
DA:126,0
DA:128,0
DA:129,0
DA:130,0
DA:131,0
DA:133,0
DA:134,0
DA:135,0
DA:136,0
DA:138,0
DA:139,0
DA:141,0
DA:144,0
DA:145,0
DA:146,0
DA:147,0
DA:149,0
DA:150,0
DA:151,0
DA:153,0
DA:154,0
DA:156,0
DA:157,0
DA:159,0
DA:162,0
DA:163,0
DA:166,0
DA:167,0
DA:168,0
DA:169,0
DA:171,0
LF:71
LH:0
end_of_record
TN:
SF:/root/mfem/tests/unit/fem/test_lexicographic_ordering.cpp
FN:17,_Z14VerifyOrderingRN4mfem18NodalFiniteElementE
FN:40,_Z14VerifyOrderingIN4mfem15H1_WedgeElementEEvi
FN:40,_Z14VerifyOrderingIN4mfem15L2_WedgeElementEEvi
FN:40,_Z14VerifyOrderingIN4mfem17H1_SegmentElementEEvi
FN:40,_Z14VerifyOrderingIN4mfem17L2_SegmentElementEEvi
FN:40,_Z14VerifyOrderingIN4mfem18H1_TriangleElementEEvi
FN:40,_Z14VerifyOrderingIN4mfem18L2_TriangleElementEEvi
FN:40,_Z14VerifyOrderingIN4mfem20H1_HexahedronElementEEvi
FN:40,_Z14VerifyOrderingIN4mfem20L2_HexahedronElementEEvi
FN:40,_Z14VerifyOrderingIN4mfem21H1_TetrahedronElementEEvi
FN:40,_Z14VerifyOrderingIN4mfem21L2_TetrahedronElementEEvi
FN:40,_Z14VerifyOrderingIN4mfem23H1_QuadrilateralElementEEvi
FN:40,_Z14VerifyOrderingIN4mfem23L2_QuadrilateralElementEEvi
FN:48,_ZL29____C_A_T_C_H____T_E_S_T____1v
FN:50,_ZZL29____C_A_T_C_H____T_E_S_T____1vENKUlvE_clEv
FNDA:0,_Z14VerifyOrderingIN4mfem15H1_WedgeElementEEvi
FNDA:0,_Z14VerifyOrderingIN4mfem15L2_WedgeElementEEvi
FNDA:0,_Z14VerifyOrderingIN4mfem17H1_SegmentElementEEvi
FNDA:0,_Z14VerifyOrderingIN4mfem17L2_SegmentElementEEvi
FNDA:0,_Z14VerifyOrderingIN4mfem18H1_TriangleElementEEvi
FNDA:0,_Z14VerifyOrderingIN4mfem18L2_TriangleElementEEvi
FNDA:0,_Z14VerifyOrderingIN4mfem20H1_HexahedronElementEEvi
FNDA:0,_Z14VerifyOrderingIN4mfem20L2_HexahedronElementEEvi
FNDA:0,_Z14VerifyOrderingIN4mfem21H1_TetrahedronElementEEvi
FNDA:0,_Z14VerifyOrderingIN4mfem21L2_TetrahedronElementEEvi
FNDA:0,_Z14VerifyOrderingIN4mfem23H1_QuadrilateralElementEEvi
FNDA:0,_Z14VerifyOrderingIN4mfem23L2_QuadrilateralElementEEvi
FNDA:0,_Z14VerifyOrderingRN4mfem18NodalFiniteElementE
FNDA:0,_ZL29____C_A_T_C_H____T_E_S_T____1v
FNDA:0,_ZZL29____C_A_T_C_H____T_E_S_T____1vENKUlvE_clEv
FNF:15
FNH:0
DA:17,0
DA:19,0
DA:20,0
DA:21,0
DA:23,0
DA:24,0
DA:25,0
DA:27,0
DA:29,0
DA:31,0
DA:32,0
DA:33,0
DA:34,0
DA:37,0
DA:38,0
DA:40,0
DA:42,0
DA:43,0
DA:44,0
DA:45,0
DA:46,0
DA:48,0
DA:50,0
DA:51,0
DA:52,0
DA:53,0
DA:54,0
DA:55,0
DA:56,0
DA:58,0
DA:59,0
DA:60,0
DA:61,0
DA:62,0
DA:63,0
DA:64,0
LF:36
LH:0
end_of_record
TN:
SF:/root/mfem/tests/unit/fem/test_lin_interp.cpp
FN:20,_ZN10lin_interp2f1ERKN4mfem6VectorE
FN:21,_ZN10lin_interp7grad_f1ERKN4mfem6VectorE
FN:22,_ZN10lin_interp7Grad_f1ERKN4mfem6VectorERS1_
FN:28,_ZN10lin_interp2f2ERKN4mfem6VectorE
FN:29,_ZN10lin_interp2F2ERKN4mfem6VectorERS1_
FN:36,_ZN10lin_interp7Grad_f2ERKN4mfem6VectorERS1_
FN:42,_ZN10lin_interp6curlF2ERKN4mfem6VectorE
FN:43,_ZN10lin_interp6CurlF2ERKN4mfem6VectorERS1_
FN:48,_ZN10lin_interp5DivF2ERKN4mfem6VectorE
FN:50,_ZN10lin_interp2f3ERKN4mfem6VectorE
FN:52,_ZN10lin_interp2F3ERKN4mfem6VectorERS1_
FN:60,_ZN10lin_interp7Grad_f3ERKN4mfem6VectorERS1_
FN:67,_ZN10lin_interp6CurlF3ERKN4mfem6VectorERS1_
FN:74,_ZN10lin_interp5DivF3ERKN4mfem6VectorE
FN:77,_ZN10lin_interp2g1ERKN4mfem6VectorE
FN:78,_ZN10lin_interp2g2ERKN4mfem6VectorE
FN:79,_ZN10lin_interp2g3ERKN4mfem6VectorE
FN:82,_ZN10lin_interp2G2ERKN4mfem6VectorERS1_
FN:88,_ZN10lin_interp2G3ERKN4mfem6VectorERS1_
FN:96,_ZN10lin_interp3fg1ERKN4mfem6VectorE
FN:98,_ZN10lin_interp3fg2ERKN4mfem6VectorE
FN:99,_ZN10lin_interp3fG2ERKN4mfem6VectorERS1_
FN:100,_ZN10lin_interp3Fg2ERKN4mfem6VectorERS1_
FN:102,_ZN10lin_interp8FcrossG2ERKN4mfem6VectorERS1_
FN:110,_ZN10lin_interp6FdotG2ERKN4mfem6VectorE
FN:117,_ZN10lin_interp3fg3ERKN4mfem6VectorE
FN:118,_ZN10lin_interp3fG3ERKN4mfem6VectorERS1_
FN:119,_ZN10lin_interp3Fg3ERKN4mfem6VectorERS1_
FN:121,_ZN10lin_interp8FcrossG3ERKN4mfem6VectorERS1_
FN:131,_ZN10lin_interp6FdotG3ERKN4mfem6VectorE
FN:138,_ZN10lin_interpL29____C_A_T_C_H____T_E_S_T____0Ev
FN:515,_ZN10lin_interpL30____C_A_T_C_H____T_E_S_T____23Ev
FN:732,_ZN10lin_interpL30____C_A_T_C_H____T_E_S_T____36Ev
FNDA:0,_ZN10lin_interp2F2ERKN4mfem6VectorERS1_
FNDA:0,_ZN10lin_interp2F3ERKN4mfem6VectorERS1_
FNDA:0,_ZN10lin_interp2G2ERKN4mfem6VectorERS1_
FNDA:0,_ZN10lin_interp2G3ERKN4mfem6VectorERS1_
FNDA:0,_ZN10lin_interp2f1ERKN4mfem6VectorE
FNDA:0,_ZN10lin_interp2f2ERKN4mfem6VectorE
FNDA:0,_ZN10lin_interp2f3ERKN4mfem6VectorE
FNDA:0,_ZN10lin_interp2g1ERKN4mfem6VectorE
FNDA:0,_ZN10lin_interp2g2ERKN4mfem6VectorE
FNDA:0,_ZN10lin_interp2g3ERKN4mfem6VectorE
FNDA:0,_ZN10lin_interp3Fg2ERKN4mfem6VectorERS1_
FNDA:0,_ZN10lin_interp3Fg3ERKN4mfem6VectorERS1_
FNDA:0,_ZN10lin_interp3fG2ERKN4mfem6VectorERS1_
FNDA:0,_ZN10lin_interp3fG3ERKN4mfem6VectorERS1_
FNDA:0,_ZN10lin_interp3fg1ERKN4mfem6VectorE
FNDA:0,_ZN10lin_interp3fg2ERKN4mfem6VectorE
FNDA:0,_ZN10lin_interp3fg3ERKN4mfem6VectorE
FNDA:0,_ZN10lin_interp5DivF2ERKN4mfem6VectorE
FNDA:0,_ZN10lin_interp5DivF3ERKN4mfem6VectorE
FNDA:0,_ZN10lin_interp6CurlF2ERKN4mfem6VectorERS1_
FNDA:0,_ZN10lin_interp6CurlF3ERKN4mfem6VectorERS1_
FNDA:0,_ZN10lin_interp6FdotG2ERKN4mfem6VectorE
FNDA:0,_ZN10lin_interp6FdotG3ERKN4mfem6VectorE
FNDA:0,_ZN10lin_interp6curlF2ERKN4mfem6VectorE
FNDA:0,_ZN10lin_interp7Grad_f1ERKN4mfem6VectorERS1_
FNDA:0,_ZN10lin_interp7Grad_f2ERKN4mfem6VectorERS1_
FNDA:0,_ZN10lin_interp7Grad_f3ERKN4mfem6VectorERS1_
FNDA:0,_ZN10lin_interp7grad_f1ERKN4mfem6VectorE
FNDA:0,_ZN10lin_interp8FcrossG2ERKN4mfem6VectorERS1_
FNDA:0,_ZN10lin_interp8FcrossG3ERKN4mfem6VectorERS1_
FNDA:0,_ZN10lin_interpL29____C_A_T_C_H____T_E_S_T____0Ev
FNDA:0,_ZN10lin_interpL30____C_A_T_C_H____T_E_S_T____23Ev
FNDA:0,_ZN10lin_interpL30____C_A_T_C_H____T_E_S_T____36Ev
FNF:33
FNH:0
DA:20,0
DA:21,0
DA:22,0
DA:24,0
DA:25,0
DA:26,0
DA:28,0
DA:29,0
DA:31,0
DA:32,0
DA:33,0
DA:34,0
DA:36,0
DA:38,0
DA:39,0
DA:40,0
DA:41,0
DA:42,0
DA:43,0
DA:45,0
DA:46,0
DA:47,0
DA:48,0
DA:50,0
DA:51,0
DA:52,0
DA:54,0
DA:55,0
DA:56,0
DA:57,0
DA:58,0
DA:60,0
DA:62,0
DA:63,0
DA:64,0
DA:65,0
DA:66,0
DA:67,0
DA:69,0
DA:70,0
DA:71,0
DA:72,0
DA:73,0
DA:74,0
DA:75,0
DA:77,0
DA:78,0
DA:79,0
DA:80,0
DA:82,0
DA:84,0
DA:85,0
DA:86,0
DA:87,0
DA:88,0
DA:90,0
DA:91,0
DA:92,0
DA:93,0
DA:94,0
DA:96,0
DA:98,0
DA:99,0
DA:100,0
DA:102,0
DA:104,0
DA:105,0
DA:106,0
DA:107,0
DA:108,0
DA:110,0
DA:112,0
DA:113,0
DA:114,0
DA:117,0
DA:118,0
DA:119,0
DA:121,0
DA:123,0
DA:124,0
DA:125,0
DA:126,0
DA:127,0
DA:128,0
DA:129,0
DA:131,0
DA:133,0
DA:134,0
DA:135,0
DA:138,0
DA:141,0
DA:142,0
DA:144,0
DA:145,0
DA:147,0
DA:149,0
DA:151,0
DA:152,0
DA:155,0
DA:157,0
DA:158,0
DA:162,0
DA:163,0
DA:164,0
DA:167,0
DA:168,0
DA:169,0
DA:171,0
DA:173,0
DA:174,0
DA:175,0
DA:176,0
DA:178,0
DA:179,0
DA:181,0
DA:182,0
DA:183,0
DA:184,0
DA:186,0
DA:188,0
DA:189,0
DA:190,0
DA:192,0
DA:194,0
DA:196,0
DA:197,0
DA:198,0
DA:199,0
DA:201,0
DA:203,0
DA:204,0
DA:205,0
DA:207,0
DA:209,0
DA:211,0
DA:212,0
DA:213,0
DA:215,0
DA:216,0
DA:218,0
DA:220,0
DA:221,0
DA:222,0
DA:224,0
DA:226,0
DA:229,0
DA:230,0
DA:231,0
DA:232,0
DA:234,0
DA:235,0
DA:237,0
DA:238,0
DA:239,0
DA:240,0
DA:242,0
DA:244,0
DA:245,0
DA:246,0
DA:248,0
DA:250,0
DA:252,0
DA:253,0
DA:254,0
DA:256,0
DA:257,0
DA:259,0
DA:261,0
DA:262,0
DA:263,0
DA:265,0
DA:267,0
DA:270,0
DA:272,0
DA:273,0
DA:275,0
DA:276,0
DA:278,0
DA:279,0
DA:281,0
DA:282,0
DA:283,0
DA:284,0
DA:286,0
DA:288,0
DA:289,0
DA:290,0
DA:292,0
DA:294,0
DA:296,0
DA:297,0
DA:298,0
DA:300,0
DA:301,0
DA:303,0
DA:305,0
DA:306,0
DA:307,0
DA:309,0
DA:311,0
DA:314,0
DA:316,0
DA:317,0
DA:318,0
DA:319,0
DA:320,0
DA:322,0
DA:323,0
DA:324,0
DA:325,0
DA:327,0
DA:328,0
DA:330,0
DA:331,0
DA:332,0
DA:333,0
DA:335,0
DA:337,0
DA:338,0
DA:339,0
DA:341,0
DA:343,0
DA:345,0
DA:346,0
DA:347,0
DA:348,0
DA:350,0
DA:352,0
DA:353,0
DA:354,0
DA:356,0
DA:358,0
DA:360,0
DA:361,0
DA:362,0
DA:364,0
DA:365,0
DA:367,0
DA:369,0
DA:370,0
DA:371,0
DA:373,0
DA:375,0
DA:378,0
DA:379,0
DA:380,0
DA:381,0
DA:383,0
DA:384,0
DA:386,0
DA:387,0
DA:388,0
DA:389,0
DA:391,0
DA:393,0
DA:394,0
DA:395,0
DA:397,0
DA:399,0
DA:401,0
DA:402,0
DA:403,0
DA:404,0
DA:406,0
DA:408,0
DA:409,0
DA:410,0
DA:412,0
DA:414,0
DA:416,0
DA:417,0
DA:418,0
DA:420,0
DA:421,0
DA:423,0
DA:425,0
DA:426,0
DA:427,0
DA:429,0
DA:431,0
DA:434,0
DA:435,0
DA:436,0
DA:437,0
DA:439,0
DA:440,0
DA:442,0
DA:443,0
DA:444,0
DA:445,0
DA:447,0
DA:449,0
DA:450,0
DA:451,0
DA:453,0
DA:455,0
DA:457,0
DA:458,0
DA:459,0
DA:460,0
DA:462,0
DA:464,0
DA:465,0
DA:466,0
DA:468,0
DA:470,0
DA:513,0
DA:515,0
DA:520,0
DA:521,0
DA:523,0
DA:524,0
DA:526,0
DA:528,0
DA:530,0
DA:531,0
DA:534,0
DA:536,0
DA:537,0
DA:541,0
DA:542,0
DA:543,0
DA:546,0
DA:547,0
DA:548,0
DA:549,0
DA:551,0
DA:553,0
DA:554,0
DA:555,0
DA:556,0
DA:558,0
DA:559,0
DA:561,0
DA:563,0
DA:564,0
DA:565,0
DA:566,0
DA:568,0
DA:570,0
DA:571,0
DA:572,0
DA:574,0
DA:576,0
DA:578,0
DA:579,0
DA:580,0
DA:582,0
DA:583,0
DA:585,0
DA:587,0
DA:588,0
DA:589,0
DA:591,0
DA:593,0
DA:599,0
DA:600,0
DA:601,0
DA:602,0
DA:604,0
DA:606,0
DA:607,0
DA:608,0
DA:610,0
DA:612,0
DA:616,0
DA:618,0
DA:619,0
DA:620,0
DA:621,0
DA:622,0
DA:623,0
DA:625,0
DA:626,0
DA:627,0
DA:628,0
DA:630,0
DA:631,0
DA:633,0
DA:635,0
DA:636,0
DA:637,0
DA:638,0
DA:640,0
DA:642,0
DA:643,0
DA:644,0
DA:646,0
DA:648,0
DA:650,0
DA:651,0
DA:652,0
DA:654,0
DA:655,0
DA:657,0
DA:659,0
DA:660,0
DA:661,0
DA:663,0
DA:665,0
DA:670,0
DA:671,0
DA:672,0
DA:673,0
DA:675,0
DA:677,0
DA:678,0
DA:679,0
DA:681,0
DA:683,0
DA:687,0
DA:688,0
DA:689,0
DA:690,0
DA:692,0
DA:693,0
DA:695,0
DA:696,0
DA:697,0
DA:698,0
DA:700,0
DA:702,0
DA:703,0
DA:704,0
DA:706,0
DA:708,0
DA:710,0
DA:711,0
DA:712,0
DA:714,0
DA:715,0
DA:717,0
DA:719,0
DA:720,0
DA:721,0
DA:723,0
DA:725,0
DA:730,0
DA:732,0
DA:740,0
DA:741,0
DA:743,0
DA:744,0
DA:746,0
DA:748,0
DA:750,0
DA:751,0
DA:754,0
DA:756,0
DA:757,0
DA:761,0
DA:762,0
DA:763,0
DA:766,0
DA:767,0
DA:768,0
DA:769,0
DA:770,0
DA:771,0
DA:773,0
DA:774,0
DA:775,0
DA:776,0
DA:778,0
DA:779,0
DA:780,0
DA:781,0
DA:783,0
DA:784,0
DA:785,0
DA:786,0
DA:788,0
DA:789,0
DA:791,0
DA:792,0
DA:793,0
DA:794,0
DA:796,0
DA:797,0
DA:798,0
DA:799,0
DA:801,0
DA:802,0
DA:804,0
DA:806,0
DA:808,0
DA:809,0
DA:810,0
DA:811,0
DA:813,0
DA:814,0
DA:816,0
DA:817,0
DA:818,0
DA:819,0
DA:821,0
DA:822,0
DA:824,0
DA:828,0
DA:830,0
DA:831,0
DA:832,0
DA:833,0
DA:835,0
DA:836,0
DA:838,0
DA:839,0
DA:840,0
DA:841,0
DA:843,0
DA:844,0
DA:846,0
DA:847,0
DA:848,0
DA:849,0
DA:851,0
DA:852,0
DA:854,0
DA:856,0
DA:858,0
DA:859,0
DA:860,0
DA:861,0
DA:863,0
DA:864,0
DA:865,0
DA:866,0
DA:868,0
DA:869,0
DA:871,0
DA:876,0
DA:877,0
DA:878,0
DA:879,0
DA:881,0
DA:882,0
DA:883,0
DA:884,0
DA:886,0
DA:887,0
DA:889,0
DA:892,0
DA:893,0
DA:894,0
DA:895,0
DA:897,0
DA:898,0
DA:900,0
DA:901,0
DA:902,0
DA:903,0
DA:905,0
DA:906,0
DA:908,0
DA:911,0
DA:912,0
DA:913,0
DA:914,0
DA:916,0
DA:917,0
DA:919,0
DA:920,0
DA:921,0
DA:922,0
DA:924,0
DA:925,0
DA:927,0
DA:928,0
DA:929,0
DA:930,0
DA:932,0
DA:933,0
DA:935,0
DA:940,0
LF:574
LH:0
end_of_record
TN:
SF:/root/mfem/tests/unit/fem/test_linear_fes.cpp
FN:35,_Z20generateMeshFilenameIN4mfem15H1_FECollectionEENSt7__cxx1112basic_stringIcSt11char_traitsIcESaIcEEERT_RNS0_4MeshERKS7_SD_
FN:35,_Z20generateMeshFilenameIN4mfem15L2_FECollectionEENSt7__cxx1112basic_stringIcSt11char_traitsIcESaIcEEERT_RNS0_4MeshERKS7_SD_
FN:35,_Z20generateMeshFilenameIN4mfem18LinearFECollectionEENSt7__cxx1112basic_stringIcSt11char_traitsIcESaIcEEERT_RNS0_4MeshERKS7_SD_
FN:55,_Z17testGridFunctionsIN4mfem15H1_FECollectionEEvRT_RNS0_4MeshEi
FN:55,_Z17testGridFunctionsIN4mfem15L2_FECollectionEEvRT_RNS0_4MeshEi
FN:55,_Z17testGridFunctionsIN4mfem18LinearFECollectionEEvRT_RNS0_4MeshEi
FN:179,_ZL29____C_A_T_C_H____T_E_S_T____0v
FN:222,_ZL29____C_A_T_C_H____T_E_S_T____5v
FN:265,_ZL30____C_A_T_C_H____T_E_S_T____10v
FN:309,_ZL30____C_A_T_C_H____T_E_S_T____15v
FN:356,_ZL30____C_A_T_C_H____T_E_S_T____20v
FN:402,_ZL30____C_A_T_C_H____T_E_S_T____25v
FN:450,_ZL30____C_A_T_C_H____T_E_S_T____30v
FNDA:0,_Z17testGridFunctionsIN4mfem15H1_FECollectionEEvRT_RNS0_4MeshEi
FNDA:0,_Z17testGridFunctionsIN4mfem15L2_FECollectionEEvRT_RNS0_4MeshEi
FNDA:0,_Z17testGridFunctionsIN4mfem18LinearFECollectionEEvRT_RNS0_4MeshEi
FNDA:0,_Z20generateMeshFilenameIN4mfem15H1_FECollectionEENSt7__cxx1112basic_stringIcSt11char_traitsIcESaIcEEERT_RNS0_4MeshERKS7_SD_
FNDA:0,_Z20generateMeshFilenameIN4mfem15L2_FECollectionEENSt7__cxx1112basic_stringIcSt11char_traitsIcESaIcEEERT_RNS0_4MeshERKS7_SD_
FNDA:0,_Z20generateMeshFilenameIN4mfem18LinearFECollectionEENSt7__cxx1112basic_stringIcSt11char_traitsIcESaIcEEERT_RNS0_4MeshERKS7_SD_
FNDA:0,_ZL29____C_A_T_C_H____T_E_S_T____0v
FNDA:0,_ZL29____C_A_T_C_H____T_E_S_T____5v
FNDA:0,_ZL30____C_A_T_C_H____T_E_S_T____10v
FNDA:0,_ZL30____C_A_T_C_H____T_E_S_T____15v
FNDA:0,_ZL30____C_A_T_C_H____T_E_S_T____20v
FNDA:0,_ZL30____C_A_T_C_H____T_E_S_T____25v
FNDA:0,_ZL30____C_A_T_C_H____T_E_S_T____30v
FNF:13
FNH:0
DA:35,0
DA:39,0
DA:41,0
DA:42,0
DA:45,0
DA:46,0
DA:48,0
DA:55,0
DA:58,0
DA:59,0
DA:60,0
DA:63,0
DA:64,0
DA:66,0
DA:67,0
DA:68,0
DA:69,0
DA:72,0
DA:74,0
DA:75,0
DA:77,0
DA:79,0
DA:83,0
DA:84,0
DA:85,0
DA:89,0
DA:90,0
DA:91,0
DA:93,0
DA:94,0
DA:95,0
DA:96,0
DA:99,0
DA:100,0
DA:101,0
DA:104,0
DA:106,0
DA:108,0
DA:112,0
DA:113,0
DA:114,0
DA:120,0
DA:121,0
DA:122,0
DA:123,0
DA:126,0
DA:127,0
DA:128,0
DA:129,0
DA:131,0
DA:133,0
DA:135,0
DA:140,0
DA:141,0
DA:142,0
DA:143,0
DA:145,0
DA:146,0
DA:150,0
DA:151,0
DA:158,0
DA:161,0
DA:162,0
DA:163,0
DA:164,0
DA:165,0
DA:168,0
DA:169,0
DA:171,0
DA:172,0
DA:173,0
DA:174,0
DA:176,0
DA:179,0
DA:187,0
DA:188,0
DA:190,0
DA:192,0
DA:193,0
DA:195,0
DA:197,0
DA:198,0
DA:199,0
DA:200,0
DA:202,0
DA:203,0
DA:204,0
DA:205,0
DA:208,0
DA:209,0
DA:210,0
DA:211,0
DA:214,0
DA:215,0
DA:216,0
DA:217,0
DA:219,0
DA:222,0
DA:230,0
DA:231,0
DA:233,0
DA:234,0
DA:236,0
DA:237,0
DA:239,0
DA:241,0
DA:242,0
DA:243,0
DA:244,0
DA:246,0
DA:247,0
DA:248,0
DA:249,0
DA:252,0
DA:253,0
DA:254,0
DA:255,0
DA:258,0
DA:259,0
DA:260,0
DA:261,0
DA:263,0
DA:265,0
DA:273,0
DA:274,0
DA:276,0
DA:277,0
DA:278,0
DA:280,0
DA:281,0
DA:283,0
DA:285,0
DA:286,0
DA:287,0
DA:288,0
DA:290,0
DA:291,0
DA:292,0
DA:293,0
DA:296,0
DA:297,0
DA:298,0
DA:299,0
DA:302,0
DA:303,0
DA:304,0
DA:305,0
DA:307,0
DA:309,0
DA:317,0
DA:318,0
DA:320,0
DA:321,0
DA:322,0
DA:323,0
DA:325,0
DA:326,0
DA:328,0
DA:330,0
DA:331,0
DA:332,0
DA:333,0
DA:335,0
DA:336,0
DA:337,0
DA:338,0
DA:341,0
DA:342,0
DA:343,0
DA:344,0
DA:347,0
DA:348,0
DA:349,0
DA:350,0
DA:353,0
DA:356,0
DA:364,0
DA:365,0
DA:367,0
DA:368,0
DA:369,0
DA:370,0
DA:372,0
DA:373,0
DA:375,0
DA:377,0
DA:378,0
DA:379,0
DA:380,0
DA:382,0
DA:383,0
DA:384,0
DA:385,0
DA:388,0
DA:389,0
DA:390,0
DA:391,0
DA:394,0
DA:395,0
DA:396,0
DA:397,0
DA:400,0
DA:402,0
DA:410,0
DA:411,0
DA:413,0
DA:414,0
DA:415,0
DA:416,0
DA:417,0
DA:418,0
DA:420,0
DA:421,0
DA:423,0
DA:425,0
DA:426,0
DA:427,0
DA:428,0
DA:430,0
DA:431,0
DA:432,0
DA:433,0
DA:436,0
DA:437,0
DA:438,0
DA:439,0
DA:442,0
DA:443,0
DA:444,0
DA:445,0
DA:448,0
DA:450,0
DA:458,0
DA:459,0
DA:461,0
DA:462,0
DA:463,0
DA:464,0
DA:465,0
DA:466,0
DA:467,0
DA:468,0
DA:470,0
DA:471,0
DA:473,0
DA:475,0
DA:476,0
DA:477,0
DA:478,0
DA:480,0
DA:481,0
DA:482,0
DA:483,0
DA:486,0
DA:487,0
DA:488,0
DA:489,0
DA:492,0
DA:493,0
DA:494,0
DA:495,0
DA:498,0
LF:262
LH:0
end_of_record
TN:
SF:/root/mfem/tests/unit/fem/test_lor.cpp
FN:32,_Z34TestRefinedGridFunctionCoefficientIN4mfem23GridFunctionCoefficientENS0_19FunctionCoefficientES2_EvRNS0_18FiniteElementSpaceES4_RT0_RT1_
FN:32,_Z34TestRefinedGridFunctionCoefficientIN4mfem27CurlGridFunctionCoefficientENS0_25VectorFunctionCoefficientENS0_19FunctionCoefficientEEvRNS0_18FiniteElementSpaceES5_RT0_RT1_
FN:32,_Z34TestRefinedGridFunctionCoefficientIN4mfem27CurlGridFunctionCoefficientENS0_25VectorFunctionCoefficientES2_EvRNS0_18FiniteElementSpaceES4_RT0_RT1_
